
out.elf:     file format elf32-tradlittlemips


Disassembly of section .reset:

bd007000 <_reset>:
bd007000:	0f401c02 	jal	bd007008 <_startup>
bd007004:	00000000 	nop

bd007008 <_startup>:
bd007008:	401a6000 	mfc0	k0,c0_status
bd00700c:	7f5a04c0 	ext	k0,k0,0x13,0x1
bd007010:	13400005 	beqz	k0,bd007028 <_no_nmi>
bd007014:	00000000 	nop
bd007018:	3c1a9d01 	lui	k0,0x9d01
bd00701c:	275acea8 	addiu	k0,k0,-12632
bd007020:	03400008 	jr	k0
bd007024:	00000000 	nop

bd007028 <_no_nmi>:
bd007028:	3c1da001 	lui	sp,0xa001
bd00702c:	27bdfff8 	addiu	sp,sp,-8
bd007030:	3c1ca000 	lui	gp,0xa000
bd007034:	279c7ff0 	addiu	gp,gp,32752
bd007038:	3c089d01 	lui	t0,0x9d01
bd00703c:	2508cef0 	addiu	t0,t0,-12560
bd007040:	0100f809 	jalr	t0
bd007044:	00000000 	nop

bd007048 <_start_bss_init>:
bd007048:	3c08a000 	lui	t0,0xa000
bd00704c:	25080004 	addiu	t0,t0,4
bd007050:	3c09a000 	lui	t1,0xa000
bd007054:	25290204 	addiu	t1,t1,516
bd007058:	10000003 	b	bd007068 <_bss_check>
bd00705c:	00000000 	nop

bd007060 <_bss_init>:
bd007060:	ad000000 	sw	zero,0(t0)
bd007064:	25080004 	addiu	t0,t0,4

bd007068 <_bss_check>:
bd007068:	0109082b 	sltu	at,t0,t1
bd00706c:	1420fffc 	bnez	at,bd007060 <_bss_init>
bd007070:	00000000 	nop
bd007074:	3c089d01 	lui	t0,0x9d01
bd007078:	2508cddc 	addiu	t0,t0,-12836
bd00707c:	0100f809 	jalr	t0
bd007080:	00000000 	nop
bd007084:	3c090000 	lui	t1,0x0
bd007088:	25290000 	addiu	t1,t1,0
bd00708c:	11200010 	beqz	t1,bd0070d0 <_ramfunc_done>
bd007090:	00000000 	nop
bd007094:	3c090001 	lui	t1,0x1
bd007098:	25290000 	addiu	t1,t1,0
bd00709c:	3c0abf88 	lui	t2,0xbf88
bd0070a0:	254a2010 	addiu	t2,t2,8208
bd0070a4:	ad490000 	sw	t1,0(t2)
bd0070a8:	3c090001 	lui	t1,0x1
bd0070ac:	25290000 	addiu	t1,t1,0
bd0070b0:	3c0abf88 	lui	t2,0xbf88
bd0070b4:	254a2020 	addiu	t2,t2,8224
bd0070b8:	ad490000 	sw	t1,0(t2)
bd0070bc:	3c090001 	lui	t1,0x1
bd0070c0:	25290000 	addiu	t1,t1,0
bd0070c4:	3c0abf88 	lui	t2,0xbf88
bd0070c8:	254a2030 	addiu	t2,t2,8240
bd0070cc:	ad490000 	sw	t1,0(t2)

bd0070d0 <_ramfunc_done>:
bd0070d0:	40804800 	mtc0	zero,c0_count
bd0070d4:	240affff 	li	t2,-1
bd0070d8:	408a5800 	mtc0	t2,c0_compare
bd0070dc:	3c080040 	lui	t0,0x40
bd0070e0:	400a6000 	mfc0	t2,c0_status
bd0070e4:	010a5025 	or	t2,t0,t2
bd0070e8:	408a6000 	mtc0	t2,c0_status
bd0070ec:	3c099d00 	lui	t1,0x9d00
bd0070f0:	25296000 	addiu	t1,t1,24576
bd0070f4:	000000c0 	ehb
bd0070f8:	40897801 	mtc0	t1,c0_ebase
bd0070fc:	3c090000 	lui	t1,0x0
bd007100:	25290001 	addiu	t1,t1,1
bd007104:	240a0000 	li	t2,0
bd007108:	7d2a4944 	ins	t2,t1,0x5,0x5
bd00710c:	408a6001 	mtc0	t2,c0_intctl
bd007110:	3c090080 	lui	t1,0x80
bd007114:	40896800 	mtc0	t1,c0_cause
bd007118:	40088000 	mfc0	t0,c0_config
bd00711c:	7d090580 	ext	t1,t0,0x16,0x1
bd007120:	00094c40 	sll	t1,t1,0x11
bd007124:	40086000 	mfc0	t0,c0_status
bd007128:	3c010058 	lui	at,0x58
bd00712c:	01014024 	and	t0,t0,at
bd007130:	01284025 	or	t0,t1,t0
bd007134:	40886000 	mtc0	t0,c0_status
bd007138:	000000c0 	ehb
bd00713c:	3c089d01 	lui	t0,0x9d01
bd007140:	2508cef8 	addiu	t0,t0,-12552
bd007144:	0100f809 	jalr	t0
bd007148:	00000000 	nop
bd00714c:	40086000 	mfc0	t0,c0_status
bd007150:	3c01ffbf 	lui	at,0xffbf
bd007154:	3421ffff 	ori	at,at,0xffff
bd007158:	01014024 	and	t0,t0,at
bd00715c:	40886000 	mtc0	t0,c0_status
bd007160:	30840000 	andi	a0,a0,0x0
bd007164:	30a50000 	andi	a1,a1,0x0
bd007168:	3c089d01 	lui	t0,0x9d01
bd00716c:	2508ca0c 	addiu	t0,t0,-13812
bd007170:	01000008 	jr	t0
bd007174:	00000000 	nop

Disassembly of section .bev_excpt:

bfc07380 <_bev_exception>:
bfc07380:	3c1a9d01 	lui	k0,0x9d01
bfc07384:	275acaf8 	addiu	k0,k0,-13576
bfc07388:	03400008 	jr	k0
bfc0738c:	00000000 	nop

Disassembly of section .app_excpt:

9d006180 <_gen_exception>:
9d006180:	3c1a9d01 	lui	k0,0x9d01
9d006184:	275ac100 	addiu	k0,k0,-16128
9d006188:	03400008 	jr	k0
9d00618c:	00000000 	nop

Disassembly of section .vector_0:

9d006200 <__vector_dispatch_0>:
9d006200:	0b4032e2 	j	9d00cb88 <_DefaultInterrupt>
9d006204:	00000000 	nop

Disassembly of section .vector_1:

9d006220 <__vector_dispatch_1>:
9d006220:	0b4032e2 	j	9d00cb88 <_DefaultInterrupt>
9d006224:	00000000 	nop

Disassembly of section .vector_2:

9d006240 <__vector_dispatch_2>:
9d006240:	0b4032e2 	j	9d00cb88 <_DefaultInterrupt>
9d006244:	00000000 	nop

Disassembly of section .vector_3:

9d006260 <__vector_dispatch_3>:
9d006260:	0b4032e2 	j	9d00cb88 <_DefaultInterrupt>
9d006264:	00000000 	nop

Disassembly of section .vector_4:

9d006280 <__vector_dispatch_4>:
9d006280:	0b4032e2 	j	9d00cb88 <_DefaultInterrupt>
9d006284:	00000000 	nop

Disassembly of section .vector_5:

9d0062a0 <__vector_dispatch_5>:
9d0062a0:	0b4032e2 	j	9d00cb88 <_DefaultInterrupt>
9d0062a4:	00000000 	nop

Disassembly of section .vector_6:

9d0062c0 <__vector_dispatch_6>:
9d0062c0:	0b4032e2 	j	9d00cb88 <_DefaultInterrupt>
9d0062c4:	00000000 	nop

Disassembly of section .vector_7:

9d0062e0 <__vector_dispatch_7>:
9d0062e0:	0b4032e2 	j	9d00cb88 <_DefaultInterrupt>
9d0062e4:	00000000 	nop

Disassembly of section .vector_8:

9d006300 <__vector_dispatch_8>:
9d006300:	0b4032e2 	j	9d00cb88 <_DefaultInterrupt>
9d006304:	00000000 	nop

Disassembly of section .vector_9:

9d006320 <__vector_dispatch_9>:
9d006320:	0b4032e2 	j	9d00cb88 <_DefaultInterrupt>
9d006324:	00000000 	nop

Disassembly of section .vector_10:

9d006340 <__vector_dispatch_10>:
9d006340:	0b4032e2 	j	9d00cb88 <_DefaultInterrupt>
9d006344:	00000000 	nop

Disassembly of section .vector_11:

9d006360 <__vector_dispatch_11>:
9d006360:	0b4032e2 	j	9d00cb88 <_DefaultInterrupt>
9d006364:	00000000 	nop

Disassembly of section .vector_12:

9d006380 <__vector_dispatch_12>:
9d006380:	0b4032e2 	j	9d00cb88 <_DefaultInterrupt>
9d006384:	00000000 	nop

Disassembly of section .vector_13:

9d0063a0 <__vector_dispatch_13>:
9d0063a0:	0b4032e2 	j	9d00cb88 <_DefaultInterrupt>
9d0063a4:	00000000 	nop

Disassembly of section .vector_14:

9d0063c0 <__vector_dispatch_14>:
9d0063c0:	0b4032e2 	j	9d00cb88 <_DefaultInterrupt>
9d0063c4:	00000000 	nop

Disassembly of section .vector_15:

9d0063e0 <__vector_dispatch_15>:
9d0063e0:	0b4032e2 	j	9d00cb88 <_DefaultInterrupt>
9d0063e4:	00000000 	nop

Disassembly of section .vector_16:

9d006400 <__vector_dispatch_16>:
9d006400:	0b4032e2 	j	9d00cb88 <_DefaultInterrupt>
9d006404:	00000000 	nop

Disassembly of section .vector_17:

9d006420 <__vector_dispatch_17>:
9d006420:	0b4032e2 	j	9d00cb88 <_DefaultInterrupt>
9d006424:	00000000 	nop

Disassembly of section .vector_18:

9d006440 <__vector_dispatch_18>:
9d006440:	0b4032e2 	j	9d00cb88 <_DefaultInterrupt>
9d006444:	00000000 	nop

Disassembly of section .vector_19:

9d006460 <__vector_dispatch_19>:
9d006460:	0b4032e2 	j	9d00cb88 <_DefaultInterrupt>
9d006464:	00000000 	nop

Disassembly of section .vector_20:

9d006480 <__vector_dispatch_20>:
9d006480:	0b4032e2 	j	9d00cb88 <_DefaultInterrupt>
9d006484:	00000000 	nop

Disassembly of section .vector_21:

9d0064a0 <__vector_dispatch_21>:
9d0064a0:	0b4032e2 	j	9d00cb88 <_DefaultInterrupt>
9d0064a4:	00000000 	nop

Disassembly of section .vector_22:

9d0064c0 <__vector_dispatch_22>:
9d0064c0:	0b4032e2 	j	9d00cb88 <_DefaultInterrupt>
9d0064c4:	00000000 	nop

Disassembly of section .vector_23:

9d0064e0 <__vector_dispatch_23>:
9d0064e0:	0b4032e2 	j	9d00cb88 <_DefaultInterrupt>
9d0064e4:	00000000 	nop

Disassembly of section .vector_24:

9d006500 <__vector_dispatch_24>:
9d006500:	0b4032e2 	j	9d00cb88 <_DefaultInterrupt>
9d006504:	00000000 	nop

Disassembly of section .vector_25:

9d006520 <__vector_dispatch_25>:
9d006520:	0b4032e2 	j	9d00cb88 <_DefaultInterrupt>
9d006524:	00000000 	nop

Disassembly of section .vector_26:

9d006540 <__vector_dispatch_26>:
9d006540:	0b4032e2 	j	9d00cb88 <_DefaultInterrupt>
9d006544:	00000000 	nop

Disassembly of section .vector_27:

9d006560 <__vector_dispatch_27>:
9d006560:	0b4032e2 	j	9d00cb88 <_DefaultInterrupt>
9d006564:	00000000 	nop

Disassembly of section .vector_28:

9d006580 <__vector_dispatch_28>:
9d006580:	0b4032e2 	j	9d00cb88 <_DefaultInterrupt>
9d006584:	00000000 	nop

Disassembly of section .vector_29:

9d0065a0 <__vector_dispatch_29>:
9d0065a0:	0b4032e2 	j	9d00cb88 <_DefaultInterrupt>
9d0065a4:	00000000 	nop

Disassembly of section .vector_30:

9d0065c0 <__vector_dispatch_30>:
9d0065c0:	0b4032e2 	j	9d00cb88 <_DefaultInterrupt>
9d0065c4:	00000000 	nop

Disassembly of section .vector_31:

9d0065e0 <__vector_dispatch_31>:
9d0065e0:	0b4032e2 	j	9d00cb88 <_DefaultInterrupt>
9d0065e4:	00000000 	nop

Disassembly of section .vector_32:

9d006600 <__vector_dispatch_32>:
9d006600:	0b4032e2 	j	9d00cb88 <_DefaultInterrupt>
9d006604:	00000000 	nop

Disassembly of section .vector_33:

9d006620 <__vector_dispatch_33>:
9d006620:	0b4032e2 	j	9d00cb88 <_DefaultInterrupt>
9d006624:	00000000 	nop

Disassembly of section .vector_34:

9d006640 <__vector_dispatch_34>:
9d006640:	0b4032e2 	j	9d00cb88 <_DefaultInterrupt>
9d006644:	00000000 	nop

Disassembly of section .vector_35:

9d006660 <__vector_dispatch_35>:
9d006660:	0b4032e2 	j	9d00cb88 <_DefaultInterrupt>
9d006664:	00000000 	nop

Disassembly of section .vector_36:

9d006680 <__vector_dispatch_36>:
9d006680:	0b4032e2 	j	9d00cb88 <_DefaultInterrupt>
9d006684:	00000000 	nop

Disassembly of section .vector_37:

9d0066a0 <__vector_dispatch_37>:
9d0066a0:	0b4032e2 	j	9d00cb88 <_DefaultInterrupt>
9d0066a4:	00000000 	nop

Disassembly of section .vector_38:

9d0066c0 <__vector_dispatch_38>:
9d0066c0:	0b4032e2 	j	9d00cb88 <_DefaultInterrupt>
9d0066c4:	00000000 	nop

Disassembly of section .vector_39:

9d0066e0 <__vector_dispatch_39>:
9d0066e0:	0b4032e2 	j	9d00cb88 <_DefaultInterrupt>
9d0066e4:	00000000 	nop

Disassembly of section .vector_40:

9d006700 <__vector_dispatch_40>:
9d006700:	0b4032e2 	j	9d00cb88 <_DefaultInterrupt>
9d006704:	00000000 	nop

Disassembly of section .vector_41:

9d006720 <__vector_dispatch_41>:
9d006720:	0b4032e2 	j	9d00cb88 <_DefaultInterrupt>
9d006724:	00000000 	nop

Disassembly of section .vector_42:

9d006740 <__vector_dispatch_42>:
9d006740:	0b4032e2 	j	9d00cb88 <_DefaultInterrupt>
9d006744:	00000000 	nop

Disassembly of section .vector_43:

9d006760 <__vector_dispatch_43>:
9d006760:	0b4032e2 	j	9d00cb88 <_DefaultInterrupt>
9d006764:	00000000 	nop

Disassembly of section .rodata:

9d007490 <.rodata>:
9d007490:	58257830 	0x58257830
9d007494:	00000a0d 	break	0x0,0x28
9d007498:	6361205a 	0x6361205a
9d00749c:	25203a63 	addiu	zero,t1,14947
9d0074a0:	0066322e 	0x66322e
9d0074a4:	3a535046 	xori	s3,s2,0x5046
9d0074a8:	00662520 	0x662520
9d0074ac:	4c371b00 	0x4c371b00
9d0074b0:	3f800000 	0x3f800000
9d0074b4:	00000000 	nop
9d0074b8:	0a5accd5 	j	996b3354 <_bmxdudba_address+0x996a3354>
9d0074bc:	3f0ffb48 	0x3f0ffb48
9d0074c0:	877ee4e2 	lh	s8,-6942(k1)
9d0074c4:	3f7f40a2 	0x3f7f40a2
9d0074c8:	00000000 	nop
9d0074cc:	40754000 	0x40754000
9d0074d0:	0a3d70a4 	j	98f5c290 <_bmxdudba_address+0x98f4c290>
9d0074d4:	404243d7 	0x404243d7
9d0074d8:	00464e49 	0x464e49
9d0074dc:	00666e69 	0x666e69
9d0074e0:	004e414e 	0x4e414e
9d0074e4:	006e616e 	0x6e616e
9d0074e8:	00000000 	nop
9d0074ec:	3ff00000 	0x3ff00000
9d0074f0:	00000000 	nop
9d0074f4:	40240000 	0x40240000
9d0074f8:	00000000 	nop
9d0074fc:	43500000 	c0	0x1500000
9d007500:	00000000 	nop
9d007504:	40140000 	mfc0	s4,c0_index
9d007508:	6c696e28 	0x6c696e28
9d00750c:	00000029 	0x29
9d007510:	00000000 	nop
9d007514:	43e00000 	c0	0x1e00000
9d007518:	00000000 	nop
9d00751c:	c3e00000 	ll	zero,0(ra)
9d007520:	f0000000 	0xf0000000
9d007524:	341fffff 	li	ra,0xffff
9d007528:	00000000 	nop
9d00752c:	07f00000 	bltzal	ra,9d007530 <__vector_dispatch_43+0xdd0>
9d007530:	00000000 	nop
9d007534:	7fe00000 	ext	zero,ra,0x0,0x1
9d007538:	00000000 	nop
9d00753c:	03600000 	0x3600000
9d007540:	00000000 	nop
9d007544:	41f00000 	0x41f00000
9d007548:	00000000 	nop
9d00754c:	41f00000 	0x41f00000

Disassembly of section ._debug_exception:

bfc00480 <__DbgExecReturn>:
bfc00480:	409bf800 	mtc0	k1,c0_desave
bfc00484:	000000c0 	ehb
bfc00488:	3c1b9d01 	lui	k1,0x9d01
bfc0048c:	277bcbd0 	addiu	k1,k1,-13360
bfc00490:	13600002 	beqz	k1,bfc0049c <__DbgExecReturn+0x1c>
bfc00494:	00000000 	nop
bfc00498:	409bc000 	mtc0	k1,c0_depc
bfc0049c:	401bf800 	mfc0	k1,c0_desave
bfc004a0:	000000c0 	ehb
bfc004a4:	4200001f 	deret
bfc004a8:	00000000 	nop

Disassembly of section .text.__fmt_fp:

9d007550 <__fmt_fp>:
9d007550:	27bdff68 	addiu	sp,sp,-152
9d007554:	afa700a4 	sw	a3,164(sp)
9d007558:	8ca20000 	lw	v0,0(a1)
9d00755c:	afb60088 	sw	s6,136(sp)
9d007560:	afb40080 	sw	s4,128(sp)
9d007564:	afa2001c 	sw	v0,28(sp)
9d007568:	8ca20008 	lw	v0,8(a1)
9d00756c:	8cd60000 	lw	s6,0(a2)
9d007570:	8cd40004 	lw	s4,4(a2)
9d007574:	afa20020 	sw	v0,32(sp)
9d007578:	8ca20010 	lw	v0,16(a1)
9d00757c:	afb50084 	sw	s5,132(sp)
9d007580:	afb00070 	sw	s0,112(sp)
9d007584:	afa40098 	sw	a0,152(sp)
9d007588:	afa5009c 	sw	a1,156(sp)
9d00758c:	8cb00004 	lw	s0,4(a1)
9d007590:	8cb5000c 	lw	s5,12(a1)
9d007594:	00003025 	move	a2,zero
9d007598:	00003825 	move	a3,zero
9d00759c:	02c02025 	move	a0,s6
9d0075a0:	02802825 	move	a1,s4
9d0075a4:	afbf0094 	sw	ra,148(sp)
9d0075a8:	afbe0090 	sw	s8,144(sp)
9d0075ac:	afb7008c 	sw	s7,140(sp)
9d0075b0:	afb3007c 	sw	s3,124(sp)
9d0075b4:	afb20078 	sw	s2,120(sp)
9d0075b8:	afb10074 	sw	s1,116(sp)
9d0075bc:	0f402e81 	jal	9d00ba04 <dpcmplt>
9d0075c0:	afa20050 	sw	v0,80(sp)
9d0075c4:	0440000e 	bltz	v0,9d007600 <__fmt_fp+0xb0>
9d0075c8:	8fa2001c 	lw	v0,28(sp)
9d0075cc:	30420004 	andi	v0,v0,0x4
9d0075d0:	1440000e 	bnez	v0,9d00760c <__fmt_fp+0xbc>
9d0075d4:	2402002b 	li	v0,43
9d0075d8:	8fa2001c 	lw	v0,28(sp)
9d0075dc:	30420008 	andi	v0,v0,0x8
9d0075e0:	afa20024 	sw	v0,36(sp)
9d0075e4:	8fa20020 	lw	v0,32(sp)
9d0075e8:	afa20018 	sw	v0,24(sp)
9d0075ec:	8fa20024 	lw	v0,36(sp)
9d0075f0:	1040000c 	beqz	v0,9d007624 <__fmt_fp+0xd4>
9d0075f4:	24020020 	li	v0,32
9d0075f8:	10000005 	b	9d007610 <__fmt_fp+0xc0>
9d0075fc:	a2a20000 	sb	v0,0(s5)
9d007600:	3c028000 	lui	v0,0x8000
9d007604:	0054a026 	xor	s4,v0,s4
9d007608:	2402002d 	li	v0,45
9d00760c:	a2a20000 	sb	v0,0(s5)
9d007610:	8fa20020 	lw	v0,32(sp)
9d007614:	2442ffff 	addiu	v0,v0,-1
9d007618:	afa20018 	sw	v0,24(sp)
9d00761c:	24020001 	li	v0,1
9d007620:	afa20024 	sw	v0,36(sp)
9d007624:	8fa30024 	lw	v1,36(sp)
9d007628:	7e82f000 	ext	v0,s4,0x0,0x1f
9d00762c:	02a31821 	addu	v1,s5,v1
9d007630:	16c00024 	bnez	s6,9d0076c4 <__fmt_fp+0x174>
9d007634:	afa3002c 	sw	v1,44(sp)
9d007638:	3c037ff0 	lui	v1,0x7ff0
9d00763c:	14430022 	bne	v0,v1,9d0076c8 <__fmt_fp+0x178>
9d007640:	3c047ff0 	lui	a0,0x7ff0
9d007644:	8fa200a4 	lw	v0,164(sp)
9d007648:	2442ffbf 	addiu	v0,v0,-65
9d00764c:	2c42001a 	sltiu	v0,v0,26
9d007650:	1040001a 	beqz	v0,9d0076bc <__fmt_fp+0x16c>
9d007654:	3c059d00 	lui	a1,0x9d00
9d007658:	3c059d00 	lui	a1,0x9d00
9d00765c:	24a574d8 	addiu	a1,a1,29912
9d007660:	0f403363 	jal	9d00cd8c <strcpy>
9d007664:	8fa4002c 	lw	a0,44(sp)
9d007668:	0f4033b6 	jal	9d00ced8 <strlen>
9d00766c:	02a02025 	move	a0,s5
9d007670:	8fa3001c 	lw	v1,28(sp)
9d007674:	8fa70020 	lw	a3,32(sp)
9d007678:	8fa40098 	lw	a0,152(sp)
9d00767c:	afa30010 	sw	v1,16(sp)
9d007680:	02a02825 	move	a1,s5
9d007684:	0f402f0e 	jal	9d00bc38 <__pad>
9d007688:	00403025 	move	a2,v0
9d00768c:	8fbf0094 	lw	ra,148(sp)
9d007690:	8fbe0090 	lw	s8,144(sp)
9d007694:	8fb7008c 	lw	s7,140(sp)
9d007698:	8fb60088 	lw	s6,136(sp)
9d00769c:	8fb50084 	lw	s5,132(sp)
9d0076a0:	8fb40080 	lw	s4,128(sp)
9d0076a4:	8fb3007c 	lw	s3,124(sp)
9d0076a8:	8fb20078 	lw	s2,120(sp)
9d0076ac:	8fb10074 	lw	s1,116(sp)
9d0076b0:	8fb00070 	lw	s0,112(sp)
9d0076b4:	03e00008 	jr	ra
9d0076b8:	27bd0098 	addiu	sp,sp,152
9d0076bc:	1000ffe8 	b	9d007660 <__fmt_fp+0x110>
9d0076c0:	24a574dc 	addiu	a1,a1,29916
9d0076c4:	3c047ff0 	lui	a0,0x7ff0
9d0076c8:	24830001 	addiu	v1,a0,1
9d0076cc:	0043182b 	sltu	v1,v0,v1
9d0076d0:	50600005 	beqzl	v1,9d0076e8 <__fmt_fp+0x198>
9d0076d4:	8fa200a4 	lw	v0,164(sp)
9d0076d8:	1444000c 	bne	v0,a0,9d00770c <__fmt_fp+0x1bc>
9d0076dc:	00003025 	move	a2,zero
9d0076e0:	12c0000a 	beqz	s6,9d00770c <__fmt_fp+0x1bc>
9d0076e4:	8fa200a4 	lw	v0,164(sp)
9d0076e8:	2442ffbf 	addiu	v0,v0,-65
9d0076ec:	2c42001a 	sltiu	v0,v0,26
9d0076f0:	50400004 	beqzl	v0,9d007704 <__fmt_fp+0x1b4>
9d0076f4:	3c059d00 	lui	a1,0x9d00
9d0076f8:	3c059d00 	lui	a1,0x9d00
9d0076fc:	1000ffd8 	b	9d007660 <__fmt_fp+0x110>
9d007700:	24a574e0 	addiu	a1,a1,29920
9d007704:	1000ffd6 	b	9d007660 <__fmt_fp+0x110>
9d007708:	24a574e4 	addiu	a1,a1,29924
9d00770c:	00003825 	move	a3,zero
9d007710:	02c02025 	move	a0,s6
9d007714:	0f402e36 	jal	9d00b8d8 <__eqdf2>
9d007718:	02802825 	move	a1,s4
9d00771c:	3c139d00 	lui	s3,0x9d00
9d007720:	3c039d00 	lui	v1,0x9d00
9d007724:	afa30030 	sw	v1,48(sp)
9d007728:	8e7174e8 	lw	s1,29928(s3)
9d00772c:	8e7274ec 	lw	s2,29932(s3)
9d007730:	14400013 	bnez	v0,9d007780 <__fmt_fp+0x230>
9d007734:	0000b825 	move	s7,zero
9d007738:	0f403387 	jal	9d00ce1c <tolower>
9d00773c:	8fa400a4 	lw	a0,164(sp)
9d007740:	7c021420 	seb	v0,v0
9d007744:	afa20028 	sw	v0,40(sp)
9d007748:	8fa30028 	lw	v1,40(sp)
9d00774c:	060001ae 	bltz	s0,9d007e08 <__fmt_fp+0x8b8>
9d007750:	24020067 	li	v0,103
9d007754:	14620055 	bne	v1,v0,9d0078ac <__fmt_fp+0x35c>
9d007758:	8fbe0028 	lw	s8,40(sp)
9d00775c:	52000001 	beqzl	s0,9d007764 <__fmt_fp+0x214>
9d007760:	24100001 	li	s0,1
9d007764:	2ae2fffc 	slti	v0,s7,-4
9d007768:	14400003 	bnez	v0,9d007778 <__fmt_fp+0x228>
9d00776c:	02f0102a 	slt	v0,s7,s0
9d007770:	1440019f 	bnez	v0,9d007df0 <__fmt_fp+0x8a0>
9d007774:	00000000 	nop
9d007778:	10000058 	b	9d0078dc <__fmt_fp+0x38c>
9d00777c:	241e0065 	li	s8,101
9d007780:	3c029d00 	lui	v0,0x9d00
9d007784:	8c4a74f0 	lw	t2,29936(v0)
9d007788:	8c4b74f4 	lw	t3,29940(v0)
9d00778c:	01403025 	move	a2,t2
9d007790:	01603825 	move	a3,t3
9d007794:	02202025 	move	a0,s1
9d007798:	02402825 	move	a1,s2
9d00779c:	afaa0038 	sw	t2,56(sp)
9d0077a0:	0f402908 	jal	9d00a420 <__muldf3>
9d0077a4:	afab003c 	sw	t3,60(sp)
9d0077a8:	00402025 	move	a0,v0
9d0077ac:	02c03025 	move	a2,s6
9d0077b0:	02803825 	move	a3,s4
9d0077b4:	00602825 	move	a1,v1
9d0077b8:	0040f025 	move	s8,v0
9d0077bc:	0f402e36 	jal	9d00b8d8 <__eqdf2>
9d0077c0:	afa30028 	sw	v1,40(sp)
9d0077c4:	1c40002a 	bgtz	v0,9d007870 <__fmt_fp+0x320>
9d0077c8:	8fa80028 	lw	t0,40(sp)
9d0077cc:	8faa0038 	lw	t2,56(sp)
9d0077d0:	8fab003c 	lw	t3,60(sp)
9d0077d4:	26f70001 	addiu	s7,s7,1
9d0077d8:	03c08825 	move	s1,s8
9d0077dc:	1000ffeb 	b	9d00778c <__fmt_fp+0x23c>
9d0077e0:	01009025 	move	s2,t0
9d0077e4:	10400012 	beqz	v0,9d007830 <__fmt_fp+0x2e0>
9d0077e8:	8fa60040 	lw	a2,64(sp)
9d0077ec:	17c0000f 	bnez	s8,9d00782c <__fmt_fp+0x2dc>
9d0077f0:	8fa60028 	lw	a2,40(sp)
9d0077f4:	8fa70038 	lw	a3,56(sp)
9d0077f8:	02c02025 	move	a0,s6
9d0077fc:	0f402908 	jal	9d00a420 <__muldf3>
9d007800:	02802825 	move	a1,s4
9d007804:	8fa60048 	lw	a2,72(sp)
9d007808:	8fa70054 	lw	a3,84(sp)
9d00780c:	02202025 	move	a0,s1
9d007810:	02402825 	move	a1,s2
9d007814:	0040b025 	move	s6,v0
9d007818:	0f402908 	jal	9d00a420 <__muldf3>
9d00781c:	0060a025 	move	s4,v1
9d007820:	00408825 	move	s1,v0
9d007824:	00609025 	move	s2,v1
9d007828:	241e0001 	li	s8,1
9d00782c:	8fa60040 	lw	a2,64(sp)
9d007830:	8fa70044 	lw	a3,68(sp)
9d007834:	02202025 	move	a0,s1
9d007838:	0f402406 	jal	9d009018 <__divdf3>
9d00783c:	02402825 	move	a1,s2
9d007840:	00408825 	move	s1,v0
9d007844:	00609025 	move	s2,v1
9d007848:	26f7ffff 	addiu	s7,s7,-1
9d00784c:	02203025 	move	a2,s1
9d007850:	02403825 	move	a3,s2
9d007854:	02c02025 	move	a0,s6
9d007858:	0f402e81 	jal	9d00ba04 <dpcmplt>
9d00785c:	02802825 	move	a1,s4
9d007860:	0442ffe0 	bltzl	v0,9d0077e4 <__fmt_fp+0x294>
9d007864:	2ae2fed4 	slti	v0,s7,-300
9d007868:	1000ffb3 	b	9d007738 <__fmt_fp+0x1e8>
9d00786c:	00000000 	nop
9d007870:	3c029d00 	lui	v0,0x9d00
9d007874:	8c4374f8 	lw	v1,29944(v0)
9d007878:	8c4274fc 	lw	v0,29948(v0)
9d00787c:	0000f025 	move	s8,zero
9d007880:	afa30028 	sw	v1,40(sp)
9d007884:	afa20038 	sw	v0,56(sp)
9d007888:	8fa20038 	lw	v0,56(sp)
9d00788c:	afa30048 	sw	v1,72(sp)
9d007890:	afa20054 	sw	v0,84(sp)
9d007894:	8fa20030 	lw	v0,48(sp)
9d007898:	8c4374f4 	lw	v1,29940(v0)
9d00789c:	8c4274f0 	lw	v0,29936(v0)
9d0078a0:	afa30044 	sw	v1,68(sp)
9d0078a4:	1000ffe9 	b	9d00784c <__fmt_fp+0x2fc>
9d0078a8:	afa20040 	sw	v0,64(sp)
9d0078ac:	24020066 	li	v0,102
9d0078b0:	17c2000a 	bne	s8,v0,9d0078dc <__fmt_fp+0x38c>
9d0078b4:	26100001 	addiu	s0,s0,1
9d0078b8:	06e10004 	bgez	s7,9d0078cc <__fmt_fp+0x37c>
9d0078bc:	8fa30028 	lw	v1,40(sp)
9d0078c0:	8e7174e8 	lw	s1,29928(s3)
9d0078c4:	8e7274ec 	lw	s2,29932(s3)
9d0078c8:	0000b825 	move	s7,zero
9d0078cc:	24020067 	li	v0,103
9d0078d0:	10620002 	beq	v1,v0,9d0078dc <__fmt_fp+0x38c>
9d0078d4:	241e0066 	li	s8,102
9d0078d8:	02178021 	addu	s0,s0,s7
9d0078dc:	8fa20030 	lw	v0,48(sp)
9d0078e0:	02205025 	move	t2,s1
9d0078e4:	02404825 	move	t1,s2
9d0078e8:	8c4374f4 	lw	v1,29940(v0)
9d0078ec:	8c4274f0 	lw	v0,29936(v0)
9d0078f0:	02c06025 	move	t4,s6
9d0078f4:	02809825 	move	s3,s4
9d0078f8:	00005825 	move	t3,zero
9d0078fc:	afa20048 	sw	v0,72(sp)
9d007900:	afa3004c 	sw	v1,76(sp)
9d007904:	01403025 	move	a2,t2
9d007908:	01203825 	move	a3,t1
9d00790c:	01802025 	move	a0,t4
9d007910:	02602825 	move	a1,s3
9d007914:	afab0068 	sw	t3,104(sp)
9d007918:	afaa0060 	sw	t2,96(sp)
9d00791c:	afa90064 	sw	t1,100(sp)
9d007920:	afac0058 	sw	t4,88(sp)
9d007924:	0f402406 	jal	9d009018 <__divdf3>
9d007928:	afb30054 	sw	s3,84(sp)
9d00792c:	00402025 	move	a0,v0
9d007930:	0f402ecc 	jal	9d00bb30 <dpfloor>
9d007934:	00602825 	move	a1,v1
9d007938:	00602825 	move	a1,v1
9d00793c:	00402025 	move	a0,v0
9d007940:	afa3003c 	sw	v1,60(sp)
9d007944:	0f40314e 	jal	9d00c538 <__fixdfsi>
9d007948:	afa20038 	sw	v0,56(sp)
9d00794c:	8fa80054 	lw	t0,84(sp)
9d007950:	8fac0038 	lw	t4,56(sp)
9d007954:	8fae0058 	lw	t6,88(sp)
9d007958:	8fa90064 	lw	t1,100(sp)
9d00795c:	8faa0060 	lw	t2,96(sp)
9d007960:	8fad003c 	lw	t5,60(sp)
9d007964:	3c138000 	lui	s3,0x8000
9d007968:	02682026 	xor	a0,s3,t0
9d00796c:	01403025 	move	a2,t2
9d007970:	01203825 	move	a3,t1
9d007974:	01a02825 	move	a1,t5
9d007978:	afae0010 	sw	t6,16(sp)
9d00797c:	afa40014 	sw	a0,20(sp)
9d007980:	01802025 	move	a0,t4
9d007984:	afa90058 	sw	t1,88(sp)
9d007988:	0f401f86 	jal	9d007e18 <fma>
9d00798c:	afa20040 	sw	v0,64(sp)
9d007990:	8faa0060 	lw	t2,96(sp)
9d007994:	8fa90058 	lw	t1,88(sp)
9d007998:	8fa60048 	lw	a2,72(sp)
9d00799c:	8fa7004c 	lw	a3,76(sp)
9d0079a0:	01402025 	move	a0,t2
9d0079a4:	01202825 	move	a1,t1
9d0079a8:	afa20038 	sw	v0,56(sp)
9d0079ac:	afa20054 	sw	v0,84(sp)
9d0079b0:	0f402406 	jal	9d009018 <__divdf3>
9d0079b4:	02639826 	xor	s3,s3,v1
9d0079b8:	8fab0068 	lw	t3,104(sp)
9d0079bc:	00405025 	move	t2,v0
9d0079c0:	00604825 	move	t1,v1
9d0079c4:	256b0001 	addiu	t3,t3,1
9d0079c8:	160bffce 	bne	s0,t3,9d007904 <__fmt_fp+0x3b4>
9d0079cc:	8fac0054 	lw	t4,84(sp)
9d0079d0:	3c029d00 	lui	v0,0x9d00
9d0079d4:	8c467500 	lw	a2,29952(v0)
9d0079d8:	8c477504 	lw	a3,29956(v0)
9d0079dc:	01402025 	move	a0,t2
9d0079e0:	0f402908 	jal	9d00a420 <__muldf3>
9d0079e4:	00602825 	move	a1,v1
9d0079e8:	00603825 	move	a3,v1
9d0079ec:	afa3004c 	sw	v1,76(sp)
9d0079f0:	8fa30038 	lw	v1,56(sp)
9d0079f4:	00403025 	move	a2,v0
9d0079f8:	02602825 	move	a1,s3
9d0079fc:	00602025 	move	a0,v1
9d007a00:	0f402e81 	jal	9d00ba04 <dpcmplt>
9d007a04:	afa20048 	sw	v0,72(sp)
9d007a08:	0440000f 	bltz	v0,9d007a48 <__fmt_fp+0x4f8>
9d007a0c:	8faa0048 	lw	t2,72(sp)
9d007a10:	8fab004c 	lw	t3,76(sp)
9d007a14:	8fa30038 	lw	v1,56(sp)
9d007a18:	01403025 	move	a2,t2
9d007a1c:	01603825 	move	a3,t3
9d007a20:	00602025 	move	a0,v1
9d007a24:	0f402e36 	jal	9d00b8d8 <__eqdf2>
9d007a28:	02602825 	move	a1,s3
9d007a2c:	8faa0048 	lw	t2,72(sp)
9d007a30:	14400007 	bnez	v0,9d007a50 <__fmt_fp+0x500>
9d007a34:	8fab004c 	lw	t3,76(sp)
9d007a38:	8fa20040 	lw	v0,64(sp)
9d007a3c:	30420001 	andi	v0,v0,0x1
9d007a40:	14400004 	bnez	v0,9d007a54 <__fmt_fp+0x504>
9d007a44:	01403025 	move	a2,t2
9d007a48:	00005025 	move	t2,zero
9d007a4c:	00005825 	move	t3,zero
9d007a50:	01403025 	move	a2,t2
9d007a54:	01603825 	move	a3,t3
9d007a58:	02c02025 	move	a0,s6
9d007a5c:	0f402536 	jal	9d0094d8 <__adddf3>
9d007a60:	02802825 	move	a1,s4
9d007a64:	0040b025 	move	s6,v0
9d007a68:	afa20038 	sw	v0,56(sp)
9d007a6c:	8fa20030 	lw	v0,48(sp)
9d007a70:	02202025 	move	a0,s1
9d007a74:	02402825 	move	a1,s2
9d007a78:	8c4674f0 	lw	a2,29936(v0)
9d007a7c:	8c4774f4 	lw	a3,29940(v0)
9d007a80:	afa30040 	sw	v1,64(sp)
9d007a84:	0f402908 	jal	9d00a420 <__muldf3>
9d007a88:	afa30048 	sw	v1,72(sp)
9d007a8c:	8fa80048 	lw	t0,72(sp)
9d007a90:	02c03025 	move	a2,s6
9d007a94:	00402025 	move	a0,v0
9d007a98:	01003825 	move	a3,t0
9d007a9c:	00602825 	move	a1,v1
9d007aa0:	00409825 	move	s3,v0
9d007aa4:	0f402e81 	jal	9d00ba04 <dpcmplt>
9d007aa8:	0060a025 	move	s4,v1
9d007aac:	1c40005e 	bgtz	v0,9d007c28 <__fmt_fp+0x6d8>
9d007ab0:	24020066 	li	v0,102
9d007ab4:	17c2005e 	bne	s8,v0,9d007c30 <__fmt_fp+0x6e0>
9d007ab8:	26f70001 	addiu	s7,s7,1
9d007abc:	26100001 	addiu	s0,s0,1
9d007ac0:	02e08825 	move	s1,s7
9d007ac4:	02301023 	subu	v0,s1,s0
9d007ac8:	afa20048 	sw	v0,72(sp)
9d007acc:	8fa2001c 	lw	v0,28(sp)
9d007ad0:	8fb60024 	lw	s6,36(sp)
9d007ad4:	00005825 	move	t3,zero
9d007ad8:	30420010 	andi	v0,v0,0x10
9d007adc:	afa20054 	sw	v0,84(sp)
9d007ae0:	8fa20030 	lw	v0,48(sp)
9d007ae4:	00008025 	move	s0,zero
9d007ae8:	24120009 	li	s2,9
9d007aec:	8c4374f4 	lw	v1,29940(v0)
9d007af0:	8c4274f0 	lw	v0,29936(v0)
9d007af4:	afa30034 	sw	v1,52(sp)
9d007af8:	afa20030 	sw	v0,48(sp)
9d007afc:	8fa20048 	lw	v0,72(sp)
9d007b00:	10510007 	beq	v0,s1,9d007b20 <__fmt_fp+0x5d0>
9d007b04:	02c05025 	move	t2,s6
9d007b08:	8fa2009c 	lw	v0,156(sp)
9d007b0c:	8c420010 	lw	v0,16(v0)
9d007b10:	2442fffb 	addiu	v0,v0,-5
9d007b14:	02c2102b 	sltu	v0,s6,v0
9d007b18:	14400049 	bnez	v0,9d007c40 <__fmt_fp+0x6f0>
9d007b1c:	8fa30038 	lw	v1,56(sp)
9d007b20:	16000007 	bnez	s0,9d007b40 <__fmt_fp+0x5f0>
9d007b24:	8fa2001c 	lw	v0,28(sp)
9d007b28:	30420010 	andi	v0,v0,0x10
9d007b2c:	10400004 	beqz	v0,9d007b40 <__fmt_fp+0x5f0>
9d007b30:	02aa5021 	addu	t2,s5,t2
9d007b34:	2402002e 	li	v0,46
9d007b38:	26d60001 	addiu	s6,s6,1
9d007b3c:	a1420000 	sb	v0,0(t2)
9d007b40:	02b62021 	addu	a0,s5,s6
9d007b44:	24020065 	li	v0,101
9d007b48:	17c20025 	bne	s8,v0,9d007be0 <__fmt_fp+0x690>
9d007b4c:	a0800000 	sb	zero,0(a0)
9d007b50:	06e10003 	bgez	s7,9d007b60 <__fmt_fp+0x610>
9d007b54:	00001825 	move	v1,zero
9d007b58:	0017b823 	negu	s7,s7
9d007b5c:	24030001 	li	v1,1
9d007b60:	8fa20050 	lw	v0,80(sp)
9d007b64:	8fa60018 	lw	a2,24(sp)
9d007b68:	2407000a 	li	a3,10
9d007b6c:	2442ffff 	addiu	v0,v0,-1
9d007b70:	02a22821 	addu	a1,s5,v0
9d007b74:	a0a00000 	sb	zero,0(a1)
9d007b78:	24c9fffe 	addiu	t1,a2,-2
9d007b7c:	24050002 	li	a1,2
9d007b80:	16e00089 	bnez	s7,9d007da8 <__fmt_fp+0x858>
9d007b84:	01253021 	addu	a2,t1,a1
9d007b88:	1ca00087 	bgtz	a1,9d007da8 <__fmt_fp+0x858>
9d007b8c:	00000000 	nop
9d007b90:	2407002d 	li	a3,45
9d007b94:	2405002b 	li	a1,43
9d007b98:	00e3280b 	movn	a1,a3,v1
9d007b9c:	00a01825 	move	v1,a1
9d007ba0:	02a22821 	addu	a1,s5,v0
9d007ba4:	a0a3ffff 	sb	v1,-1(a1)
9d007ba8:	8fa300a4 	lw	v1,164(sp)
9d007bac:	24050045 	li	a1,69
9d007bb0:	2442fffe 	addiu	v0,v0,-2
9d007bb4:	2463ffbf 	addiu	v1,v1,-65
9d007bb8:	2c63001a 	sltiu	v1,v1,26
9d007bbc:	00a3f00b 	movn	s8,a1,v1
9d007bc0:	02c2b02a 	slt	s6,s6,v0
9d007bc4:	02a22821 	addu	a1,s5,v0
9d007bc8:	24c3fffe 	addiu	v1,a2,-2
9d007bcc:	a0be0000 	sb	s8,0(a1)
9d007bd0:	12c00003 	beqz	s6,9d007be0 <__fmt_fp+0x690>
9d007bd4:	afa30018 	sw	v1,24(sp)
9d007bd8:	0f403363 	jal	9d00cd8c <strcpy>
9d007bdc:	00000000 	nop
9d007be0:	8fa2001c 	lw	v0,28(sp)
9d007be4:	24030002 	li	v1,2
9d007be8:	30420003 	andi	v0,v0,0x3
9d007bec:	1443fe9e 	bne	v0,v1,9d007668 <__fmt_fp+0x118>
9d007bf0:	8fa20018 	lw	v0,24(sp)
9d007bf4:	1840fe9c 	blez	v0,9d007668 <__fmt_fp+0x118>
9d007bf8:	00000000 	nop
9d007bfc:	0f4033b6 	jal	9d00ced8 <strlen>
9d007c00:	02a02025 	move	a0,s5
9d007c04:	8fa30024 	lw	v1,36(sp)
9d007c08:	0043182a 	slt	v1,v0,v1
9d007c0c:	10600070 	beqz	v1,9d007dd0 <__fmt_fp+0x880>
9d007c10:	8fa60018 	lw	a2,24(sp)
9d007c14:	8fa4002c 	lw	a0,44(sp)
9d007c18:	0f4030d1 	jal	9d00c344 <memset>
9d007c1c:	24050030 	li	a1,48
9d007c20:	1000fe91 	b	9d007668 <__fmt_fp+0x118>
9d007c24:	afa00020 	sw	zero,32(sp)
9d007c28:	02209825 	move	s3,s1
9d007c2c:	0240a025 	move	s4,s2
9d007c30:	3bc90065 	xori	t1,s8,0x65
9d007c34:	02e08825 	move	s1,s7
9d007c38:	1000ffa2 	b	9d007ac4 <__fmt_fp+0x574>
9d007c3c:	0009880a 	movz	s1,zero,t1
9d007c40:	8fa20040 	lw	v0,64(sp)
9d007c44:	02603025 	move	a2,s3
9d007c48:	02803825 	move	a3,s4
9d007c4c:	00602025 	move	a0,v1
9d007c50:	00402825 	move	a1,v0
9d007c54:	afab0064 	sw	t3,100(sp)
9d007c58:	0f402406 	jal	9d009018 <__divdf3>
9d007c5c:	afaa0060 	sw	t2,96(sp)
9d007c60:	00402025 	move	a0,v0
9d007c64:	0f402ecc 	jal	9d00bb30 <dpfloor>
9d007c68:	00602825 	move	a1,v1
9d007c6c:	00602825 	move	a1,v1
9d007c70:	00402025 	move	a0,v0
9d007c74:	afa3005c 	sw	v1,92(sp)
9d007c78:	0f40314e 	jal	9d00c538 <__fixdfsi>
9d007c7c:	afa20058 	sw	v0,88(sp)
9d007c80:	2843000a 	slti	v1,v0,10
9d007c84:	0243100a 	movz	v0,s2,v1
9d007c88:	8fa30054 	lw	v1,84(sp)
9d007c8c:	8fb80058 	lw	t8,88(sp)
9d007c90:	8fb9005c 	lw	t9,92(sp)
9d007c94:	00621825 	or	v1,v1,v0
9d007c98:	8faa0060 	lw	t2,96(sp)
9d007c9c:	1460000b 	bnez	v1,9d007ccc <__fmt_fp+0x77c>
9d007ca0:	8fab0064 	lw	t3,100(sp)
9d007ca4:	8fa40028 	lw	a0,40(sp)
9d007ca8:	24030067 	li	v1,103
9d007cac:	14830007 	bne	a0,v1,9d007ccc <__fmt_fp+0x77c>
9d007cb0:	00000000 	nop
9d007cb4:	06200021 	bltz	s1,9d007d3c <__fmt_fp+0x7ec>
9d007cb8:	256a0001 	addiu	t2,t3,1
9d007cbc:	02c01825 	move	v1,s6
9d007cc0:	02b62021 	addu	a0,s5,s6
9d007cc4:	10000011 	b	9d007d0c <__fmt_fp+0x7bc>
9d007cc8:	01605025 	move	t2,t3
9d007ccc:	1600fffc 	bnez	s0,9d007cc0 <__fmt_fp+0x770>
9d007cd0:	02c01825 	move	v1,s6
9d007cd4:	0623fffb 	bgezl	s1,9d007cc4 <__fmt_fp+0x774>
9d007cd8:	02b62021 	addu	a0,s5,s6
9d007cdc:	8fa30018 	lw	v1,24(sp)
9d007ce0:	02aa5021 	addu	t2,s5,t2
9d007ce4:	26d60001 	addiu	s6,s6,1
9d007ce8:	2463ffff 	addiu	v1,v1,-1
9d007cec:	afa30018 	sw	v1,24(sp)
9d007cf0:	2403002e 	li	v1,46
9d007cf4:	a1430000 	sb	v1,0(t2)
9d007cf8:	1000fff0 	b	9d007cbc <__fmt_fp+0x76c>
9d007cfc:	24100001 	li	s0,1
9d007d00:	a0850000 	sb	a1,0(a0)
9d007d04:	254affff 	addiu	t2,t2,-1
9d007d08:	24840001 	addiu	a0,a0,1
9d007d0c:	1540fffc 	bnez	t2,9d007d00 <__fmt_fp+0x7b0>
9d007d10:	24050030 	li	a1,48
9d007d14:	8fa40018 	lw	a0,24(sp)
9d007d18:	26d60001 	addiu	s6,s6,1
9d007d1c:	02a31821 	addu	v1,s5,v1
9d007d20:	2484ffff 	addiu	a0,a0,-1
9d007d24:	008b2023 	subu	a0,a0,t3
9d007d28:	02cbb021 	addu	s6,s6,t3
9d007d2c:	24420030 	addiu	v0,v0,48
9d007d30:	006b5821 	addu	t3,v1,t3
9d007d34:	afa40018 	sw	a0,24(sp)
9d007d38:	a1620000 	sb	v0,0(t3)
9d007d3c:	8fa20040 	lw	v0,64(sp)
9d007d40:	8fa50038 	lw	a1,56(sp)
9d007d44:	3c0b8000 	lui	t3,0x8000
9d007d48:	01622026 	xor	a0,t3,v0
9d007d4c:	02603025 	move	a2,s3
9d007d50:	02803825 	move	a3,s4
9d007d54:	afa50010 	sw	a1,16(sp)
9d007d58:	afa40014 	sw	a0,20(sp)
9d007d5c:	03202825 	move	a1,t9
9d007d60:	03002025 	move	a0,t8
9d007d64:	0f401f86 	jal	9d007e18 <fma>
9d007d68:	afaa0058 	sw	t2,88(sp)
9d007d6c:	8fa60030 	lw	a2,48(sp)
9d007d70:	8fa70034 	lw	a3,52(sp)
9d007d74:	3c0b8000 	lui	t3,0x8000
9d007d78:	afa20038 	sw	v0,56(sp)
9d007d7c:	02602025 	move	a0,s3
9d007d80:	01631026 	xor	v0,t3,v1
9d007d84:	02802825 	move	a1,s4
9d007d88:	0f402406 	jal	9d009018 <__divdf3>
9d007d8c:	afa20040 	sw	v0,64(sp)
9d007d90:	8faa0058 	lw	t2,88(sp)
9d007d94:	00409825 	move	s3,v0
9d007d98:	0060a025 	move	s4,v1
9d007d9c:	2631ffff 	addiu	s1,s1,-1
9d007da0:	1000ff56 	b	9d007afc <__fmt_fp+0x5ac>
9d007da4:	01405825 	move	t3,t2
9d007da8:	02e7001a 	div	zero,s7,a3
9d007dac:	00e001f4 	teq	a3,zero,0x7
9d007db0:	2442ffff 	addiu	v0,v0,-1
9d007db4:	02a25021 	addu	t2,s5,v0
9d007db8:	24a5ffff 	addiu	a1,a1,-1
9d007dbc:	00003010 	mfhi	a2
9d007dc0:	24c60030 	addiu	a2,a2,48
9d007dc4:	a1460000 	sb	a2,0(t2)
9d007dc8:	1000ff6d 	b	9d007b80 <__fmt_fp+0x630>
9d007dcc:	0000b812 	mflo	s7
9d007dd0:	02a21821 	addu	v1,s5,v0
9d007dd4:	80640000 	lb	a0,0(v1)
9d007dd8:	8fa30018 	lw	v1,24(sp)
9d007ddc:	00621821 	addu	v1,v1,v0
9d007de0:	02a31821 	addu	v1,s5,v1
9d007de4:	a0640000 	sb	a0,0(v1)
9d007de8:	1000ff86 	b	9d007c04 <__fmt_fp+0x6b4>
9d007dec:	2442ffff 	addiu	v0,v0,-1
9d007df0:	06e1feb6 	bgez	s7,9d0078cc <__fmt_fp+0x37c>
9d007df4:	8fa30028 	lw	v1,40(sp)
9d007df8:	1000feac 	b	9d0078ac <__fmt_fp+0x35c>
9d007dfc:	241e0066 	li	s8,102
9d007e00:	1000fe58 	b	9d007764 <__fmt_fp+0x214>
9d007e04:	24100006 	li	s0,6
9d007e08:	1062fe56 	beq	v1,v0,9d007764 <__fmt_fp+0x214>
9d007e0c:	24100006 	li	s0,6
9d007e10:	1000fea6 	b	9d0078ac <__fmt_fp+0x35c>
9d007e14:	0060f025 	move	s8,v1

Disassembly of section .text.fma:

9d007e18 <fma>:
9d007e18:	27bdff78 	addiu	sp,sp,-136
9d007e1c:	afa40088 	sw	a0,136(sp)
9d007e20:	afa60090 	sw	a2,144(sp)
9d007e24:	afa70094 	sw	a3,148(sp)
9d007e28:	00803025 	move	a2,a0
9d007e2c:	00a03825 	move	a3,a1
9d007e30:	27a40030 	addiu	a0,sp,48
9d007e34:	afbf0084 	sw	ra,132(sp)
9d007e38:	afa5008c 	sw	a1,140(sp)
9d007e3c:	afbe0080 	sw	s8,128(sp)
9d007e40:	afb3006c 	sw	s3,108(sp)
9d007e44:	afb20068 	sw	s2,104(sp)
9d007e48:	afb10064 	sw	s1,100(sp)
9d007e4c:	8fb20098 	lw	s2,152(sp)
9d007e50:	8fb3009c 	lw	s3,156(sp)
9d007e54:	afb7007c 	sw	s7,124(sp)
9d007e58:	afb60078 	sw	s6,120(sp)
9d007e5c:	afb50074 	sw	s5,116(sp)
9d007e60:	afb40070 	sw	s4,112(sp)
9d007e64:	0f4030fb 	jal	9d00c3ec <normalize>
9d007e68:	afb00060 	sw	s0,96(sp)
9d007e6c:	8fa60090 	lw	a2,144(sp)
9d007e70:	8fa70094 	lw	a3,148(sp)
9d007e74:	8fb10038 	lw	s1,56(sp)
9d007e78:	0f4030fb 	jal	9d00c3ec <normalize>
9d007e7c:	27a40020 	addiu	a0,sp,32
9d007e80:	02403025 	move	a2,s2
9d007e84:	02603825 	move	a3,s3
9d007e88:	27a40010 	addiu	a0,sp,16
9d007e8c:	0f4030fb 	jal	9d00c3ec <normalize>
9d007e90:	8fbe0028 	lw	s8,40(sp)
9d007e94:	2a2203cb 	slti	v0,s1,971
9d007e98:	10400003 	beqz	v0,9d007ea8 <fma+0x90>
9d007e9c:	2bc203cb 	slti	v0,s8,971
9d007ea0:	1440000e 	bnez	v0,9d007edc <fma+0xc4>
9d007ea4:	8fb90018 	lw	t9,24(sp)
9d007ea8:	8fa60090 	lw	a2,144(sp)
9d007eac:	8fa70094 	lw	a3,148(sp)
9d007eb0:	8fa40088 	lw	a0,136(sp)
9d007eb4:	0f402908 	jal	9d00a420 <__muldf3>
9d007eb8:	8fa5008c 	lw	a1,140(sp)
9d007ebc:	00403025 	move	a2,v0
9d007ec0:	00603825 	move	a3,v1
9d007ec4:	02402025 	move	a0,s2
9d007ec8:	0f402536 	jal	9d0094d8 <__adddf3>
9d007ecc:	02602825 	move	a1,s3
9d007ed0:	00409025 	move	s2,v0
9d007ed4:	10000006 	b	9d007ef0 <fma+0xd8>
9d007ed8:	00609825 	move	s3,v1
9d007edc:	2b2203cb 	slti	v0,t9,971
9d007ee0:	14400011 	bnez	v0,9d007f28 <fma+0x110>
9d007ee4:	240203cb 	li	v0,971
9d007ee8:	1722fff0 	bne	t9,v0,9d007eac <fma+0x94>
9d007eec:	8fa60090 	lw	a2,144(sp)
9d007ef0:	8fbf0084 	lw	ra,132(sp)
9d007ef4:	02401025 	move	v0,s2
9d007ef8:	02601825 	move	v1,s3
9d007efc:	8fbe0080 	lw	s8,128(sp)
9d007f00:	8fb7007c 	lw	s7,124(sp)
9d007f04:	8fb60078 	lw	s6,120(sp)
9d007f08:	8fb50074 	lw	s5,116(sp)
9d007f0c:	8fb40070 	lw	s4,112(sp)
9d007f10:	8fb3006c 	lw	s3,108(sp)
9d007f14:	8fb20068 	lw	s2,104(sp)
9d007f18:	8fb10064 	lw	s1,100(sp)
9d007f1c:	8fb00060 	lw	s0,96(sp)
9d007f20:	03e00008 	jr	ra
9d007f24:	27bd0088 	addiu	sp,sp,136
9d007f28:	8fa20030 	lw	v0,48(sp)
9d007f2c:	8faa0020 	lw	t2,32(sp)
9d007f30:	8fa40024 	lw	a0,36(sp)
9d007f34:	8fa60034 	lw	a2,52(sp)
9d007f38:	004a0019 	multu	v0,t2
9d007f3c:	03d1f021 	addu	s8,s8,s1
9d007f40:	033e8823 	subu	s1,t9,s8
9d007f44:	8fa70010 	lw	a3,16(sp)
9d007f48:	8fb70014 	lw	s7,20(sp)
9d007f4c:	00004012 	mflo	t0
9d007f50:	afa80040 	sw	t0,64(sp)
9d007f54:	8faf0040 	lw	t7,64(sp)
9d007f58:	00004810 	mfhi	t1
9d007f5c:	afa90044 	sw	t1,68(sp)
9d007f60:	00440019 	multu	v0,a0
9d007f64:	00001012 	mflo	v0
9d007f68:	00001810 	mfhi	v1
9d007f6c:	00ca0019 	multu	a2,t2
9d007f70:	00005012 	mflo	t2
9d007f74:	004ac021 	addu	t8,v0,t2
9d007f78:	0302402b 	sltu	t0,t8,v0
9d007f7c:	00005810 	mfhi	t3
9d007f80:	8fa20044 	lw	v0,68(sp)
9d007f84:	006b5821 	addu	t3,v1,t3
9d007f88:	00c40019 	multu	a2,a0
9d007f8c:	010b4021 	addu	t0,t0,t3
9d007f90:	0302c021 	addu	t8,t8,v0
9d007f94:	0302302b 	sltu	a2,t8,v0
9d007f98:	00002012 	mflo	a0
9d007f9c:	00884021 	addu	t0,a0,t0
9d007fa0:	01063021 	addu	a2,t0,a2
9d007fa4:	00002810 	mfhi	a1
9d007fa8:	0104582b 	sltu	t3,t0,a0
9d007fac:	01655821 	addu	t3,t3,a1
9d007fb0:	00c8182b 	sltu	v1,a2,t0
9d007fb4:	00c08025 	move	s0,a2
9d007fb8:	1a2000ab 	blez	s1,9d008268 <fma+0x450>
9d007fbc:	006bb021 	addu	s6,v1,t3
9d007fc0:	2a220040 	slti	v0,s1,64
9d007fc4:	10400078 	beqz	v0,9d0081a8 <fma+0x390>
9d007fc8:	00e02025 	move	a0,a3
9d007fcc:	02e02825 	move	a1,s7
9d007fd0:	02203025 	move	a2,s1
9d007fd4:	afb80054 	sw	t8,84(sp)
9d007fd8:	afaf0050 	sw	t7,80(sp)
9d007fdc:	0f403333 	jal	9d00cccc <__ashldi3>
9d007fe0:	afa7004c 	sw	a3,76(sp)
9d007fe4:	8fa7004c 	lw	a3,76(sp)
9d007fe8:	24060040 	li	a2,64
9d007fec:	02e02825 	move	a1,s7
9d007ff0:	00e02025 	move	a0,a3
9d007ff4:	00d13023 	subu	a2,a2,s1
9d007ff8:	afa20048 	sw	v0,72(sp)
9d007ffc:	0f403324 	jal	9d00cc90 <__lshrdi3>
9d008000:	afa30040 	sw	v1,64(sp)
9d008004:	8fb90040 	lw	t9,64(sp)
9d008008:	8fa80048 	lw	t0,72(sp)
9d00800c:	8faf0050 	lw	t7,80(sp)
9d008010:	8fb80054 	lw	t8,84(sp)
9d008014:	00403825 	move	a3,v0
9d008018:	0060b825 	move	s7,v1
9d00801c:	8fa2002c 	lw	v0,44(sp)
9d008020:	8fb1003c 	lw	s1,60(sp)
9d008024:	02228826 	xor	s1,s1,v0
9d008028:	8fa2001c 	lw	v0,28(sp)
9d00802c:	145100b5 	bne	v0,s1,9d008304 <fma+0x4ec>
9d008030:	010f5021 	addu	t2,t0,t7
9d008034:	0148902b 	sltu	s2,t2,t0
9d008038:	0338c021 	addu	t8,t9,t8
9d00803c:	0258a021 	addu	s4,s2,t8
9d008040:	0299102b 	sltu	v0,s4,t9
9d008044:	0140a825 	move	s5,t2
9d008048:	14400006 	bnez	v0,9d008064 <fma+0x24c>
9d00804c:	24040001 	li	a0,1
9d008050:	17340003 	bne	t9,s4,9d008060 <fma+0x248>
9d008054:	0148402b 	sltu	t0,t2,t0
9d008058:	15000003 	bnez	t0,9d008068 <fma+0x250>
9d00805c:	00f06021 	addu	t4,a3,s0
9d008060:	00002025 	move	a0,zero
9d008064:	00f06021 	addu	t4,a3,s0
9d008068:	0187102b 	sltu	v0,t4,a3
9d00806c:	02f61821 	addu	v1,s7,s6
9d008070:	008c6021 	addu	t4,a0,t4
9d008074:	00431021 	addu	v0,v0,v1
9d008078:	0184202b 	sltu	a0,t4,a0
9d00807c:	00826821 	addu	t5,a0,v0
9d008080:	01802025 	move	a0,t4
9d008084:	01a02825 	move	a1,t5
9d008088:	afac0048 	sw	t4,72(sp)
9d00808c:	0f40320c 	jal	9d00c830 <a_clz_64>
9d008090:	afad0040 	sw	t5,64(sp)
9d008094:	2453ffff 	addiu	s3,v0,-1
9d008098:	24060040 	li	a2,64
9d00809c:	00d33023 	subu	a2,a2,s3
9d0080a0:	02a02025 	move	a0,s5
9d0080a4:	0f403324 	jal	9d00cc90 <__lshrdi3>
9d0080a8:	02802825 	move	a1,s4
9d0080ac:	8fac0048 	lw	t4,72(sp)
9d0080b0:	8fad0040 	lw	t5,64(sp)
9d0080b4:	02603025 	move	a2,s3
9d0080b8:	01802025 	move	a0,t4
9d0080bc:	01a02825 	move	a1,t5
9d0080c0:	00408025 	move	s0,v0
9d0080c4:	0f403333 	jal	9d00cccc <__ashldi3>
9d0080c8:	00609025 	move	s2,v1
9d0080cc:	02603025 	move	a2,s3
9d0080d0:	02a02025 	move	a0,s5
9d0080d4:	02802825 	move	a1,s4
9d0080d8:	02028025 	or	s0,s0,v0
9d0080dc:	0f403333 	jal	9d00cccc <__ashldi3>
9d0080e0:	02439025 	or	s2,s2,v1
9d0080e4:	00431025 	or	v0,v0,v1
9d0080e8:	0002102b 	sltu	v0,zero,v0
9d0080ec:	27de0040 	addiu	s8,s8,64
9d0080f0:	02028025 	or	s0,s0,v0
9d0080f4:	02002025 	move	a0,s0
9d0080f8:	12200005 	beqz	s1,9d008110 <fma+0x2f8>
9d0080fc:	02402825 	move	a1,s2
9d008100:	00102023 	negu	a0,s0
9d008104:	0004102b 	sltu	v0,zero,a0
9d008108:	00122823 	negu	a1,s2
9d00810c:	00a22823 	subu	a1,a1,v0
9d008110:	0f4031ef 	jal	9d00c7bc <__floatdidf>
9d008114:	03d3f023 	subu	s8,s8,s3
9d008118:	0040b025 	move	s6,v0
9d00811c:	2bc2fbc4 	slti	v0,s8,-1084
9d008120:	104000f8 	beqz	v0,9d008504 <fma+0x6ec>
9d008124:	0060b825 	move	s7,v1
9d008128:	2402fbc3 	li	v0,-1085
9d00812c:	17c200fb 	bne	s8,v0,9d00851c <fma+0x704>
9d008130:	00102580 	sll	a0,s0,0x16
9d008134:	122000b4 	beqz	s1,9d008408 <fma+0x5f0>
9d008138:	3c029d00 	lui	v0,0x9d00
9d00813c:	8c547518 	lw	s4,29976(v0)
9d008140:	8c55751c 	lw	s5,29980(v0)
9d008144:	02c03025 	move	a2,s6
9d008148:	02e03825 	move	a3,s7
9d00814c:	02802025 	move	a0,s4
9d008150:	0f402e36 	jal	9d00b8d8 <__eqdf2>
9d008154:	02a02825 	move	a1,s5
9d008158:	144000af 	bnez	v0,9d008418 <fma+0x600>
9d00815c:	3c029d00 	lui	v0,0x9d00
9d008160:	8c467520 	lw	a2,29984(v0)
9d008164:	8c477524 	lw	a3,29988(v0)
9d008168:	02c02025 	move	a0,s6
9d00816c:	0f402908 	jal	9d00a420 <__muldf3>
9d008170:	02e02825 	move	a1,s7
9d008174:	00602825 	move	a1,v1
9d008178:	0f402f4e 	jal	9d00bd38 <__truncdfsf2>
9d00817c:	00402025 	move	a0,v0
9d008180:	0f4030a6 	jal	9d00c298 <__extendsfdf2>
9d008184:	00402025 	move	a0,v0
9d008188:	3c049d00 	lui	a0,0x9d00
9d00818c:	8c867528 	lw	a2,29992(a0)
9d008190:	8c87752c 	lw	a3,29996(a0)
9d008194:	00602825 	move	a1,v1
9d008198:	0f402908 	jal	9d00a420 <__muldf3>
9d00819c:	00402025 	move	a0,v0
9d0081a0:	1000ff4c 	b	9d007ed4 <fma+0xbc>
9d0081a4:	00409025 	move	s2,v0
9d0081a8:	2631ffc0 	addiu	s1,s1,-64
9d0081ac:	273effc0 	addiu	s8,t9,-64
9d0081b0:	00004025 	move	t0,zero
9d0081b4:	1220ff99 	beqz	s1,9d00801c <fma+0x204>
9d0081b8:	0000c825 	move	t9,zero
9d0081bc:	2a220040 	slti	v0,s1,64
9d0081c0:	10400043 	beqz	v0,9d0082d0 <fma+0x4b8>
9d0081c4:	8fa40040 	lw	a0,64(sp)
9d0081c8:	240d0040 	li	t5,64
9d0081cc:	01b16823 	subu	t5,t5,s1
9d0081d0:	01a03025 	move	a2,t5
9d0081d4:	03002825 	move	a1,t8
9d0081d8:	afb90058 	sw	t9,88(sp)
9d0081dc:	afa80054 	sw	t0,84(sp)
9d0081e0:	afa70050 	sw	a3,80(sp)
9d0081e4:	afad004c 	sw	t5,76(sp)
9d0081e8:	0f403333 	jal	9d00cccc <__ashldi3>
9d0081ec:	afb80048 	sw	t8,72(sp)
9d0081f0:	8fb80048 	lw	t8,72(sp)
9d0081f4:	8fa40040 	lw	a0,64(sp)
9d0081f8:	00431025 	or	v0,v0,v1
9d0081fc:	03002825 	move	a1,t8
9d008200:	02203025 	move	a2,s1
9d008204:	0f403324 	jal	9d00cc90 <__lshrdi3>
9d008208:	0002a82b 	sltu	s5,zero,v0
9d00820c:	8fad004c 	lw	t5,76(sp)
9d008210:	02002025 	move	a0,s0
9d008214:	02c02825 	move	a1,s6
9d008218:	01a03025 	move	a2,t5
9d00821c:	0060a025 	move	s4,v1
9d008220:	0f403333 	jal	9d00cccc <__ashldi3>
9d008224:	02a2a825 	or	s5,s5,v0
9d008228:	02a27825 	or	t7,s5,v0
9d00822c:	0283c025 	or	t8,s4,v1
9d008230:	02002025 	move	a0,s0
9d008234:	02c02825 	move	a1,s6
9d008238:	02203025 	move	a2,s1
9d00823c:	afaf0048 	sw	t7,72(sp)
9d008240:	0f403324 	jal	9d00cc90 <__lshrdi3>
9d008244:	afb80040 	sw	t8,64(sp)
9d008248:	00408025 	move	s0,v0
9d00824c:	0060b025 	move	s6,v1
9d008250:	8fb80040 	lw	t8,64(sp)
9d008254:	8faf0048 	lw	t7,72(sp)
9d008258:	8fa70050 	lw	a3,80(sp)
9d00825c:	8fa80054 	lw	t0,84(sp)
9d008260:	1000ff6e 	b	9d00801c <fma+0x204>
9d008264:	8fb90058 	lw	t9,88(sp)
9d008268:	03d98823 	subu	s1,s8,t9
9d00826c:	1220001d 	beqz	s1,9d0082e4 <fma+0x4cc>
9d008270:	2a220040 	slti	v0,s1,64
9d008274:	10400020 	beqz	v0,9d0082f8 <fma+0x4e0>
9d008278:	24060040 	li	a2,64
9d00827c:	00e02025 	move	a0,a3
9d008280:	02e02825 	move	a1,s7
9d008284:	00d13023 	subu	a2,a2,s1
9d008288:	afb8004c 	sw	t8,76(sp)
9d00828c:	afaf0048 	sw	t7,72(sp)
9d008290:	0f403333 	jal	9d00cccc <__ashldi3>
9d008294:	afa70040 	sw	a3,64(sp)
9d008298:	8fa70040 	lw	a3,64(sp)
9d00829c:	00431025 	or	v0,v0,v1
9d0082a0:	02e02825 	move	a1,s7
9d0082a4:	00e02025 	move	a0,a3
9d0082a8:	02203025 	move	a2,s1
9d0082ac:	0f403324 	jal	9d00cc90 <__lshrdi3>
9d0082b0:	0002a02b 	sltu	s4,zero,v0
9d0082b4:	02824025 	or	t0,s4,v0
9d0082b8:	0060c825 	move	t9,v1
9d0082bc:	00003825 	move	a3,zero
9d0082c0:	0000b825 	move	s7,zero
9d0082c4:	8faf0048 	lw	t7,72(sp)
9d0082c8:	1000ff54 	b	9d00801c <fma+0x204>
9d0082cc:	8fb8004c 	lw	t8,76(sp)
9d0082d0:	240f0001 	li	t7,1
9d0082d4:	0000c025 	move	t8,zero
9d0082d8:	00008025 	move	s0,zero
9d0082dc:	1000ff4f 	b	9d00801c <fma+0x204>
9d0082e0:	0000b025 	move	s6,zero
9d0082e4:	00e04025 	move	t0,a3
9d0082e8:	02e0c825 	move	t9,s7
9d0082ec:	00003825 	move	a3,zero
9d0082f0:	1000ff4a 	b	9d00801c <fma+0x204>
9d0082f4:	0000b825 	move	s7,zero
9d0082f8:	24080001 	li	t0,1
9d0082fc:	1000fffb 	b	9d0082ec <fma+0x4d4>
9d008300:	0000c825 	move	t9,zero
9d008304:	01e85023 	subu	t2,t7,t0
9d008308:	01ea182b 	sltu	v1,t7,t2
9d00830c:	03194823 	subu	t1,t8,t9
9d008310:	0123a023 	subu	s4,t1,v1
9d008314:	0314102b 	sltu	v0,t8,s4
9d008318:	0140a825 	move	s5,t2
9d00831c:	241f0001 	li	ra,1
9d008320:	14400006 	bnez	v0,9d00833c <fma+0x524>
9d008324:	00002025 	move	a0,zero
9d008328:	56980004 	bnel	s4,t8,9d00833c <fma+0x524>
9d00832c:	0000f825 	move	ra,zero
9d008330:	14600003 	bnez	v1,9d008340 <fma+0x528>
9d008334:	02071823 	subu	v1,s0,a3
9d008338:	0000f825 	move	ra,zero
9d00833c:	02071823 	subu	v1,s0,a3
9d008340:	0203682b 	sltu	t5,s0,v1
9d008344:	02d71023 	subu	v0,s6,s7
9d008348:	004d1023 	subu	v0,v0,t5
9d00834c:	007f6023 	subu	t4,v1,ra
9d008350:	006c182b 	sltu	v1,v1,t4
9d008354:	00441023 	subu	v0,v0,a0
9d008358:	00436823 	subu	t5,v0,v1
9d00835c:	05a10013 	bgez	t5,9d0083ac <fma+0x594>
9d008360:	010f5023 	subu	t2,t0,t7
9d008364:	010a402b 	sltu	t0,t0,t2
9d008368:	03384823 	subu	t1,t9,t8
9d00836c:	00f03023 	subu	a2,a3,s0
9d008370:	0128a023 	subu	s4,t1,t0
9d008374:	00e6102b 	sltu	v0,a3,a2
9d008378:	02f61823 	subu	v1,s7,s6
9d00837c:	01546025 	or	t4,t2,s4
9d008380:	00dff821 	addu	ra,a2,ra
9d008384:	00621823 	subu	v1,v1,v0
9d008388:	000c602b 	sltu	t4,zero,t4
9d00838c:	03e6302b 	sltu	a2,ra,a2
9d008390:	00641021 	addu	v0,v1,a0
9d008394:	03ec6023 	subu	t4,ra,t4
9d008398:	00c21021 	addu	v0,a2,v0
9d00839c:	03ecf82b 	sltu	ra,ra,t4
9d0083a0:	0140a825 	move	s5,t2
9d0083a4:	005f6823 	subu	t5,v0,ra
9d0083a8:	2e310001 	sltiu	s1,s1,1
9d0083ac:	018d1025 	or	v0,t4,t5
9d0083b0:	1440ff33 	bnez	v0,9d008080 <fma+0x268>
9d0083b4:	02b41025 	or	v0,s5,s4
9d0083b8:	1040febb 	beqz	v0,9d007ea8 <fma+0x90>
9d0083bc:	02a02025 	move	a0,s5
9d0083c0:	0f40320c 	jal	9d00c830 <a_clz_64>
9d0083c4:	02802825 	move	a1,s4
9d0083c8:	2453ffff 	addiu	s3,v0,-1
9d0083cc:	06610007 	bgez	s3,9d0083ec <fma+0x5d4>
9d0083d0:	001417c0 	sll	v0,s4,0x1f
9d0083d4:	00158042 	srl	s0,s5,0x1
9d0083d8:	00508025 	or	s0,v0,s0
9d0083dc:	32aa0001 	andi	t2,s5,0x1
9d0083e0:	020a8025 	or	s0,s0,t2
9d0083e4:	1000ff43 	b	9d0080f4 <fma+0x2dc>
9d0083e8:	00149042 	srl	s2,s4,0x1
9d0083ec:	02603025 	move	a2,s3
9d0083f0:	02a02025 	move	a0,s5
9d0083f4:	0f403333 	jal	9d00cccc <__ashldi3>
9d0083f8:	02802825 	move	a1,s4
9d0083fc:	00408025 	move	s0,v0
9d008400:	1000ff3c 	b	9d0080f4 <fma+0x2dc>
9d008404:	00609025 	move	s2,v1
9d008408:	3c029d00 	lui	v0,0x9d00
9d00840c:	8c547510 	lw	s4,29968(v0)
9d008410:	1000ff4c 	b	9d008144 <fma+0x32c>
9d008414:	8c557514 	lw	s5,29972(v0)
9d008418:	00101540 	sll	v0,s0,0x15
9d00841c:	10400039 	beqz	v0,9d008504 <fma+0x6ec>
9d008420:	001217c0 	sll	v0,s2,0x1f
9d008424:	00102042 	srl	a0,s0,0x1
9d008428:	00442025 	or	a0,v0,a0
9d00842c:	00122842 	srl	a1,s2,0x1
9d008430:	32100001 	andi	s0,s0,0x1
9d008434:	3c024000 	lui	v0,0x4000
9d008438:	00902025 	or	a0,a0,s0
9d00843c:	12200005 	beqz	s1,9d008454 <fma+0x63c>
9d008440:	00452825 	or	a1,v0,a1
9d008444:	00042023 	negu	a0,a0
9d008448:	0004102b 	sltu	v0,zero,a0
9d00844c:	00052823 	negu	a1,a1
9d008450:	00a22823 	subu	a1,a1,v0
9d008454:	0f4031ef 	jal	9d00c7bc <__floatdidf>
9d008458:	00000000 	nop
9d00845c:	00403025 	move	a2,v0
9d008460:	00603825 	move	a3,v1
9d008464:	00402025 	move	a0,v0
9d008468:	0f402536 	jal	9d0094d8 <__adddf3>
9d00846c:	00602825 	move	a1,v1
9d008470:	00402025 	move	a0,v0
9d008474:	02803025 	move	a2,s4
9d008478:	02a03825 	move	a3,s5
9d00847c:	0f402534 	jal	9d0094d0 <__subdf3>
9d008480:	00602825 	move	a1,v1
9d008484:	00408025 	move	s0,v0
9d008488:	3c029d00 	lui	v0,0x9d00
9d00848c:	8c467528 	lw	a2,29992(v0)
9d008490:	8c47752c 	lw	a3,29996(v0)
9d008494:	02002025 	move	a0,s0
9d008498:	00602825 	move	a1,v1
9d00849c:	0f402908 	jal	9d00a420 <__muldf3>
9d0084a0:	00608825 	move	s1,v1
9d0084a4:	00403025 	move	a2,v0
9d0084a8:	00603825 	move	a3,v1
9d0084ac:	00402025 	move	a0,v0
9d0084b0:	0f402908 	jal	9d00a420 <__muldf3>
9d0084b4:	00602825 	move	a1,v1
9d0084b8:	02003025 	move	a2,s0
9d0084bc:	02203825 	move	a3,s1
9d0084c0:	02002025 	move	a0,s0
9d0084c4:	02202825 	move	a1,s1
9d0084c8:	00409025 	move	s2,v0
9d0084cc:	0f402534 	jal	9d0094d0 <__subdf3>
9d0084d0:	00609825 	move	s3,v1
9d0084d4:	00403025 	move	a2,v0
9d0084d8:	00603825 	move	a3,v1
9d0084dc:	02402025 	move	a0,s2
9d0084e0:	0f402908 	jal	9d00a420 <__muldf3>
9d0084e4:	02602825 	move	a1,s3
9d0084e8:	00402025 	move	a0,v0
9d0084ec:	02003025 	move	a2,s0
9d0084f0:	02203825 	move	a3,s1
9d0084f4:	0f402536 	jal	9d0094d8 <__adddf3>
9d0084f8:	00602825 	move	a1,v1
9d0084fc:	0040b025 	move	s6,v0
9d008500:	0060b825 	move	s7,v1
9d008504:	03c03025 	move	a2,s8
9d008508:	02c02025 	move	a0,s6
9d00850c:	0f402fcb 	jal	9d00bf2c <scalbn>
9d008510:	02e02825 	move	a1,s7
9d008514:	1000fe6f 	b	9d007ed4 <fma+0xbc>
9d008518:	00409025 	move	s2,v0
9d00851c:	00121580 	sll	v0,s2,0x16
9d008520:	00108282 	srl	s0,s0,0xa
9d008524:	00508025 	or	s0,v0,s0
9d008528:	0004202b 	sltu	a0,zero,a0
9d00852c:	00902025 	or	a0,a0,s0
9d008530:	02402825 	move	a1,s2
9d008534:	00041582 	srl	v0,a0,0x16
9d008538:	7c054804 	ins	a1,zero,0x0,0xa
9d00853c:	00452825 	or	a1,v0,a1
9d008540:	12200005 	beqz	s1,9d008558 <fma+0x740>
9d008544:	00042280 	sll	a0,a0,0xa
9d008548:	00042023 	negu	a0,a0
9d00854c:	0004102b 	sltu	v0,zero,a0
9d008550:	00052823 	negu	a1,a1
9d008554:	00a22823 	subu	a1,a1,v0
9d008558:	0f4031ef 	jal	9d00c7bc <__floatdidf>
9d00855c:	00000000 	nop
9d008560:	1000ffe7 	b	9d008500 <fma+0x6e8>
9d008564:	0040b025 	move	s6,v0

Disassembly of section .text.__printf_core:

9d008568 <__printf_core>:
9d008568:	27bdff18 	addiu	sp,sp,-232
9d00856c:	afb500d8 	sw	s5,216(sp)
9d008570:	3c159d00 	lui	s5,0x9d00
9d008574:	afb600dc 	sw	s6,220(sp)
9d008578:	afb400d4 	sw	s4,212(sp)
9d00857c:	afb300d0 	sw	s3,208(sp)
9d008580:	afb200cc 	sw	s2,204(sp)
9d008584:	afb100c8 	sw	s1,200(sp)
9d008588:	afbf00e4 	sw	ra,228(sp)
9d00858c:	afb700e0 	sw	s7,224(sp)
9d008590:	afb000c4 	sw	s0,196(sp)
9d008594:	00809025 	move	s2,a0
9d008598:	00c08825 	move	s1,a2
9d00859c:	afa500b0 	sw	a1,176(sp)
9d0085a0:	00009825 	move	s3,zero
9d0085a4:	27b60010 	addiu	s6,sp,16
9d0085a8:	24140025 	li	s4,37
9d0085ac:	26b57508 	addiu	s5,s5,29960
9d0085b0:	8fa500b0 	lw	a1,176(sp)
9d0085b4:	80a20000 	lb	v0,0(a1)
9d0085b8:	104000e0 	beqz	v0,9d00893c <__printf_core+0x3d4>
9d0085bc:	2402ffff 	li	v0,-1
9d0085c0:	afa20094 	sw	v0,148(sp)
9d0085c4:	24020080 	li	v0,128
9d0085c8:	afa00090 	sw	zero,144(sp)
9d0085cc:	afa00098 	sw	zero,152(sp)
9d0085d0:	afb6009c 	sw	s6,156(sp)
9d0085d4:	afa200a0 	sw	v0,160(sp)
9d0085d8:	00008025 	move	s0,zero
9d0085dc:	00b01021 	addu	v0,a1,s0
9d0085e0:	80420000 	lb	v0,0(v0)
9d0085e4:	10400003 	beqz	v0,9d0085f4 <__printf_core+0x8c>
9d0085e8:	00000000 	nop
9d0085ec:	5454fffb 	bnel	v0,s4,9d0085dc <__printf_core+0x74>
9d0085f0:	26100001 	addiu	s0,s0,1
9d0085f4:	12000006 	beqz	s0,9d008610 <__printf_core+0xa8>
9d0085f8:	02003025 	move	a2,s0
9d0085fc:	0f403256 	jal	9d00c958 <__out>
9d008600:	02402025 	move	a0,s2
9d008604:	8fa200b0 	lw	v0,176(sp)
9d008608:	00501021 	addu	v0,v0,s0
9d00860c:	afa200b0 	sw	v0,176(sp)
9d008610:	8fb700b0 	lw	s7,176(sp)
9d008614:	82e20000 	lb	v0,0(s7)
9d008618:	145400c1 	bne	v0,s4,9d008920 <__printf_core+0x3b8>
9d00861c:	26f70001 	addiu	s7,s7,1
9d008620:	afb700b0 	sw	s7,176(sp)
9d008624:	2405002b 	li	a1,43
9d008628:	2406002d 	li	a2,45
9d00862c:	24030030 	li	v1,48
9d008630:	24070020 	li	a3,32
9d008634:	24080023 	li	t0,35
9d008638:	8fa400b0 	lw	a0,176(sp)
9d00863c:	80820000 	lb	v0,0(a0)
9d008640:	5045001b 	beql	v0,a1,9d0086b0 <__printf_core+0x148>
9d008644:	8fa20090 	lw	v0,144(sp)
9d008648:	2849002c 	slti	t1,v0,44
9d00864c:	1120001e 	beqz	t1,9d0086c8 <__printf_core+0x160>
9d008650:	00000000 	nop
9d008654:	50470018 	beql	v0,a3,9d0086b8 <__printf_core+0x150>
9d008658:	8fa20090 	lw	v0,144(sp)
9d00865c:	50480018 	beql	v0,t0,9d0086c0 <__printf_core+0x158>
9d008660:	8fa20090 	lw	v0,144(sp)
9d008664:	2403002a 	li	v1,42
9d008668:	5043001e 	beql	v0,v1,9d0086e4 <__printf_core+0x17c>
9d00866c:	8e220000 	lw	v0,0(s1)
9d008670:	0f4031b2 	jal	9d00c6c8 <atoi>
9d008674:	00000000 	nop
9d008678:	afa20098 	sw	v0,152(sp)
9d00867c:	8fa300b0 	lw	v1,176(sp)
9d008680:	80620000 	lb	v0,0(v1)
9d008684:	2442ffd0 	addiu	v0,v0,-48
9d008688:	2c42000a 	sltiu	v0,v0,10
9d00868c:	10400021 	beqz	v0,9d008714 <__printf_core+0x1ac>
9d008690:	24630001 	addiu	v1,v1,1
9d008694:	1000fff9 	b	9d00867c <__printf_core+0x114>
9d008698:	afa300b0 	sw	v1,176(sp)
9d00869c:	34420001 	ori	v0,v0,0x1
9d0086a0:	24840001 	addiu	a0,a0,1
9d0086a4:	afa20090 	sw	v0,144(sp)
9d0086a8:	1000ffe3 	b	9d008638 <__printf_core+0xd0>
9d0086ac:	afa400b0 	sw	a0,176(sp)
9d0086b0:	1000fffb 	b	9d0086a0 <__printf_core+0x138>
9d0086b4:	34420004 	ori	v0,v0,0x4
9d0086b8:	1000fff9 	b	9d0086a0 <__printf_core+0x138>
9d0086bc:	34420008 	ori	v0,v0,0x8
9d0086c0:	1000fff7 	b	9d0086a0 <__printf_core+0x138>
9d0086c4:	34420010 	ori	v0,v0,0x10
9d0086c8:	5046fff4 	beql	v0,a2,9d00869c <__printf_core+0x134>
9d0086cc:	8fa20090 	lw	v0,144(sp)
9d0086d0:	5443ffe5 	bnel	v0,v1,9d008668 <__printf_core+0x100>
9d0086d4:	2403002a 	li	v1,42
9d0086d8:	8fa20090 	lw	v0,144(sp)
9d0086dc:	1000fff0 	b	9d0086a0 <__printf_core+0x138>
9d0086e0:	34420002 	ori	v0,v0,0x2
9d0086e4:	24840001 	addiu	a0,a0,1
9d0086e8:	afa400b0 	sw	a0,176(sp)
9d0086ec:	24430004 	addiu	v1,v0,4
9d0086f0:	8c420000 	lw	v0,0(v0)
9d0086f4:	ae230000 	sw	v1,0(s1)
9d0086f8:	04410006 	bgez	v0,9d008714 <__printf_core+0x1ac>
9d0086fc:	afa20098 	sw	v0,152(sp)
9d008700:	8fa30090 	lw	v1,144(sp)
9d008704:	00021023 	negu	v0,v0
9d008708:	afa20098 	sw	v0,152(sp)
9d00870c:	38630001 	xori	v1,v1,0x1
9d008710:	afa30090 	sw	v1,144(sp)
9d008714:	8fa20090 	lw	v0,144(sp)
9d008718:	30430001 	andi	v1,v0,0x1
9d00871c:	10600002 	beqz	v1,9d008728 <__printf_core+0x1c0>
9d008720:	7c020844 	ins	v0,zero,0x1,0x1
9d008724:	afa20090 	sw	v0,144(sp)
9d008728:	8fa200b0 	lw	v0,176(sp)
9d00872c:	2403002e 	li	v1,46
9d008730:	80440000 	lb	a0,0(v0)
9d008734:	1483000d 	bne	a0,v1,9d00876c <__printf_core+0x204>
9d008738:	24440001 	addiu	a0,v0,1
9d00873c:	afa00094 	sw	zero,148(sp)
9d008740:	afa400b0 	sw	a0,176(sp)
9d008744:	80450001 	lb	a1,1(v0)
9d008748:	2403002a 	li	v1,42
9d00874c:	14a30023 	bne	a1,v1,9d0087dc <__printf_core+0x274>
9d008750:	24420002 	addiu	v0,v0,2
9d008754:	afa200b0 	sw	v0,176(sp)
9d008758:	8e220000 	lw	v0,0(s1)
9d00875c:	24430004 	addiu	v1,v0,4
9d008760:	8c420000 	lw	v0,0(v0)
9d008764:	ae230000 	sw	v1,0(s1)
9d008768:	afa20094 	sw	v0,148(sp)
9d00876c:	0f40326d 	jal	9d00c9b4 <__fmt_state>
9d008770:	27a400b0 	addiu	a0,sp,176
9d008774:	afa200b8 	sw	v0,184(sp)
9d008778:	8fa200b0 	lw	v0,176(sp)
9d00877c:	0f403387 	jal	9d00ce1c <tolower>
9d008780:	80440000 	lb	a0,0(v0)
9d008784:	24030069 	li	v1,105
9d008788:	10430078 	beq	v0,v1,9d00896c <__printf_core+0x404>
9d00878c:	8fa500b8 	lw	a1,184(sp)
9d008790:	2843006a 	slti	v1,v0,106
9d008794:	1060002e 	beqz	v1,9d008850 <__printf_core+0x2e8>
9d008798:	24030063 	li	v1,99
9d00879c:	104300bc 	beq	v0,v1,9d008a90 <__printf_core+0x528>
9d0087a0:	28430064 	slti	v1,v0,100
9d0087a4:	10600018 	beqz	v1,9d008808 <__printf_core+0x2a0>
9d0087a8:	24030064 	li	v1,100
9d0087ac:	105400c5 	beq	v0,s4,9d008ac4 <__printf_core+0x55c>
9d0087b0:	24030061 	li	v1,97
9d0087b4:	5043004e 	beql	v0,v1,9d0088f0 <__printf_core+0x388>
9d0087b8:	02203025 	move	a2,s1
9d0087bc:	24020025 	li	v0,37
9d0087c0:	a3a200a8 	sb	v0,168(sp)
9d0087c4:	2402ffff 	li	v0,-1
9d0087c8:	afb700b0 	sw	s7,176(sp)
9d0087cc:	afa00090 	sw	zero,144(sp)
9d0087d0:	afa00098 	sw	zero,152(sp)
9d0087d4:	100000b8 	b	9d008ab8 <__printf_core+0x550>
9d0087d8:	afa20094 	sw	v0,148(sp)
9d0087dc:	0f4031b2 	jal	9d00c6c8 <atoi>
9d0087e0:	00000000 	nop
9d0087e4:	afa20094 	sw	v0,148(sp)
9d0087e8:	8fa300b0 	lw	v1,176(sp)
9d0087ec:	80620000 	lb	v0,0(v1)
9d0087f0:	2442ffd0 	addiu	v0,v0,-48
9d0087f4:	2c42000a 	sltiu	v0,v0,10
9d0087f8:	1040ffdc 	beqz	v0,9d00876c <__printf_core+0x204>
9d0087fc:	24630001 	addiu	v1,v1,1
9d008800:	1000fff9 	b	9d0087e8 <__printf_core+0x280>
9d008804:	afa300b0 	sw	v1,176(sp)
9d008808:	10430058 	beq	v0,v1,9d00896c <__printf_core+0x404>
9d00880c:	28420068 	slti	v0,v0,104
9d008810:	1040ffeb 	beqz	v0,9d0087c0 <__printf_core+0x258>
9d008814:	24020025 	li	v0,37
9d008818:	02203025 	move	a2,s1
9d00881c:	0f403298 	jal	9d00ca60 <__pop_float>
9d008820:	27a400a8 	addiu	a0,sp,168
9d008824:	10400096 	beqz	v0,9d008a80 <__printf_core+0x518>
9d008828:	8fa200b0 	lw	v0,176(sp)
9d00882c:	27a600a8 	addiu	a2,sp,168
9d008830:	27a50090 	addiu	a1,sp,144
9d008834:	24430001 	addiu	v1,v0,1
9d008838:	afa300b0 	sw	v1,176(sp)
9d00883c:	80470000 	lb	a3,0(v0)
9d008840:	0f401d54 	jal	9d007550 <__fmt_fp>
9d008844:	02402025 	move	a0,s2
9d008848:	10000035 	b	9d008920 <__printf_core+0x3b8>
9d00884c:	02028021 	addu	s0,s0,v0
9d008850:	24030070 	li	v1,112
9d008854:	10430070 	beq	v0,v1,9d008a18 <__printf_core+0x4b0>
9d008858:	28430071 	slti	v1,v0,113
9d00885c:	10600013 	beqz	v1,9d0088ac <__printf_core+0x344>
9d008860:	2403006e 	li	v1,110
9d008864:	10430082 	beq	v0,v1,9d008a70 <__printf_core+0x508>
9d008868:	2403006f 	li	v1,111
9d00886c:	1443ffd4 	bne	v0,v1,9d0087c0 <__printf_core+0x258>
9d008870:	24020025 	li	v0,37
9d008874:	02203825 	move	a3,s1
9d008878:	00003025 	move	a2,zero
9d00887c:	0f402cd8 	jal	9d00b360 <__pop_int>
9d008880:	27a400a8 	addiu	a0,sp,168
9d008884:	1040007e 	beqz	v0,9d008a80 <__printf_core+0x518>
9d008888:	8fa200b0 	lw	v0,176(sp)
9d00888c:	27a600a8 	addiu	a2,sp,168
9d008890:	27a50090 	addiu	a1,sp,144
9d008894:	24420001 	addiu	v0,v0,1
9d008898:	02402025 	move	a0,s2
9d00889c:	0f402f8e 	jal	9d00be38 <__fmt_o>
9d0088a0:	afa200b0 	sw	v0,176(sp)
9d0088a4:	1000001e 	b	9d008920 <__printf_core+0x3b8>
9d0088a8:	02028021 	addu	s0,s0,v0
9d0088ac:	24030075 	li	v1,117
9d0088b0:	1043003c 	beq	v0,v1,9d0089a4 <__printf_core+0x43c>
9d0088b4:	24030078 	li	v1,120
9d0088b8:	10430048 	beq	v0,v1,9d0089dc <__printf_core+0x474>
9d0088bc:	24030073 	li	v1,115
9d0088c0:	1443ffbe 	bne	v0,v1,9d0087bc <__printf_core+0x254>
9d0088c4:	24020080 	li	v0,128
9d0088c8:	14a2006d 	bne	a1,v0,9d008a80 <__printf_core+0x518>
9d0088cc:	8fa200b0 	lw	v0,176(sp)
9d0088d0:	00003825 	move	a3,zero
9d0088d4:	24420001 	addiu	v0,v0,1
9d0088d8:	afa200b0 	sw	v0,176(sp)
9d0088dc:	8e220000 	lw	v0,0(s1)
9d0088e0:	24430004 	addiu	v1,v0,4
9d0088e4:	ae230000 	sw	v1,0(s1)
9d0088e8:	1000005a 	b	9d008a54 <__printf_core+0x4ec>
9d0088ec:	8c460000 	lw	a2,0(v0)
9d0088f0:	0f403298 	jal	9d00ca60 <__pop_float>
9d0088f4:	27a400a8 	addiu	a0,sp,168
9d0088f8:	10400061 	beqz	v0,9d008a80 <__printf_core+0x518>
9d0088fc:	8fa200b0 	lw	v0,176(sp)
9d008900:	27a600a8 	addiu	a2,sp,168
9d008904:	27a50090 	addiu	a1,sp,144
9d008908:	24430001 	addiu	v1,v0,1
9d00890c:	afa300b0 	sw	v1,176(sp)
9d008910:	80470000 	lb	a3,0(v0)
9d008914:	0f4033c2 	jal	9d00cf08 <__fmt_a>
9d008918:	02402025 	move	a0,s2
9d00891c:	02028021 	addu	s0,s0,v0
9d008920:	02708021 	addu	s0,s3,s0
9d008924:	0213982a 	slt	s3,s0,s3
9d008928:	1260006d 	beqz	s3,9d008ae0 <__printf_core+0x578>
9d00892c:	3c02a000 	lui	v0,0xa000
9d008930:	2403004f 	li	v1,79
9d008934:	ac430204 	sw	v1,516(v0)
9d008938:	2413ffff 	li	s3,-1
9d00893c:	8fbf00e4 	lw	ra,228(sp)
9d008940:	02601025 	move	v0,s3
9d008944:	8fb700e0 	lw	s7,224(sp)
9d008948:	8fb600dc 	lw	s6,220(sp)
9d00894c:	8fb500d8 	lw	s5,216(sp)
9d008950:	8fb400d4 	lw	s4,212(sp)
9d008954:	8fb300d0 	lw	s3,208(sp)
9d008958:	8fb200cc 	lw	s2,204(sp)
9d00895c:	8fb100c8 	lw	s1,200(sp)
9d008960:	8fb000c4 	lw	s0,196(sp)
9d008964:	03e00008 	jr	ra
9d008968:	27bd00e8 	addiu	sp,sp,232
9d00896c:	02203825 	move	a3,s1
9d008970:	24060001 	li	a2,1
9d008974:	0f402cd8 	jal	9d00b360 <__pop_int>
9d008978:	27a400a8 	addiu	a0,sp,168
9d00897c:	10400040 	beqz	v0,9d008a80 <__printf_core+0x518>
9d008980:	8fa200b0 	lw	v0,176(sp)
9d008984:	27a600a8 	addiu	a2,sp,168
9d008988:	27a50090 	addiu	a1,sp,144
9d00898c:	24420001 	addiu	v0,v0,1
9d008990:	02402025 	move	a0,s2
9d008994:	0f402d93 	jal	9d00b64c <__fmt_d>
9d008998:	afa200b0 	sw	v0,176(sp)
9d00899c:	1000ffe0 	b	9d008920 <__printf_core+0x3b8>
9d0089a0:	02028021 	addu	s0,s0,v0
9d0089a4:	02203825 	move	a3,s1
9d0089a8:	00003025 	move	a2,zero
9d0089ac:	0f402cd8 	jal	9d00b360 <__pop_int>
9d0089b0:	27a400a8 	addiu	a0,sp,168
9d0089b4:	10400032 	beqz	v0,9d008a80 <__printf_core+0x518>
9d0089b8:	8fa200b0 	lw	v0,176(sp)
9d0089bc:	27a600a8 	addiu	a2,sp,168
9d0089c0:	27a50090 	addiu	a1,sp,144
9d0089c4:	24420001 	addiu	v0,v0,1
9d0089c8:	02402025 	move	a0,s2
9d0089cc:	0f403077 	jal	9d00c1dc <__fmt_u>
9d0089d0:	afa200b0 	sw	v0,176(sp)
9d0089d4:	1000ffd2 	b	9d008920 <__printf_core+0x3b8>
9d0089d8:	02028021 	addu	s0,s0,v0
9d0089dc:	02203825 	move	a3,s1
9d0089e0:	00003025 	move	a2,zero
9d0089e4:	0f402cd8 	jal	9d00b360 <__pop_int>
9d0089e8:	27a400a8 	addiu	a0,sp,168
9d0089ec:	10400024 	beqz	v0,9d008a80 <__printf_core+0x518>
9d0089f0:	8fa200b0 	lw	v0,176(sp)
9d0089f4:	24430001 	addiu	v1,v0,1
9d0089f8:	afa300b0 	sw	v1,176(sp)
9d0089fc:	80470000 	lb	a3,0(v0)
9d008a00:	27a600a8 	addiu	a2,sp,168
9d008a04:	27a50090 	addiu	a1,sp,144
9d008a08:	0f402afd 	jal	9d00abf4 <__fmt_x>
9d008a0c:	02402025 	move	a0,s2
9d008a10:	1000ffc3 	b	9d008920 <__printf_core+0x3b8>
9d008a14:	02028021 	addu	s0,s0,v0
9d008a18:	02203825 	move	a3,s1
9d008a1c:	00003025 	move	a2,zero
9d008a20:	240500f0 	li	a1,240
9d008a24:	0f402cd8 	jal	9d00b360 <__pop_int>
9d008a28:	27a400a8 	addiu	a0,sp,168
9d008a2c:	10400014 	beqz	v0,9d008a80 <__printf_core+0x518>
9d008a30:	8fa200b0 	lw	v0,176(sp)
9d008a34:	8fa300ac 	lw	v1,172(sp)
9d008a38:	24420001 	addiu	v0,v0,1
9d008a3c:	afa200b0 	sw	v0,176(sp)
9d008a40:	8fa200a8 	lw	v0,168(sp)
9d008a44:	00431025 	or	v0,v0,v1
9d008a48:	14400007 	bnez	v0,9d008a68 <__printf_core+0x500>
9d008a4c:	02a03025 	move	a2,s5
9d008a50:	00003825 	move	a3,zero
9d008a54:	27a50090 	addiu	a1,sp,144
9d008a58:	0f403125 	jal	9d00c494 <__fmt_s>
9d008a5c:	02402025 	move	a0,s2
9d008a60:	1000ffaf 	b	9d008920 <__printf_core+0x3b8>
9d008a64:	02028021 	addu	s0,s0,v0
9d008a68:	1000ffe5 	b	9d008a00 <__printf_core+0x498>
9d008a6c:	24070078 	li	a3,120
9d008a70:	02203825 	move	a3,s1
9d008a74:	02703021 	addu	a2,s3,s0
9d008a78:	0f403007 	jal	9d00c01c <__pop_ptr>
9d008a7c:	27a400a8 	addiu	a0,sp,168
9d008a80:	8fa200b0 	lw	v0,176(sp)
9d008a84:	24420001 	addiu	v0,v0,1
9d008a88:	1000ffa5 	b	9d008920 <__printf_core+0x3b8>
9d008a8c:	afa200b0 	sw	v0,176(sp)
9d008a90:	24020080 	li	v0,128
9d008a94:	14a2fffa 	bne	a1,v0,9d008a80 <__printf_core+0x518>
9d008a98:	8fa200b0 	lw	v0,176(sp)
9d008a9c:	24420001 	addiu	v0,v0,1
9d008aa0:	afa200b0 	sw	v0,176(sp)
9d008aa4:	8e220000 	lw	v0,0(s1)
9d008aa8:	24430004 	addiu	v1,v0,4
9d008aac:	8c420000 	lw	v0,0(v0)
9d008ab0:	ae230000 	sw	v1,0(s1)
9d008ab4:	a3a200a8 	sb	v0,168(sp)
9d008ab8:	24070001 	li	a3,1
9d008abc:	1000ffe5 	b	9d008a54 <__printf_core+0x4ec>
9d008ac0:	27a600a8 	addiu	a2,sp,168
9d008ac4:	24020080 	li	v0,128
9d008ac8:	14a2ffed 	bne	a1,v0,9d008a80 <__printf_core+0x518>
9d008acc:	8fa200b0 	lw	v0,176(sp)
9d008ad0:	a3b400a8 	sb	s4,168(sp)
9d008ad4:	24420001 	addiu	v0,v0,1
9d008ad8:	1000fff7 	b	9d008ab8 <__printf_core+0x550>
9d008adc:	afa200b0 	sw	v0,176(sp)
9d008ae0:	1000feb3 	b	9d0085b0 <__printf_core+0x48>
9d008ae4:	02009825 	move	s3,s0

Disassembly of section .text:

9d008ae8 <get_xXL>:

/*******************************************************************************
 Functions to combine 8-bit register pairs (each uint8_t) into int16_t's:
 ******************************************************************************/
int16_t get_xXL(uint8_t * data) { // convert x-acceleration LSB and MSB to int16_t
    return data[0]<<8 | data[1];
9d008ae8:	90820000 	lbu	v0,0(a0)
9d008aec:	00021200 	sll	v0,v0,0x8
9d008af0:	90830001 	lbu	v1,1(a0)
9d008af4:	00431025 	or	v0,v0,v1
}
9d008af8:	03e00008 	jr	ra
9d008afc:	7c021620 	seh	v0,v0

9d008b00 <get_yXL>:

int16_t get_yXL(uint8_t * data) { // convert y-acceleration LSB and MSB to int16_t
    return data[2]<<8 | data[3];
9d008b00:	90820002 	lbu	v0,2(a0)
9d008b04:	00021200 	sll	v0,v0,0x8
9d008b08:	90830003 	lbu	v1,3(a0)
9d008b0c:	00431025 	or	v0,v0,v1
}
9d008b10:	03e00008 	jr	ra
9d008b14:	7c021620 	seh	v0,v0

9d008b18 <get_zXL>:

int16_t get_zXL(uint8_t * data) { // convert z-acceleration LSB and MSB to int16_t
    return data[4]<<8 | data[5];
9d008b18:	90820004 	lbu	v0,4(a0)
9d008b1c:	00021200 	sll	v0,v0,0x8
9d008b20:	90830005 	lbu	v1,5(a0)
9d008b24:	00431025 	or	v0,v0,v1
}
9d008b28:	03e00008 	jr	ra
9d008b2c:	7c021620 	seh	v0,v0

9d008b30 <get_temp>:

int16_t get_temp(uint8_t * data) { // convert temperature LSB and MSB to int16_t
    return data[6]<<8 | data[7];
9d008b30:	90820006 	lbu	v0,6(a0)
9d008b34:	00021200 	sll	v0,v0,0x8
9d008b38:	90830007 	lbu	v1,7(a0)
9d008b3c:	00431025 	or	v0,v0,v1
}
9d008b40:	03e00008 	jr	ra
9d008b44:	7c021620 	seh	v0,v0

9d008b48 <get_xG>:

int16_t get_xG(uint8_t * data) { // convert x-gyro LSB and MSB to int16_t
    return data[8]<<8 | data[9];
9d008b48:	90820008 	lbu	v0,8(a0)
9d008b4c:	00021200 	sll	v0,v0,0x8
9d008b50:	90830009 	lbu	v1,9(a0)
9d008b54:	00431025 	or	v0,v0,v1
}
9d008b58:	03e00008 	jr	ra
9d008b5c:	7c021620 	seh	v0,v0

9d008b60 <get_yG>:

int16_t get_yG(uint8_t * data) { // convert y-gyro LSB and MSB to int16_t
    return data[10]<<8 | data[11];
9d008b60:	9082000a 	lbu	v0,10(a0)
9d008b64:	00021200 	sll	v0,v0,0x8
9d008b68:	9083000b 	lbu	v1,11(a0)
9d008b6c:	00431025 	or	v0,v0,v1
}
9d008b70:	03e00008 	jr	ra
9d008b74:	7c021620 	seh	v0,v0

9d008b78 <get_zG>:

int16_t get_zG(uint8_t * data) { // convert z-gyro LSB and MSB to int16_t
    return data[12]<<8 | data[13];
9d008b78:	9082000c 	lbu	v0,12(a0)
9d008b7c:	00021200 	sll	v0,v0,0x8
9d008b80:	9083000d 	lbu	v1,13(a0)
9d008b84:	00431025 	or	v0,v0,v1
}
9d008b88:	03e00008 	jr	ra
9d008b8c:	7c021620 	seh	v0,v0

9d008b90 <conv_xXL>:

/*
 * Functions to convert int16_t representation of 16-bit IMU data (acceleration
 * in x, y, and z; temperature; gyro rates) to float representation
 */
float conv_xXL(uint8_t * data) { // convert x-acceleration to float (g's)
9d008b90:	27bdffe8 	addiu	sp,sp,-24
9d008b94:	afbf0014 	sw	ra,20(sp)
    return data[0]<<8 | data[1];
9d008b98:	90820000 	lbu	v0,0(a0)
9d008b9c:	00021200 	sll	v0,v0,0x8
9d008ba0:	90840001 	lbu	a0,1(a0)
9d008ba4:	00442025 	or	a0,v0,a0
    return (get_xXL(data))*0.000061;
9d008ba8:	0f4031d1 	jal	9d00c744 <__floatsidf>
9d008bac:	7c042620 	seh	a0,a0
9d008bb0:	3c049d00 	lui	a0,0x9d00
9d008bb4:	8c8674b8 	lw	a2,29880(a0)
9d008bb8:	8c8774bc 	lw	a3,29884(a0)
9d008bbc:	00402025 	move	a0,v0
9d008bc0:	0f402908 	jal	9d00a420 <__muldf3>
9d008bc4:	00602825 	move	a1,v1
9d008bc8:	00402025 	move	a0,v0
9d008bcc:	0f402f4e 	jal	9d00bd38 <__truncdfsf2>
9d008bd0:	00602825 	move	a1,v1
}
9d008bd4:	8fbf0014 	lw	ra,20(sp)
9d008bd8:	03e00008 	jr	ra
9d008bdc:	27bd0018 	addiu	sp,sp,24

9d008be0 <conv_yXL>:

float conv_yXL(uint8_t * data) { // convert y-acceleration to float (g's)
9d008be0:	27bdffe8 	addiu	sp,sp,-24
9d008be4:	afbf0014 	sw	ra,20(sp)
    return data[2]<<8 | data[3];
9d008be8:	90820002 	lbu	v0,2(a0)
9d008bec:	00021200 	sll	v0,v0,0x8
9d008bf0:	90840003 	lbu	a0,3(a0)
9d008bf4:	00442025 	or	a0,v0,a0
    return (get_yXL(data))*0.000061;
9d008bf8:	0f4031d1 	jal	9d00c744 <__floatsidf>
9d008bfc:	7c042620 	seh	a0,a0
9d008c00:	3c049d00 	lui	a0,0x9d00
9d008c04:	8c8674b8 	lw	a2,29880(a0)
9d008c08:	8c8774bc 	lw	a3,29884(a0)
9d008c0c:	00402025 	move	a0,v0
9d008c10:	0f402908 	jal	9d00a420 <__muldf3>
9d008c14:	00602825 	move	a1,v1
9d008c18:	00402025 	move	a0,v0
9d008c1c:	0f402f4e 	jal	9d00bd38 <__truncdfsf2>
9d008c20:	00602825 	move	a1,v1
}
9d008c24:	8fbf0014 	lw	ra,20(sp)
9d008c28:	03e00008 	jr	ra
9d008c2c:	27bd0018 	addiu	sp,sp,24

9d008c30 <conv_zXL>:

float conv_zXL(uint8_t * data) { // convert z-acceleration to float (g's)
9d008c30:	27bdffe8 	addiu	sp,sp,-24
9d008c34:	afbf0014 	sw	ra,20(sp)
    return data[4]<<8 | data[5];
9d008c38:	90820004 	lbu	v0,4(a0)
9d008c3c:	00021200 	sll	v0,v0,0x8
9d008c40:	90840005 	lbu	a0,5(a0)
9d008c44:	00442025 	or	a0,v0,a0
    return (get_zXL(data))*0.000061;
9d008c48:	0f4031d1 	jal	9d00c744 <__floatsidf>
9d008c4c:	7c042620 	seh	a0,a0
9d008c50:	3c049d00 	lui	a0,0x9d00
9d008c54:	8c8674b8 	lw	a2,29880(a0)
9d008c58:	8c8774bc 	lw	a3,29884(a0)
9d008c5c:	00402025 	move	a0,v0
9d008c60:	0f402908 	jal	9d00a420 <__muldf3>
9d008c64:	00602825 	move	a1,v1
9d008c68:	00402025 	move	a0,v0
9d008c6c:	0f402f4e 	jal	9d00bd38 <__truncdfsf2>
9d008c70:	00602825 	move	a1,v1
}
9d008c74:	8fbf0014 	lw	ra,20(sp)
9d008c78:	03e00008 	jr	ra
9d008c7c:	27bd0018 	addiu	sp,sp,24

9d008c80 <conv_xG>:

float conv_xG(uint8_t * data) { // convert x-gyro rate to dps
9d008c80:	27bdffe8 	addiu	sp,sp,-24
9d008c84:	afbf0014 	sw	ra,20(sp)
    return data[8]<<8 | data[9];
9d008c88:	90820008 	lbu	v0,8(a0)
9d008c8c:	00021200 	sll	v0,v0,0x8
9d008c90:	90840009 	lbu	a0,9(a0)
9d008c94:	00442025 	or	a0,v0,a0
    return (get_xG(data))*0.007630;
9d008c98:	0f4031d1 	jal	9d00c744 <__floatsidf>
9d008c9c:	7c042620 	seh	a0,a0
9d008ca0:	3c049d00 	lui	a0,0x9d00
9d008ca4:	8c8674c0 	lw	a2,29888(a0)
9d008ca8:	8c8774c4 	lw	a3,29892(a0)
9d008cac:	00402025 	move	a0,v0
9d008cb0:	0f402908 	jal	9d00a420 <__muldf3>
9d008cb4:	00602825 	move	a1,v1
9d008cb8:	00402025 	move	a0,v0
9d008cbc:	0f402f4e 	jal	9d00bd38 <__truncdfsf2>
9d008cc0:	00602825 	move	a1,v1
}
9d008cc4:	8fbf0014 	lw	ra,20(sp)
9d008cc8:	03e00008 	jr	ra
9d008ccc:	27bd0018 	addiu	sp,sp,24

9d008cd0 <conv_yG>:

float conv_yG(uint8_t * data) { // convert y-gyro rate to dps
9d008cd0:	27bdffe8 	addiu	sp,sp,-24
9d008cd4:	afbf0014 	sw	ra,20(sp)
    return data[10]<<8 | data[11];
9d008cd8:	9082000a 	lbu	v0,10(a0)
9d008cdc:	00021200 	sll	v0,v0,0x8
9d008ce0:	9084000b 	lbu	a0,11(a0)
9d008ce4:	00442025 	or	a0,v0,a0
    return (get_yG(data))*0.007630;
9d008ce8:	0f4031d1 	jal	9d00c744 <__floatsidf>
9d008cec:	7c042620 	seh	a0,a0
9d008cf0:	3c049d00 	lui	a0,0x9d00
9d008cf4:	8c8674c0 	lw	a2,29888(a0)
9d008cf8:	8c8774c4 	lw	a3,29892(a0)
9d008cfc:	00402025 	move	a0,v0
9d008d00:	0f402908 	jal	9d00a420 <__muldf3>
9d008d04:	00602825 	move	a1,v1
9d008d08:	00402025 	move	a0,v0
9d008d0c:	0f402f4e 	jal	9d00bd38 <__truncdfsf2>
9d008d10:	00602825 	move	a1,v1
}
9d008d14:	8fbf0014 	lw	ra,20(sp)
9d008d18:	03e00008 	jr	ra
9d008d1c:	27bd0018 	addiu	sp,sp,24

9d008d20 <conv_zG>:

float conv_zG(uint8_t * data) { // convert z-gyro rate to dps
9d008d20:	27bdffe8 	addiu	sp,sp,-24
9d008d24:	afbf0014 	sw	ra,20(sp)
    return data[12]<<8 | data[13];
9d008d28:	9082000c 	lbu	v0,12(a0)
9d008d2c:	00021200 	sll	v0,v0,0x8
9d008d30:	9084000d 	lbu	a0,13(a0)
9d008d34:	00442025 	or	a0,v0,a0
    return (get_zG(data))*0.007630;
9d008d38:	0f4031d1 	jal	9d00c744 <__floatsidf>
9d008d3c:	7c042620 	seh	a0,a0
9d008d40:	3c049d00 	lui	a0,0x9d00
9d008d44:	8c8674c0 	lw	a2,29888(a0)
9d008d48:	8c8774c4 	lw	a3,29892(a0)
9d008d4c:	00402025 	move	a0,v0
9d008d50:	0f402908 	jal	9d00a420 <__muldf3>
9d008d54:	00602825 	move	a1,v1
9d008d58:	00402025 	move	a0,v0
9d008d5c:	0f402f4e 	jal	9d00bd38 <__truncdfsf2>
9d008d60:	00602825 	move	a1,v1
}
9d008d64:	8fbf0014 	lw	ra,20(sp)
9d008d68:	03e00008 	jr	ra
9d008d6c:	27bd0018 	addiu	sp,sp,24

9d008d70 <conv_temp>:

float conv_temp(uint8_t * data) { // convert int16_t temperature signed short to float (Celsius)
9d008d70:	27bdffe8 	addiu	sp,sp,-24
9d008d74:	afbf0014 	sw	ra,20(sp)
    return data[6]<<8 | data[7];
9d008d78:	90820006 	lbu	v0,6(a0)
9d008d7c:	00021200 	sll	v0,v0,0x8
9d008d80:	90840007 	lbu	a0,7(a0)
9d008d84:	00442025 	or	a0,v0,a0
    return (get_temp(data)/340.00) + 36.53;
9d008d88:	0f4031d1 	jal	9d00c744 <__floatsidf>
9d008d8c:	7c042620 	seh	a0,a0
9d008d90:	3c049d00 	lui	a0,0x9d00
9d008d94:	8c8674c8 	lw	a2,29896(a0)
9d008d98:	8c8774cc 	lw	a3,29900(a0)
9d008d9c:	00402025 	move	a0,v0
9d008da0:	0f402406 	jal	9d009018 <__divdf3>
9d008da4:	00602825 	move	a1,v1
9d008da8:	3c049d00 	lui	a0,0x9d00
9d008dac:	8c8674d0 	lw	a2,29904(a0)
9d008db0:	8c8774d4 	lw	a3,29908(a0)
9d008db4:	00402025 	move	a0,v0
9d008db8:	0f402536 	jal	9d0094d8 <__adddf3>
9d008dbc:	00602825 	move	a1,v1
9d008dc0:	00402025 	move	a0,v0
9d008dc4:	0f402f4e 	jal	9d00bd38 <__truncdfsf2>
9d008dc8:	00602825 	move	a1,v1
}
9d008dcc:	8fbf0014 	lw	ra,20(sp)
9d008dd0:	03e00008 	jr	ra
9d008dd4:	27bd0018 	addiu	sp,sp,24

9d008dd8 <read_byte_I2C1>:

// i2c functions
// read one byte from a register (reg_addr) of a device (dev_addr):
uint8_t read_byte_I2C1(uint8_t dev_addr,
                       uint8_t reg_addr) {
9d008dd8:	27bdffe0 	addiu	sp,sp,-32
9d008ddc:	afbf001c 	sw	ra,28(sp)
9d008de0:	afb10018 	sw	s1,24(sp)
9d008de4:	afb00014 	sw	s0,20(sp)
9d008de8:	00808025 	move	s0,a0
    uint8_t answer;
    i2c_master_start();
9d008dec:	0f402d44 	jal	9d00b510 <i2c_master_start>
9d008df0:	00a08825 	move	s1,a1
    i2c_master_send(dev_addr << 1); // hardware address and write bit
9d008df4:	00108040 	sll	s0,s0,0x1
9d008df8:	0f402d5c 	jal	9d00b570 <i2c_master_send>
9d008dfc:	320400fe 	andi	a0,s0,0xfe
    i2c_master_send(reg_addr);  // WHO_AM_I register: 0x0F
9d008e00:	0f402d5c 	jal	9d00b570 <i2c_master_send>
9d008e04:	02202025 	move	a0,s1
    i2c_master_restart(); // this line is REALLY important!
9d008e08:	0f402d50 	jal	9d00b540 <i2c_master_restart>
9d008e0c:	00000000 	nop
    i2c_master_send((dev_addr << 1) | 1); // hardware address and read bit
9d008e10:	36040001 	ori	a0,s0,0x1
9d008e14:	0f402d5c 	jal	9d00b570 <i2c_master_send>
9d008e18:	308400ff 	andi	a0,a0,0xff
    answer = i2c_master_recv(); // receive a byte from the slave. Should be 0x69 = 105d
9d008e1c:	0f402d6b 	jal	9d00b5ac <i2c_master_recv>
9d008e20:	00000000 	nop
9d008e24:	00408025 	move	s0,v0
    i2c_master_ack(1); // send NACK to slave
9d008e28:	0f402d78 	jal	9d00b5e0 <i2c_master_ack>
9d008e2c:	24040001 	li	a0,1
    i2c_master_stop();
9d008e30:	0f402d87 	jal	9d00b61c <i2c_master_stop>
9d008e34:	00000000 	nop
    return answer;
}
9d008e38:	02001025 	move	v0,s0
9d008e3c:	8fbf001c 	lw	ra,28(sp)
9d008e40:	8fb10018 	lw	s1,24(sp)
9d008e44:	8fb00014 	lw	s0,20(sp)
9d008e48:	03e00008 	jr	ra
9d008e4c:	27bd0020 	addiu	sp,sp,32

9d008e50 <whoami>:
uint8_t whoami(void) {
9d008e50:	27bdffe8 	addiu	sp,sp,-24
9d008e54:	afbf0014 	sw	ra,20(sp)
    return read_byte_I2C1(IMU_ADDR, WHO_AM_I);
9d008e58:	24050075 	li	a1,117
9d008e5c:	0f402376 	jal	9d008dd8 <read_byte_I2C1>
9d008e60:	24040068 	li	a0,104
}
9d008e64:	8fbf0014 	lw	ra,20(sp)
9d008e68:	03e00008 	jr	ra
9d008e6c:	27bd0018 	addiu	sp,sp,24

9d008e70 <burst_read_I2C1>:
// burst read from device (dev_addr), beginning at specified register by
// start_reg_addr:
void burst_read_I2C1(uint8_t dev_addr,
                     uint8_t start_reg_addr,
                     uint8_t * data,
                     uint8_t data_len) {
9d008e70:	27bdffd0 	addiu	sp,sp,-48
9d008e74:	afbf002c 	sw	ra,44(sp)
9d008e78:	afb50028 	sw	s5,40(sp)
9d008e7c:	afb40024 	sw	s4,36(sp)
9d008e80:	afb30020 	sw	s3,32(sp)
9d008e84:	afb2001c 	sw	s2,28(sp)
9d008e88:	afb10018 	sw	s1,24(sp)
9d008e8c:	afb00014 	sw	s0,20(sp)
9d008e90:	00808025 	move	s0,a0
9d008e94:	00a09025 	move	s2,a1
9d008e98:	00c09825 	move	s3,a2
    char i;
    i2c_master_start();
9d008e9c:	0f402d44 	jal	9d00b510 <i2c_master_start>
9d008ea0:	00e08825 	move	s1,a3
    i2c_master_send((dev_addr << 1)); // hardware address and write bit
9d008ea4:	00108040 	sll	s0,s0,0x1
9d008ea8:	0f402d5c 	jal	9d00b570 <i2c_master_send>
9d008eac:	320400fe 	andi	a0,s0,0xfe
    i2c_master_send(start_reg_addr);  // starting register. "register" has some other meaning in C, so I called it "registerrr" instead.
9d008eb0:	0f402d5c 	jal	9d00b570 <i2c_master_send>
9d008eb4:	02402025 	move	a0,s2
    i2c_master_restart(); // this line is REALLY important!
9d008eb8:	0f402d50 	jal	9d00b540 <i2c_master_restart>
9d008ebc:	00000000 	nop
    i2c_master_send((dev_addr << 1) | 1); // hardware address and read bit
9d008ec0:	36040001 	ori	a0,s0,0x1
9d008ec4:	0f402d5c 	jal	9d00b570 <i2c_master_send>
9d008ec8:	308400ff 	andi	a0,a0,0xff
    for (i = 0; i < data_len; i++) {
9d008ecc:	1a20000e 	blez	s1,9d008f08 <burst_read_I2C1+0x98>
9d008ed0:	00008025 	move	s0,zero
9d008ed4:	00009025 	move	s2,zero
        data[i] = i2c_master_recv(); // receive a byte from the slave. Should be 0x69 = 105d
        if (i==(data_len-1)) {
9d008ed8:	2634ffff 	addiu	s4,s1,-1
        data[i] = i2c_master_recv(); // receive a byte from the slave. Should be 0x69 = 105d
9d008edc:	0f402d6b 	jal	9d00b5ac <i2c_master_recv>
9d008ee0:	0270a821 	addu	s5,s3,s0
        if (i==(data_len-1)) {
9d008ee4:	16920013 	bne	s4,s2,9d008f34 <burst_read_I2C1+0xc4>
9d008ee8:	a2a20000 	sb	v0,0(s5)
            i2c_master_ack(1); // send NACK to slave to stop reading
9d008eec:	0f402d78 	jal	9d00b5e0 <i2c_master_ack>
9d008ef0:	24040001 	li	a0,1
9d008ef4:	26100001 	addiu	s0,s0,1
9d008ef8:	7c108420 	seb	s0,s0
    for (i = 0; i < data_len; i++) {
9d008efc:	0211102a 	slt	v0,s0,s1
9d008f00:	1440fff6 	bnez	v0,9d008edc <burst_read_I2C1+0x6c>
9d008f04:	02009025 	move	s2,s0
        }
        else {
            i2c_master_ack(0); // send ACK to slave to continue reading
        }
    }
    i2c_master_stop();
9d008f08:	0f402d87 	jal	9d00b61c <i2c_master_stop>
9d008f0c:	00000000 	nop
}
9d008f10:	8fbf002c 	lw	ra,44(sp)
9d008f14:	8fb50028 	lw	s5,40(sp)
9d008f18:	8fb40024 	lw	s4,36(sp)
9d008f1c:	8fb30020 	lw	s3,32(sp)
9d008f20:	8fb2001c 	lw	s2,28(sp)
9d008f24:	8fb10018 	lw	s1,24(sp)
9d008f28:	8fb00014 	lw	s0,20(sp)
9d008f2c:	03e00008 	jr	ra
9d008f30:	27bd0030 	addiu	sp,sp,48
            i2c_master_ack(0); // send ACK to slave to continue reading
9d008f34:	0f402d78 	jal	9d00b5e0 <i2c_master_ack>
9d008f38:	00002025 	move	a0,zero
9d008f3c:	1000ffee 	b	9d008ef8 <burst_read_I2C1+0x88>
9d008f40:	26100001 	addiu	s0,s0,1

9d008f44 <burst_read_mpu6050>:
void burst_read_mpu6050(uint8_t * data) {
9d008f44:	27bdffe8 	addiu	sp,sp,-24
9d008f48:	afbf0014 	sw	ra,20(sp)
    burst_read_I2C1(IMU_ADDR,ACCEL_XOUT_H,data,IMU_ARRAY_LEN);
9d008f4c:	2407000e 	li	a3,14
9d008f50:	00803025 	move	a2,a0
9d008f54:	2405003b 	li	a1,59
9d008f58:	0f40239c 	jal	9d008e70 <burst_read_I2C1>
9d008f5c:	24040068 	li	a0,104
}
9d008f60:	8fbf0014 	lw	ra,20(sp)
9d008f64:	03e00008 	jr	ra
9d008f68:	27bd0018 	addiu	sp,sp,24

9d008f6c <write_byte_I2C1>:

// write one byte (data) from a register (reg_addr) of a device (dev_addr):
void write_byte_I2C1(uint8_t dev_addr,
                     uint8_t reg_addr,
                     uint8_t data) {
9d008f6c:	27bdffe0 	addiu	sp,sp,-32
9d008f70:	afbf001c 	sw	ra,28(sp)
9d008f74:	afb20018 	sw	s2,24(sp)
9d008f78:	afb10014 	sw	s1,20(sp)
9d008f7c:	afb00010 	sw	s0,16(sp)
9d008f80:	00808025 	move	s0,a0
9d008f84:	00a09025 	move	s2,a1
    i2c_master_start();             // START bit
9d008f88:	0f402d44 	jal	9d00b510 <i2c_master_start>
9d008f8c:	00c08825 	move	s1,a2
    i2c_master_send(dev_addr << 1); // hardware address; RW (lsb) = 0, indicates write
9d008f90:	00102040 	sll	a0,s0,0x1
9d008f94:	0f402d5c 	jal	9d00b570 <i2c_master_send>
9d008f98:	308400fe 	andi	a0,a0,0xfe
    i2c_master_send(reg_addr);      // specify register to write to
9d008f9c:	0f402d5c 	jal	9d00b570 <i2c_master_send>
9d008fa0:	02402025 	move	a0,s2
    i2c_master_send(data);          // specify data to write to reg_addr
9d008fa4:	0f402d5c 	jal	9d00b570 <i2c_master_send>
9d008fa8:	02202025 	move	a0,s1
    i2c_master_stop();              // STOP bit
9d008fac:	0f402d87 	jal	9d00b61c <i2c_master_stop>
9d008fb0:	00000000 	nop
}
9d008fb4:	8fbf001c 	lw	ra,28(sp)
9d008fb8:	8fb20018 	lw	s2,24(sp)
9d008fbc:	8fb10014 	lw	s1,20(sp)
9d008fc0:	8fb00010 	lw	s0,16(sp)
9d008fc4:	03e00008 	jr	ra
9d008fc8:	27bd0020 	addiu	sp,sp,32

9d008fcc <init_mpu6050>:
void init_mpu6050(void) {
9d008fcc:	27bdffe8 	addiu	sp,sp,-24
9d008fd0:	afbf0014 	sw	ra,20(sp)
    i2c_master_setup(); // initialize I2C1 (used for comm w/ IMU)
9d008fd4:	0f402d3a 	jal	9d00b4e8 <i2c_master_setup>
9d008fd8:	00000000 	nop
    write_byte_I2C1(IMU_ADDR,PWR_MGMT_1,0x00);
9d008fdc:	00003025 	move	a2,zero
9d008fe0:	2405006b 	li	a1,107
9d008fe4:	0f4023db 	jal	9d008f6c <write_byte_I2C1>
9d008fe8:	24040068 	li	a0,104
    write_byte_I2C1(IMU_ADDR,ACCEL_CONFIG,0x00); // 0x0: +/- 2g, no self-tests
9d008fec:	00003025 	move	a2,zero
9d008ff0:	2405001c 	li	a1,28
9d008ff4:	0f4023db 	jal	9d008f6c <write_byte_I2C1>
9d008ff8:	24040068 	li	a0,104
    write_byte_I2C1(IMU_ADDR,GYRO_CONFIG,0x0C); // 0x0C: +/- 2000 dps, no self-tests
9d008ffc:	2406000c 	li	a2,12
9d009000:	2405001b 	li	a1,27
9d009004:	0f4023db 	jal	9d008f6c <write_byte_I2C1>
9d009008:	24040068 	li	a0,104
}
9d00900c:	8fbf0014 	lw	ra,20(sp)
9d009010:	03e00008 	jr	ra
9d009014:	27bd0018 	addiu	sp,sp,24

Disassembly of section .text.dp32mul:

9d009018 <__divdf3>:
9d009018:	00055040 000a5542 00054ac0 00047d42     @P..BU...J..B}..
9d009028:	012f4825 000442c0 3c0e8000 012e4825     %H/..B.....<%H..
9d009038:	00076840 000d6d42 000762c0 00067d42     @h..Bm...b..B}..
9d009048:	018f6025 00065ac0 018e6025 00a72826     %`...Z..%`..&(..
9d009058:	00ae2824 254fffff 2de107fe 102000cb     $(....O%...-.. .
9d009068:	00000000                                ....

9d00906c <Dlab1>:
9d00906c:	25afffff 	addiu	t7,t5,-1
9d009070:	2de107fe 	sltiu	at,t7,2046
9d009074:	102000f4 	beqz	at,9d009448 <DspecB>
9d009078:	00000000 	nop

9d00907c <Dlab2>:
9d00907c:	014d5023 	subu	t2,t2,t5
9d009080:	254a03ff 	addiu	t2,t2,1023
9d009084:	00084042 	srl	t0,t0,0x1
9d009088:	00097fc0 	sll	t7,t1,0x1f
9d00908c:	010f4025 	or	t0,t0,t7
9d009090:	00094842 	srl	t1,t1,0x1
9d009094:	000c3c02 	srl	a3,t4,0x10
9d009098:	00e001f4 	teq	a3,zero,0x7
9d00909c:	0127001b 	divu	zero,t1,a3
9d0090a0:	00007012 	mflo	t6
9d0090a4:	00004810 	mfhi	t1
9d0090a8:	3186ffff 	andi	a2,t4,0xffff
9d0090ac:	00ce0019 	multu	a2,t6
9d0090b0:	00002012 	mflo	a0
9d0090b4:	00094c00 	sll	t1,t1,0x10
9d0090b8:	00087c02 	srl	t7,t0,0x10
9d0090bc:	012f4825 	or	t1,t1,t7
9d0090c0:	0124782b 	sltu	t7,t1,a0
9d0090c4:	11e00006 	beqz	t7,9d0090e0 <i20>
9d0090c8:	01244823 	subu	t1,t1,a0

9d0090cc <b21>:
9d0090cc:	25ceffff 	addiu	t6,t6,-1
9d0090d0:	012c4821 	addu	t1,t1,t4
9d0090d4:	012c082b 	sltu	at,t1,t4
9d0090d8:	1020fffc 	beqz	at,9d0090cc <b21>
9d0090dc:	00000000 	nop

9d0090e0 <i20>:
9d0090e0:	00e001f4 	teq	a3,zero,0x7
9d0090e4:	0127001b 	divu	zero,t1,a3
9d0090e8:	00003812 	mflo	a3
9d0090ec:	00004810 	mfhi	t1
9d0090f0:	00c70019 	multu	a2,a3
9d0090f4:	00002012 	mflo	a0
9d0090f8:	00094c00 	sll	t1,t1,0x10
9d0090fc:	310fffff 	andi	t7,t0,0xffff
9d009100:	012f4825 	or	t1,t1,t7
9d009104:	0124782b 	sltu	t7,t1,a0
9d009108:	11e00006 	beqz	t7,9d009124 <i22>
9d00910c:	01244823 	subu	t1,t1,a0

9d009110 <b23>:
9d009110:	24e7ffff 	addiu	a3,a3,-1
9d009114:	012c4821 	addu	t1,t1,t4
9d009118:	012c082b 	sltu	at,t1,t4
9d00911c:	1020fffc 	beqz	at,9d009110 <b23>
9d009120:	00000000 	nop

9d009124 <i22>:
9d009124:	000e7400 	sll	t6,t6,0x10
9d009128:	01c77021 	addu	t6,t6,a3
9d00912c:	01cb0019 	multu	t6,t3
9d009130:	00003812 	mflo	a3
9d009134:	00002010 	mfhi	a0
9d009138:	24080000 	li	t0,0
9d00913c:	0107782b 	sltu	t7,t0,a3
9d009140:	01074023 	subu	t0,t0,a3
9d009144:	012f102b 	sltu	v0,t1,t7
9d009148:	012f4823 	subu	t1,t1,t7
9d00914c:	0124782b 	sltu	t7,t1,a0
9d009150:	01e27825 	or	t7,t7,v0
9d009154:	11e0000b 	beqz	t7,9d009184 <i24>
9d009158:	01244823 	subu	t1,t1,a0

9d00915c <Dlab3>:
9d00915c:	25ceffff 	addiu	t6,t6,-1
9d009160:	010b4021 	addu	t0,t0,t3
9d009164:	010b782b 	sltu	t7,t0,t3
9d009168:	012c4821 	addu	t1,t1,t4
9d00916c:	012f4821 	addu	t1,t1,t7
9d009170:	112c0002 	beq	t1,t4,9d00917c <L31>
9d009174:	00000000 	nop
9d009178:	012c782b 	sltu	t7,t1,t4

9d00917c <L31>:
9d00917c:	11e0fff7 	beqz	t7,9d00915c <Dlab3>
9d009180:	00000000 	nop

9d009184 <i24>:
9d009184:	152c0006 	bne	t1,t4,9d0091a0 <i25>
9d009188:	00000000 	nop
9d00918c:	000b2025 	or	a0,zero,t3
9d009190:	00084825 	or	t1,zero,t0
9d009194:	240d0000 	li	t5,0
9d009198:	1000002a 	b	9d009244 <e25>
9d00919c:	000d3825 	or	a3,zero,t5

9d0091a0 <i25>:
9d0091a0:	000c3c02 	srl	a3,t4,0x10
9d0091a4:	00e001f4 	teq	a3,zero,0x7
9d0091a8:	0127001b 	divu	zero,t1,a3
9d0091ac:	00006812 	mflo	t5
9d0091b0:	00004810 	mfhi	t1
9d0091b4:	3186ffff 	andi	a2,t4,0xffff
9d0091b8:	00cd0019 	multu	a2,t5
9d0091bc:	00002012 	mflo	a0
9d0091c0:	00094c00 	sll	t1,t1,0x10
9d0091c4:	00087c02 	srl	t7,t0,0x10
9d0091c8:	012f4825 	or	t1,t1,t7
9d0091cc:	0124782b 	sltu	t7,t1,a0
9d0091d0:	11e00006 	beqz	t7,9d0091ec <i26>
9d0091d4:	01244823 	subu	t1,t1,a0

9d0091d8 <b27>:
9d0091d8:	25adffff 	addiu	t5,t5,-1
9d0091dc:	012c4821 	addu	t1,t1,t4
9d0091e0:	012c082b 	sltu	at,t1,t4
9d0091e4:	1020fffc 	beqz	at,9d0091d8 <b27>
9d0091e8:	00000000 	nop

9d0091ec <i26>:
9d0091ec:	00e001f4 	teq	a3,zero,0x7
9d0091f0:	0127001b 	divu	zero,t1,a3
9d0091f4:	00003812 	mflo	a3
9d0091f8:	00004810 	mfhi	t1
9d0091fc:	00c70019 	multu	a2,a3
9d009200:	00002012 	mflo	a0
9d009204:	00094c00 	sll	t1,t1,0x10
9d009208:	310fffff 	andi	t7,t0,0xffff
9d00920c:	012f4825 	or	t1,t1,t7
9d009210:	0124782b 	sltu	t7,t1,a0
9d009214:	11e00006 	beqz	t7,9d009230 <i28>
9d009218:	01244823 	subu	t1,t1,a0

9d00921c <b29>:
9d00921c:	24e7ffff 	addiu	a3,a3,-1
9d009220:	012c4821 	addu	t1,t1,t4
9d009224:	012c082b 	sltu	at,t1,t4
9d009228:	1020fffc 	beqz	at,9d00921c <b29>
9d00922c:	00000000 	nop

9d009230 <i28>:
9d009230:	000d6c00 	sll	t5,t5,0x10
9d009234:	01a76821 	addu	t5,t5,a3
9d009238:	01ab0019 	multu	t5,t3
9d00923c:	00003812 	mflo	a3
9d009240:	00002010 	mfhi	a0

9d009244 <e25>:
9d009244:	24080000 	li	t0,0
9d009248:	0107782b 	sltu	t7,t0,a3
9d00924c:	01074023 	subu	t0,t0,a3
9d009250:	012f102b 	sltu	v0,t1,t7
9d009254:	012f4823 	subu	t1,t1,t7
9d009258:	0124782b 	sltu	t7,t1,a0
9d00925c:	01e27825 	or	t7,t7,v0
9d009260:	11e0000b 	beqz	t7,9d009290 <i30>
9d009264:	01244823 	subu	t1,t1,a0

9d009268 <Dlab4>:
9d009268:	25adffff 	addiu	t5,t5,-1
9d00926c:	010b4021 	addu	t0,t0,t3
9d009270:	010b782b 	sltu	t7,t0,t3
9d009274:	012c4821 	addu	t1,t1,t4
9d009278:	012f4821 	addu	t1,t1,t7
9d00927c:	112c0002 	beq	t1,t4,9d009288 <L32>
9d009280:	00000000 	nop
9d009284:	012c782b 	sltu	t7,t1,t4

9d009288 <L32>:
9d009288:	11e0fff7 	beqz	t7,9d009268 <Dlab4>
9d00928c:	00000000 	nop

9d009290 <i30>:
9d009290:	05c00006 	bltz	t6,9d0092ac <i31>
9d009294:	00000000 	nop
9d009298:	01a0782a 	slt	t7,t5,zero
9d00929c:	01ad6821 	addu	t5,t5,t5
9d0092a0:	01ce7021 	addu	t6,t6,t6
9d0092a4:	01cf7021 	addu	t6,t6,t7
9d0092a8:	254affff 	addiu	t2,t2,-1

9d0092ac <i31>:
9d0092ac:	01287825 	or	t7,t1,t0
9d0092b0:	11e00002 	beqz	t7,9d0092bc <i32>
9d0092b4:	00000000 	nop
9d0092b8:	35ad0001 	ori	t5,t5,0x1

9d0092bc <i32>:
9d0092bc:	000e4825 	or	t1,zero,t6
9d0092c0:	000d4025 	or	t0,zero,t5
9d0092c4:	254fffff 	addiu	t7,t2,-1
9d0092c8:	2de107fe 	sltiu	at,t7,2046
9d0092cc:	10200015 	beqz	at,9d009324 <Doveund>
9d0092d0:	00000000 	nop
9d0092d4:	25080400 	addiu	t0,t0,1024
9d0092d8:	2d0f0400 	sltiu	t7,t0,1024
9d0092dc:	012f4821 	addu	t1,t1,t7
9d0092e0:	012f782b 	sltu	t7,t1,t7
9d0092e4:	014f5021 	addu	t2,t2,t7

9d0092e8 <Dlab8>:
9d0092e8:	00087ac2 	srl	t7,t0,0xb
9d0092ec:	31ef0001 	andi	t7,t7,0x1
9d0092f0:	010f4023 	subu	t0,t0,t7
9d0092f4:	000822c2 	srl	a0,t0,0xb
9d0092f8:	00097d40 	sll	t7,t1,0x15
9d0092fc:	008f2025 	or	a0,a0,t7
9d009300:	00097840 	sll	t7,t1,0x1
9d009304:	000f7b02 	srl	t7,t7,0xc
9d009308:	00af2825 	or	a1,a1,t7
9d00930c:	000a7d00 	sll	t7,t2,0x14
9d009310:	00af2825 	or	a1,a1,t7

9d009314 <Dret>:
9d009314:	00041025 	or	v0,zero,a0
9d009318:	00051825 	or	v1,zero,a1

9d00931c <D999>:
9d00931c:	03e00008 	jr	ra
9d009320:	00000000 	nop

9d009324 <Doveund>:
9d009324:	1d400044 	bgtz	t2,9d009438 <Dinf>
9d009328:	00000000 	nop
9d00932c:	240e0001 	li	t6,1
9d009330:	01ca7023 	subu	t6,t6,t2

9d009334 <L33>:
9d009334:	2dc10020 	sltiu	at,t6,32
9d009338:	14200007 	bnez	at,9d009358 <L34>
9d00933c:	00000000 	nop
9d009340:	21ceffe0 	addi	t6,t6,-32
9d009344:	0008202b 	sltu	a0,zero,t0
9d009348:	1009000d 	beq	zero,t1,9d009380 <L35>
9d00934c:	01244025 	or	t0,t1,a0
9d009350:	1000fff8 	b	9d009334 <L33>
9d009354:	34090000 	li	t1,0x0

9d009358 <L34>:
9d009358:	11c00009 	beqz	t6,9d009380 <L35>
9d00935c:	00000000 	nop
9d009360:	000e3022 	neg	a2,t6
9d009364:	00c82004 	sllv	a0,t0,a2
9d009368:	00c93004 	sllv	a2,t1,a2
9d00936c:	01c84006 	srlv	t0,t0,t6
9d009370:	01c94806 	srlv	t1,t1,t6
9d009374:	10800002 	beqz	a0,9d009380 <L35>
9d009378:	00c84025 	or	t0,a2,t0
9d00937c:	35080002 	ori	t0,t0,0x2

9d009380 <L35>:
9d009380:	25080400 	addiu	t0,t0,1024
9d009384:	2d0f0400 	sltiu	t7,t0,1024
9d009388:	012f4821 	addu	t1,t1,t7
9d00938c:	1000ffd6 	b	9d0092e8 <Dlab8>
9d009390:	000957c2 	srl	t2,t1,0x1f

9d009394 <DspecA>:
9d009394:	0100782a 	slt	t7,t0,zero
9d009398:	01084021 	addu	t0,t0,t0
9d00939c:	01294821 	addu	t1,t1,t1
9d0093a0:	15400017 	bnez	t2,9d009400 <i33>
9d0093a4:	012f4821 	addu	t1,t1,t7
9d0093a8:	01287825 	or	t7,t1,t0
9d0093ac:	11e00014 	beqz	t7,9d009400 <i33>
9d0093b0:	00000000 	nop
9d0093b4:	15200008 	bnez	t1,9d0093d8 <L36>
9d0093b8:	00000000 	nop
9d0093bc:	15000003 	bnez	t0,9d0093cc <L37>
9d0093c0:	00000000 	nop
9d0093c4:	1000ff29 	b	9d00906c <Dlab1>
9d0093c8:	240a0000 	li	t2,0

9d0093cc <L37>:
9d0093cc:	01004825 	move	t1,t0
9d0093d0:	24080000 	li	t0,0
9d0093d4:	254affe0 	addiu	t2,t2,-32

9d0093d8 <L36>:
9d0093d8:	712e7020 	clz	t6,t1
9d0093dc:	11c0ff23 	beqz	t6,9d00906c <Dlab1>
9d0093e0:	00000000 	nop
9d0093e4:	014e5023 	subu	t2,t2,t6
9d0093e8:	000e3022 	neg	a2,t6
9d0093ec:	00c83006 	srlv	a2,t0,a2
9d0093f0:	01c84004 	sllv	t0,t0,t6
9d0093f4:	01c94804 	sllv	t1,t1,t6
9d0093f8:	1000ff1c 	b	9d00906c <Dlab1>
9d0093fc:	01264825 	or	t1,t1,a2

9d009400 <i33>:
9d009400:	154d0005 	bne	t2,t5,9d009418 <i35>
9d009404:	00000000 	nop
9d009408:	000c7840 	sll	t7,t4,0x1
9d00940c:	01eb7825 	or	t7,t7,t3
9d009410:	11e0002b 	beqz	t7,9d0094c0 <Dnan>
9d009414:	00000000 	nop

9d009418 <i35>:
9d009418:	240107ff 	li	at,2047
9d00941c:	11a1000a 	beq	t5,at,9d009448 <DspecB>
9d009420:	00000000 	nop
9d009424:	1140ffbb 	beqz	t2,9d009314 <Dret>
9d009428:	00000000 	nop
9d00942c:	01287825 	or	t7,t1,t0
9d009430:	15e00023 	bnez	t7,9d0094c0 <Dnan>
9d009434:	00000000 	nop

9d009438 <Dinf>:
9d009438:	3c017ff0 	lui	at,0x7ff0
9d00943c:	00a12825 	or	a1,a1,at
9d009440:	1000ffb4 	b	9d009314 <Dret>
9d009444:	24040000 	li	a0,0

9d009448 <DspecB>:
9d009448:	0160782a 	slt	t7,t3,zero
9d00944c:	016b5821 	addu	t3,t3,t3
9d009450:	018c6021 	addu	t4,t4,t4
9d009454:	15a00017 	bnez	t5,9d0094b4 <i36>
9d009458:	018f6021 	addu	t4,t4,t7
9d00945c:	018b7825 	or	t7,t4,t3
9d009460:	11e0fff5 	beqz	t7,9d009438 <Dinf>
9d009464:	00000000 	nop
9d009468:	15800008 	bnez	t4,9d00948c <L39>
9d00946c:	00000000 	nop
9d009470:	15600003 	bnez	t3,9d009480 <L40>
9d009474:	00000000 	nop
9d009478:	1000ff00 	b	9d00907c <Dlab2>
9d00947c:	240d0000 	li	t5,0

9d009480 <L40>:
9d009480:	01606025 	move	t4,t3
9d009484:	240b0000 	li	t3,0
9d009488:	25adffe0 	addiu	t5,t5,-32

9d00948c <L39>:
9d00948c:	718e7020 	clz	t6,t4
9d009490:	11c0fefa 	beqz	t6,9d00907c <Dlab2>
9d009494:	00000000 	nop
9d009498:	01ae6823 	subu	t5,t5,t6
9d00949c:	000e3022 	neg	a2,t6
9d0094a0:	00cb3006 	srlv	a2,t3,a2
9d0094a4:	01cb5804 	sllv	t3,t3,t6
9d0094a8:	01cc6004 	sllv	t4,t4,t6
9d0094ac:	1000fef3 	b	9d00907c <Dlab2>
9d0094b0:	01866025 	or	t4,t4,a2

9d0094b4 <i36>:
9d0094b4:	018b7825 	or	t7,t4,t3
9d0094b8:	11e00002 	beqz	t7,9d0094c4 <i38>
9d0094bc:	00000000 	nop

9d0094c0 <Dnan>:
9d0094c0:	3c05fff8 	lui	a1,0xfff8

9d0094c4 <i38>:
9d0094c4:	1000ff93 	b	9d009314 <Dret>
9d0094c8:	24040000 	li	a0,0
9d0094cc:	00000000 	nop

Disassembly of section .text.dp32subadd:

9d0094d0 <__subdf3>:
9d0094d0:	3c018000 00e13826                       ...<&8..

9d0094d8 <__adddf3>:
9d0094d8:	00055840 000b5d42 000552c0 00047d42     @X..B]...R..B}..
9d0094e8:	014f5025 00044ac0 3c088000 01485025     %PO..J.....<%PH.
9d0094f8:	00077040 000e7542 00076ac0 00067d42     @p..Bu...j..B}..
9d009508:	01af6825 000662c0 01a86825 256fffff     %h...b..%h....o%
9d009518:	2de107fe 1020008d 00000000              ...-.. .....

9d009524 <Blab1>:
9d009524:	25cfffff 	addiu	t7,t6,-1
9d009528:	2de107fe 	sltiu	at,t7,2046
9d00952c:	102000bb 	beqz	at,9d00981c <BspecB>
9d009530:	00000000 	nop

9d009534 <Blab2>:
9d009534:	3c018000 	lui	at,0x8000
9d009538:	00a12824 	and	a1,a1,at
9d00953c:	016e4023 	subu	t0,t3,t6
9d009540:	1100002c 	beqz	t0,9d0095f4 <Badd3>
9d009544:	00000000 	nop
9d009548:	19000015 	blez	t0,9d0095a0 <i1>
9d00954c:	00000000 	nop

9d009550 <L1>:
9d009550:	2d010020 	sltiu	at,t0,32
9d009554:	14200007 	bnez	at,9d009574 <L2>
9d009558:	00000000 	nop
9d00955c:	2108ffe0 	addi	t0,t0,-32
9d009560:	000c302b 	sltu	a2,zero,t4
9d009564:	100d0023 	beq	zero,t5,9d0095f4 <Badd3>
9d009568:	01a66025 	or	t4,t5,a2
9d00956c:	1000fff8 	b	9d009550 <L1>
9d009570:	340d0000 	li	t5,0x0

9d009574 <L2>:
9d009574:	1100001f 	beqz	t0,9d0095f4 <Badd3>
9d009578:	00000000 	nop
9d00957c:	00082022 	neg	a0,t0
9d009580:	008c3004 	sllv	a2,t4,a0
9d009584:	008d2004 	sllv	a0,t5,a0
9d009588:	010c6006 	srlv	t4,t4,t0
9d00958c:	010d6806 	srlv	t5,t5,t0
9d009590:	10c00018 	beqz	a2,9d0095f4 <Badd3>
9d009594:	008c6025 	or	t4,a0,t4
9d009598:	10000016 	b	9d0095f4 <Badd3>
9d00959c:	358c0002 	ori	t4,t4,0x2

9d0095a0 <i1>:
9d0095a0:	000e5825 	or	t3,zero,t6
9d0095a4:	00084023 	negu	t0,t0

9d0095a8 <L4>:
9d0095a8:	2d010020 	sltiu	at,t0,32
9d0095ac:	14200007 	bnez	at,9d0095cc <L5>
9d0095b0:	00000000 	nop
9d0095b4:	2108ffe0 	addi	t0,t0,-32
9d0095b8:	0009302b 	sltu	a2,zero,t1
9d0095bc:	100a000d 	beq	zero,t2,9d0095f4 <Badd3>
9d0095c0:	01464825 	or	t1,t2,a2
9d0095c4:	1000fff8 	b	9d0095a8 <L4>
9d0095c8:	340a0000 	li	t2,0x0

9d0095cc <L5>:
9d0095cc:	11000009 	beqz	t0,9d0095f4 <Badd3>
9d0095d0:	00000000 	nop
9d0095d4:	00082022 	neg	a0,t0
9d0095d8:	00893004 	sllv	a2,t1,a0
9d0095dc:	008a2004 	sllv	a0,t2,a0
9d0095e0:	01094806 	srlv	t1,t1,t0
9d0095e4:	010a5006 	srlv	t2,t2,t0
9d0095e8:	10c00002 	beqz	a2,9d0095f4 <Badd3>
9d0095ec:	00894825 	or	t1,a0,t1
9d0095f0:	35290002 	ori	t1,t1,0x2

9d0095f4 <Badd3>:
9d0095f4:	00a77826 	xor	t7,a1,a3
9d0095f8:	05e0001c 	bltz	t7,9d00966c <Bsub1>
9d0095fc:	00000000 	nop
9d009600:	012c4821 	addu	t1,t1,t4
9d009604:	012c782b 	sltu	t7,t1,t4
9d009608:	014d5021 	addu	t2,t2,t5
9d00960c:	014f5021 	addu	t2,t2,t7
9d009610:	114d0002 	beq	t2,t5,9d00961c <L7>
9d009614:	00000000 	nop
9d009618:	014d782b 	sltu	t7,t2,t5

9d00961c <L7>:
9d00961c:	11e00037 	beqz	t7,9d0096fc <Bres>
9d009620:	00000000 	nop
9d009624:	312f0001 	andi	t7,t1,0x1
9d009628:	11e00002 	beqz	t7,9d009634 <i3>
9d00962c:	00000000 	nop
9d009630:	35290002 	ori	t1,t1,0x2

9d009634 <i3>:
9d009634:	00094842 	srl	t1,t1,0x1
9d009638:	000a7fc0 	sll	t7,t2,0x1f
9d00963c:	012f4825 	or	t1,t1,t7
9d009640:	000a5042 	srl	t2,t2,0x1
9d009644:	3c018000 	lui	at,0x8000
9d009648:	01415025 	or	t2,t2,at
9d00964c:	256b0001 	addiu	t3,t3,1
9d009650:	240107ff 	li	at,2047
9d009654:	15610029 	bne	t3,at,9d0096fc <Bres>
9d009658:	00000000 	nop
9d00965c:	3c017ff0 	lui	at,0x7ff0
9d009660:	00a12825 	or	a1,a1,at
9d009664:	10000037 	b	9d009744 <BretA>
9d009668:	24040000 	li	a0,0

9d00966c <Bsub1>:
9d00966c:	012c782b 	sltu	t7,t1,t4
9d009670:	012c4823 	subu	t1,t1,t4
9d009674:	014f102b 	sltu	v0,t2,t7
9d009678:	014f5023 	subu	t2,t2,t7
9d00967c:	014d782b 	sltu	t7,t2,t5
9d009680:	01e27825 	or	t7,t7,v0
9d009684:	11e00007 	beqz	t7,9d0096a4 <i5>
9d009688:	014d5023 	subu	t2,t2,t5
9d00968c:	3c018000 	lui	at,0x8000
9d009690:	00a12826 	xor	a1,a1,at
9d009694:	0009782b 	sltu	t7,zero,t1
9d009698:	00094823 	negu	t1,t1
9d00969c:	000a5023 	negu	t2,t2
9d0096a0:	014f5023 	subu	t2,t2,t7

9d0096a4 <i5>:
9d0096a4:	15400008 	bnez	t2,9d0096c8 <L8>
9d0096a8:	00000000 	nop
9d0096ac:	15200003 	bnez	t1,9d0096bc <L9>
9d0096b0:	00000000 	nop
9d0096b4:	1000000d 	b	9d0096ec <L10>
9d0096b8:	240b0000 	li	t3,0

9d0096bc <L9>:
9d0096bc:	01205025 	move	t2,t1
9d0096c0:	24090000 	li	t1,0
9d0096c4:	256bffe0 	addiu	t3,t3,-32

9d0096c8 <L8>:
9d0096c8:	71484020 	clz	t0,t2
9d0096cc:	11000007 	beqz	t0,9d0096ec <L10>
9d0096d0:	00000000 	nop
9d0096d4:	01685823 	subu	t3,t3,t0
9d0096d8:	00082022 	neg	a0,t0
9d0096dc:	00892006 	srlv	a0,t1,a0
9d0096e0:	01094804 	sllv	t1,t1,t0
9d0096e4:	010a5004 	sllv	t2,t2,t0
9d0096e8:	01445025 	or	t2,t2,a0

9d0096ec <L10>:
9d0096ec:	01497825 	or	t7,t2,t1
9d0096f0:	15e00002 	bnez	t7,9d0096fc <Bres>
9d0096f4:	00000000 	nop
9d0096f8:	24050000 	li	a1,0

9d0096fc <Bres>:
9d0096fc:	19600068 	blez	t3,9d0098a0 <Bund>
9d009700:	00000000 	nop

9d009704 <Blab8>:
9d009704:	25290400 	addiu	t1,t1,1024
9d009708:	2d2f0400 	sltiu	t7,t1,1024
9d00970c:	014f5021 	addu	t2,t2,t7
9d009710:	014f782b 	sltu	t7,t2,t7
9d009714:	016f5821 	addu	t3,t3,t7
9d009718:	00097ac2 	srl	t7,t1,0xb
9d00971c:	31ef0001 	andi	t7,t7,0x1
9d009720:	012f4823 	subu	t1,t1,t7
9d009724:	000922c2 	srl	a0,t1,0xb
9d009728:	000a7d40 	sll	t7,t2,0x15
9d00972c:	008f2025 	or	a0,a0,t7
9d009730:	000a7840 	sll	t7,t2,0x1
9d009734:	000f7b02 	srl	t7,t7,0xc
9d009738:	00af2825 	or	a1,a1,t7
9d00973c:	000b7d00 	sll	t7,t3,0x14
9d009740:	00af2825 	or	a1,a1,t7

9d009744 <BretA>:
9d009744:	00041025 	or	v0,zero,a0
9d009748:	00051825 	or	v1,zero,a1

9d00974c <B999>:
9d00974c:	03e00008 	jr	ra
9d009750:	00000000 	nop

9d009754 <BspecA>:
9d009754:	0120782a 	slt	t7,t1,zero
9d009758:	01294821 	addu	t1,t1,t1
9d00975c:	014a5021 	addu	t2,t2,t2
9d009760:	15600023 	bnez	t3,9d0097f0 <i7>
9d009764:	014f5021 	addu	t2,t2,t7
9d009768:	01497825 	or	t7,t2,t1
9d00976c:	11e00014 	beqz	t7,9d0097c0 <i8>
9d009770:	00000000 	nop
9d009774:	15400008 	bnez	t2,9d009798 <L11>
9d009778:	00000000 	nop
9d00977c:	15200003 	bnez	t1,9d00978c <L12>
9d009780:	00000000 	nop
9d009784:	1000ff67 	b	9d009524 <Blab1>
9d009788:	240b0000 	li	t3,0

9d00978c <L12>:
9d00978c:	01205025 	move	t2,t1
9d009790:	24090000 	li	t1,0
9d009794:	256bffe0 	addiu	t3,t3,-32

9d009798 <L11>:
9d009798:	71484020 	clz	t0,t2
9d00979c:	1100ff61 	beqz	t0,9d009524 <Blab1>
9d0097a0:	00000000 	nop
9d0097a4:	01685823 	subu	t3,t3,t0
9d0097a8:	00082022 	neg	a0,t0
9d0097ac:	00892006 	srlv	a0,t1,a0
9d0097b0:	01094804 	sllv	t1,t1,t0
9d0097b4:	010a5004 	sllv	t2,t2,t0
9d0097b8:	1000ff5a 	b	9d009524 <Blab1>
9d0097bc:	01445025 	or	t2,t2,a0

9d0097c0 <i8>:
9d0097c0:	240107ff 	li	at,2047
9d0097c4:	11c10015 	beq	t6,at,9d00981c <BspecB>
9d0097c8:	00000000 	nop
9d0097cc:	00e74021 	addu	t0,a3,a3
9d0097d0:	01067825 	or	t7,t0,a2
9d0097d4:	15e00003 	bnez	t7,9d0097e4 <BretB>
9d0097d8:	00000000 	nop
9d0097dc:	04e0ffd9 	bltz	a3,9d009744 <BretA>
9d0097e0:	00000000 	nop

9d0097e4 <BretB>:
9d0097e4:	00061025 	or	v0,zero,a2
9d0097e8:	1000ffd8 	b	9d00974c <B999>
9d0097ec:	00071825 	or	v1,zero,a3

9d0097f0 <i7>:
9d0097f0:	01497825 	or	t7,t2,t1
9d0097f4:	15e00027 	bnez	t7,9d009894 <Bnan>
9d0097f8:	00000000 	nop
9d0097fc:	240107ff 	li	at,2047
9d009800:	15c1ffd0 	bne	t6,at,9d009744 <BretA>
9d009804:	00000000 	nop
9d009808:	00a77826 	xor	t7,a1,a3
9d00980c:	05e00021 	bltz	t7,9d009894 <Bnan>
9d009810:	00000000 	nop
9d009814:	1000fff3 	b	9d0097e4 <BretB>
9d009818:	00000000 	nop

9d00981c <BspecB>:
9d00981c:	0180782a 	slt	t7,t4,zero
9d009820:	018c6021 	addu	t4,t4,t4
9d009824:	01ad6821 	addu	t5,t5,t5
9d009828:	15c00017 	bnez	t6,9d009888 <i11>
9d00982c:	01af6821 	addu	t5,t5,t7
9d009830:	01ac7825 	or	t7,t5,t4
9d009834:	11e0ffc3 	beqz	t7,9d009744 <BretA>
9d009838:	00000000 	nop
9d00983c:	15a00008 	bnez	t5,9d009860 <L14>
9d009840:	00000000 	nop
9d009844:	15800003 	bnez	t4,9d009854 <L15>
9d009848:	00000000 	nop
9d00984c:	1000ff39 	b	9d009534 <Blab2>
9d009850:	240e0000 	li	t6,0

9d009854 <L15>:
9d009854:	01806825 	move	t5,t4
9d009858:	240c0000 	li	t4,0
9d00985c:	25ceffe0 	addiu	t6,t6,-32

9d009860 <L14>:
9d009860:	71a84020 	clz	t0,t5
9d009864:	1100ff33 	beqz	t0,9d009534 <Blab2>
9d009868:	00000000 	nop
9d00986c:	01c87023 	subu	t6,t6,t0
9d009870:	00082022 	neg	a0,t0
9d009874:	008c2006 	srlv	a0,t4,a0
9d009878:	010c6004 	sllv	t4,t4,t0
9d00987c:	010d6804 	sllv	t5,t5,t0
9d009880:	1000ff2c 	b	9d009534 <Blab2>
9d009884:	01a46825 	or	t5,t5,a0

9d009888 <i11>:
9d009888:	01ac7825 	or	t7,t5,t4
9d00988c:	11e0ffd5 	beqz	t7,9d0097e4 <BretB>
9d009890:	00000000 	nop

9d009894 <Bnan>:
9d009894:	3c05fff8 	lui	a1,0xfff8
9d009898:	1000ffaa 	b	9d009744 <BretA>
9d00989c:	24040000 	li	a0,0

9d0098a0 <Bund>:
9d0098a0:	24080001 	li	t0,1
9d0098a4:	010b4023 	subu	t0,t0,t3

9d0098a8 <L17>:
9d0098a8:	2d010020 	sltiu	at,t0,32
9d0098ac:	14200007 	bnez	at,9d0098cc <L18>
9d0098b0:	00000000 	nop
9d0098b4:	2108ffe0 	addi	t0,t0,-32
9d0098b8:	0009302b 	sltu	a2,zero,t1
9d0098bc:	100a000d 	beq	zero,t2,9d0098f4 <L19>
9d0098c0:	01464825 	or	t1,t2,a2
9d0098c4:	1000fff8 	b	9d0098a8 <L17>
9d0098c8:	340a0000 	li	t2,0x0

9d0098cc <L18>:
9d0098cc:	11000009 	beqz	t0,9d0098f4 <L19>
9d0098d0:	00000000 	nop
9d0098d4:	00082022 	neg	a0,t0
9d0098d8:	00893004 	sllv	a2,t1,a0
9d0098dc:	008a2004 	sllv	a0,t2,a0
9d0098e0:	01094806 	srlv	t1,t1,t0
9d0098e4:	010a5006 	srlv	t2,t2,t0
9d0098e8:	10c00002 	beqz	a2,9d0098f4 <L19>
9d0098ec:	00894825 	or	t1,a0,t1
9d0098f0:	35290002 	ori	t1,t1,0x2

9d0098f4 <L19>:
9d0098f4:	1000ff83 	b	9d009704 <Blab8>
9d0098f8:	240b0000 	li	t3,0
9d0098fc:	00000000 	nop

Disassembly of section .text:

9d009900 <__udivdi3>:
9d009900:	00c04025 	move	t0,a2
9d009904:	00e01825 	move	v1,a3
9d009908:	00805025 	move	t2,a0
9d00990c:	14e00098 	bnez	a3,9d009b70 <__udivdi3+0x270>
9d009910:	00a01025 	move	v0,a1
9d009914:	00a6302b 	sltu	a2,a1,a2
9d009918:	10c00035 	beqz	a2,9d0099f0 <__udivdi3+0xf0>
9d00991c:	00000000 	nop
9d009920:	71052820 	clz	a1,t0
9d009924:	10a00006 	beqz	a1,9d009940 <__udivdi3+0x40>
9d009928:	00052023 	negu	a0,a1
9d00992c:	008a2006 	srlv	a0,t2,a0
9d009930:	00a21004 	sllv	v0,v0,a1
9d009934:	00a84004 	sllv	t0,t0,a1
9d009938:	00821025 	or	v0,a0,v0
9d00993c:	00aa5004 	sllv	t2,t2,a1
9d009940:	00083402 	srl	a2,t0,0x10
9d009944:	0046001b 	divu	zero,v0,a2
9d009948:	00c001f4 	teq	a2,zero,0x7
9d00994c:	3105ffff 	andi	a1,t0,0xffff
9d009950:	000a2402 	srl	a0,t2,0x10
9d009954:	00003812 	mflo	a3
9d009958:	00001010 	mfhi	v0
9d00995c:	00021400 	sll	v0,v0,0x10
9d009960:	00442025 	or	a0,v0,a0
9d009964:	70a74802 	mul	t1,a1,a3
9d009968:	0089582b 	sltu	t3,a0,t1
9d00996c:	1160000a 	beqz	t3,9d009998 <__udivdi3+0x98>
9d009970:	00e01025 	move	v0,a3
9d009974:	00882021 	addu	a0,a0,t0
9d009978:	0088582b 	sltu	t3,a0,t0
9d00997c:	15600006 	bnez	t3,9d009998 <__udivdi3+0x98>
9d009980:	24e2ffff 	addiu	v0,a3,-1
9d009984:	0089582b 	sltu	t3,a0,t1
9d009988:	51600004 	beqzl	t3,9d00999c <__udivdi3+0x9c>
9d00998c:	00892023 	subu	a0,a0,t1
9d009990:	24e2fffe 	addiu	v0,a3,-2
9d009994:	00882021 	addu	a0,a0,t0
9d009998:	00892023 	subu	a0,a0,t1
9d00999c:	0086001b 	divu	zero,a0,a2
9d0099a0:	00c001f4 	teq	a2,zero,0x7
9d0099a4:	00003010 	mfhi	a2
9d0099a8:	00063400 	sll	a2,a2,0x10
9d0099ac:	00002012 	mflo	a0
9d0099b0:	70a43802 	mul	a3,a1,a0
9d0099b4:	3145ffff 	andi	a1,t2,0xffff
9d0099b8:	00c52825 	or	a1,a2,a1
9d0099bc:	00a7482b 	sltu	t1,a1,a3
9d0099c0:	11200008 	beqz	t1,9d0099e4 <__udivdi3+0xe4>
9d0099c4:	00803025 	move	a2,a0
9d0099c8:	01052821 	addu	a1,t0,a1
9d0099cc:	00a8402b 	sltu	t0,a1,t0
9d0099d0:	15000004 	bnez	t0,9d0099e4 <__udivdi3+0xe4>
9d0099d4:	2486ffff 	addiu	a2,a0,-1
9d0099d8:	00a7282b 	sltu	a1,a1,a3
9d0099dc:	54a00001 	bnezl	a1,9d0099e4 <__udivdi3+0xe4>
9d0099e0:	2486fffe 	addiu	a2,a0,-2
9d0099e4:	00021400 	sll	v0,v0,0x10
9d0099e8:	03e00008 	jr	ra
9d0099ec:	00461025 	or	v0,v0,a2
9d0099f0:	15000004 	bnez	t0,9d009a04 <__udivdi3+0x104>
9d0099f4:	24020001 	li	v0,1
9d0099f8:	0048001b 	divu	zero,v0,t0
9d0099fc:	010001f4 	teq	t0,zero,0x7
9d009a00:	00004012 	mflo	t0
9d009a04:	710b5820 	clz	t3,t0
9d009a08:	15600023 	bnez	t3,9d009a98 <__udivdi3+0x198>
9d009a0c:	24070020 	li	a3,32
9d009a10:	00a82823 	subu	a1,a1,t0
9d009a14:	24030001 	li	v1,1
9d009a18:	00083402 	srl	a2,t0,0x10
9d009a1c:	00a6001b 	divu	zero,a1,a2
9d009a20:	00c001f4 	teq	a2,zero,0x7
9d009a24:	3107ffff 	andi	a3,t0,0xffff
9d009a28:	000a2402 	srl	a0,t2,0x10
9d009a2c:	00002812 	mflo	a1
9d009a30:	00001010 	mfhi	v0
9d009a34:	00021400 	sll	v0,v0,0x10
9d009a38:	00442025 	or	a0,v0,a0
9d009a3c:	70e54802 	mul	t1,a3,a1
9d009a40:	0089582b 	sltu	t3,a0,t1
9d009a44:	1160000a 	beqz	t3,9d009a70 <__udivdi3+0x170>
9d009a48:	00a01025 	move	v0,a1
9d009a4c:	00882021 	addu	a0,a0,t0
9d009a50:	0088582b 	sltu	t3,a0,t0
9d009a54:	15600006 	bnez	t3,9d009a70 <__udivdi3+0x170>
9d009a58:	24a2ffff 	addiu	v0,a1,-1
9d009a5c:	0089582b 	sltu	t3,a0,t1
9d009a60:	51600004 	beqzl	t3,9d009a74 <__udivdi3+0x174>
9d009a64:	00892023 	subu	a0,a0,t1
9d009a68:	24a2fffe 	addiu	v0,a1,-2
9d009a6c:	00882021 	addu	a0,a0,t0
9d009a70:	00892023 	subu	a0,a0,t1
9d009a74:	0086001b 	divu	zero,a0,a2
9d009a78:	00c001f4 	teq	a2,zero,0x7
9d009a7c:	314affff 	andi	t2,t2,0xffff
9d009a80:	00002810 	mfhi	a1
9d009a84:	00052c00 	sll	a1,a1,0x10
9d009a88:	00aa2825 	or	a1,a1,t2
9d009a8c:	00002012 	mflo	a0
9d009a90:	1000ffca 	b	9d0099bc <__udivdi3+0xbc>
9d009a94:	70e43802 	mul	a3,a3,a0
9d009a98:	00eb3823 	subu	a3,a3,t3
9d009a9c:	01684004 	sllv	t0,t0,t3
9d009aa0:	00e44806 	srlv	t1,a0,a3
9d009aa4:	00083402 	srl	a2,t0,0x10
9d009aa8:	00e53806 	srlv	a3,a1,a3
9d009aac:	00e6001b 	divu	zero,a3,a2
9d009ab0:	00c001f4 	teq	a2,zero,0x7
9d009ab4:	01651004 	sllv	v0,a1,t3
9d009ab8:	01224825 	or	t1,t1,v0
9d009abc:	3102ffff 	andi	v0,t0,0xffff
9d009ac0:	00091c02 	srl	v1,t1,0x10
9d009ac4:	00002812 	mflo	a1
9d009ac8:	00003810 	mfhi	a3
9d009acc:	00073c00 	sll	a3,a3,0x10
9d009ad0:	00e33825 	or	a3,a3,v1
9d009ad4:	70455002 	mul	t2,v0,a1
9d009ad8:	00ea602b 	sltu	t4,a3,t2
9d009adc:	1180000a 	beqz	t4,9d009b08 <__udivdi3+0x208>
9d009ae0:	00a01825 	move	v1,a1
9d009ae4:	00e83821 	addu	a3,a3,t0
9d009ae8:	00e8602b 	sltu	t4,a3,t0
9d009aec:	15800006 	bnez	t4,9d009b08 <__udivdi3+0x208>
9d009af0:	24a3ffff 	addiu	v1,a1,-1
9d009af4:	00ea602b 	sltu	t4,a3,t2
9d009af8:	51800004 	beqzl	t4,9d009b0c <__udivdi3+0x20c>
9d009afc:	00ea3823 	subu	a3,a3,t2
9d009b00:	24a3fffe 	addiu	v1,a1,-2
9d009b04:	00e83821 	addu	a3,a3,t0
9d009b08:	00ea3823 	subu	a3,a3,t2
9d009b0c:	00e6001b 	divu	zero,a3,a2
9d009b10:	00c001f4 	teq	a2,zero,0x7
9d009b14:	3125ffff 	andi	a1,t1,0xffff
9d009b18:	00003012 	mflo	a2
9d009b1c:	00003810 	mfhi	a3
9d009b20:	00073c00 	sll	a3,a3,0x10
9d009b24:	00e52825 	or	a1,a3,a1
9d009b28:	70461002 	mul	v0,v0,a2
9d009b2c:	00a2482b 	sltu	t1,a1,v0
9d009b30:	1120000a 	beqz	t1,9d009b5c <__udivdi3+0x25c>
9d009b34:	00c03825 	move	a3,a2
9d009b38:	00a82821 	addu	a1,a1,t0
9d009b3c:	00a8482b 	sltu	t1,a1,t0
9d009b40:	15200006 	bnez	t1,9d009b5c <__udivdi3+0x25c>
9d009b44:	24c7ffff 	addiu	a3,a2,-1
9d009b48:	00a2482b 	sltu	t1,a1,v0
9d009b4c:	51200004 	beqzl	t1,9d009b60 <__udivdi3+0x260>
9d009b50:	00031c00 	sll	v1,v1,0x10
9d009b54:	24c7fffe 	addiu	a3,a2,-2
9d009b58:	00a82821 	addu	a1,a1,t0
9d009b5c:	00031c00 	sll	v1,v1,0x10
9d009b60:	01645004 	sllv	t2,a0,t3
9d009b64:	00a22823 	subu	a1,a1,v0
9d009b68:	1000ffab 	b	9d009a18 <__udivdi3+0x118>
9d009b6c:	00671825 	or	v1,v1,a3
9d009b70:	00a7402b 	sltu	t0,a1,a3
9d009b74:	00001825 	move	v1,zero
9d009b78:	1500004e 	bnez	t0,9d009cb4 <__udivdi3+0x3b4>
9d009b7c:	00001025 	move	v0,zero
9d009b80:	70ea5020 	clz	t2,a3
9d009b84:	15400007 	bnez	t2,9d009ba4 <__udivdi3+0x2a4>
9d009b88:	24090020 	li	t1,32
9d009b8c:	00e5282b 	sltu	a1,a3,a1
9d009b90:	14a00048 	bnez	a1,9d009cb4 <__udivdi3+0x3b4>
9d009b94:	24020001 	li	v0,1
9d009b98:	0086102b 	sltu	v0,a0,a2
9d009b9c:	03e00008 	jr	ra
9d009ba0:	38420001 	xori	v0,v0,0x1
9d009ba4:	012a4823 	subu	t1,t1,t2
9d009ba8:	01261006 	srlv	v0,a2,t1
9d009bac:	01473804 	sllv	a3,a3,t2
9d009bb0:	00473825 	or	a3,v0,a3
9d009bb4:	01451804 	sllv	v1,a1,t2
9d009bb8:	00074402 	srl	t0,a3,0x10
9d009bbc:	01252806 	srlv	a1,a1,t1
9d009bc0:	00a8001b 	divu	zero,a1,t0
9d009bc4:	010001f4 	teq	t0,zero,0x7
9d009bc8:	30ebffff 	andi	t3,a3,0xffff
9d009bcc:	01241006 	srlv	v0,a0,t1
9d009bd0:	00431025 	or	v0,v0,v1
9d009bd4:	00021c02 	srl	v1,v0,0x10
9d009bd8:	00002812 	mflo	a1
9d009bdc:	00004810 	mfhi	t1
9d009be0:	00094c00 	sll	t1,t1,0x10
9d009be4:	01234825 	or	t1,t1,v1
9d009be8:	71656002 	mul	t4,t3,a1
9d009bec:	012c682b 	sltu	t5,t1,t4
9d009bf0:	11a0000a 	beqz	t5,9d009c1c <__udivdi3+0x31c>
9d009bf4:	00a01825 	move	v1,a1
9d009bf8:	01274821 	addu	t1,t1,a3
9d009bfc:	0127682b 	sltu	t5,t1,a3
9d009c00:	15a00006 	bnez	t5,9d009c1c <__udivdi3+0x31c>
9d009c04:	24a3ffff 	addiu	v1,a1,-1
9d009c08:	012c682b 	sltu	t5,t1,t4
9d009c0c:	51a00004 	beqzl	t5,9d009c20 <__udivdi3+0x320>
9d009c10:	012c4823 	subu	t1,t1,t4
9d009c14:	24a3fffe 	addiu	v1,a1,-2
9d009c18:	01274821 	addu	t1,t1,a3
9d009c1c:	012c4823 	subu	t1,t1,t4
9d009c20:	0128001b 	divu	zero,t1,t0
9d009c24:	010001f4 	teq	t0,zero,0x7
9d009c28:	3045ffff 	andi	a1,v0,0xffff
9d009c2c:	00004012 	mflo	t0
9d009c30:	00004810 	mfhi	t1
9d009c34:	00094c00 	sll	t1,t1,0x10
9d009c38:	01252825 	or	a1,t1,a1
9d009c3c:	71685802 	mul	t3,t3,t0
9d009c40:	00ab102b 	sltu	v0,a1,t3
9d009c44:	1040000a 	beqz	v0,9d009c70 <__udivdi3+0x370>
9d009c48:	01004825 	move	t1,t0
9d009c4c:	00a72821 	addu	a1,a1,a3
9d009c50:	00a7102b 	sltu	v0,a1,a3
9d009c54:	14400006 	bnez	v0,9d009c70 <__udivdi3+0x370>
9d009c58:	2509ffff 	addiu	t1,t0,-1
9d009c5c:	00ab102b 	sltu	v0,a1,t3
9d009c60:	10400004 	beqz	v0,9d009c74 <__udivdi3+0x374>
9d009c64:	00031400 	sll	v0,v1,0x10
9d009c68:	2509fffe 	addiu	t1,t0,-2
9d009c6c:	00a72821 	addu	a1,a1,a3
9d009c70:	00031400 	sll	v0,v1,0x10
9d009c74:	01463004 	sllv	a2,a2,t2
9d009c78:	00491025 	or	v0,v0,t1
9d009c7c:	00c20019 	multu	a2,v0
9d009c80:	00ab2823 	subu	a1,a1,t3
9d009c84:	00003810 	mfhi	a3
9d009c88:	00a7182b 	sltu	v1,a1,a3
9d009c8c:	14600007 	bnez	v1,9d009cac <__udivdi3+0x3ac>
9d009c90:	00003012 	mflo	a2
9d009c94:	14a70007 	bne	a1,a3,9d009cb4 <__udivdi3+0x3b4>
9d009c98:	00001825 	move	v1,zero
9d009c9c:	01442004 	sllv	a0,a0,t2
9d009ca0:	0086202b 	sltu	a0,a0,a2
9d009ca4:	10800003 	beqz	a0,9d009cb4 <__udivdi3+0x3b4>
9d009ca8:	00000000 	nop
9d009cac:	2442ffff 	addiu	v0,v0,-1
9d009cb0:	00001825 	move	v1,zero
9d009cb4:	03e00008 	jr	ra
9d009cb8:	00000000 	nop

9d009cbc <__umoddi3>:
9d009cbc:	00c04825 	move	t1,a2
9d009cc0:	00801025 	move	v0,a0
9d009cc4:	14e0008b 	bnez	a3,9d009ef4 <__umoddi3+0x238>
9d009cc8:	00a01825 	move	v1,a1
9d009ccc:	00a6302b 	sltu	a2,a1,a2
9d009cd0:	10c00033 	beqz	a2,9d009da0 <__umoddi3+0xe4>
9d009cd4:	712a5020 	clz	t2,t1
9d009cd8:	11400008 	beqz	t2,9d009cfc <__umoddi3+0x40>
9d009cdc:	00095c02 	srl	t3,t1,0x10
9d009ce0:	01451804 	sllv	v1,a1,t2
9d009ce4:	000a2823 	negu	a1,t2
9d009ce8:	00a42806 	srlv	a1,a0,a1
9d009cec:	01494804 	sllv	t1,t1,t2
9d009cf0:	00a31825 	or	v1,a1,v1
9d009cf4:	01441004 	sllv	v0,a0,t2
9d009cf8:	00095c02 	srl	t3,t1,0x10
9d009cfc:	006b001b 	divu	zero,v1,t3
9d009d00:	016001f4 	teq	t3,zero,0x7
9d009d04:	3124ffff 	andi	a0,t1,0xffff
9d009d08:	00001812 	mflo	v1
9d009d0c:	00002810 	mfhi	a1
9d009d10:	70643002 	mul	a2,v1,a0
9d009d14:	00051c00 	sll	v1,a1,0x10
9d009d18:	00022c02 	srl	a1,v0,0x10
9d009d1c:	00651825 	or	v1,v1,a1
9d009d20:	0066282b 	sltu	a1,v1,a2
9d009d24:	50a00008 	beqzl	a1,9d009d48 <__umoddi3+0x8c>
9d009d28:	00661823 	subu	v1,v1,a2
9d009d2c:	00691821 	addu	v1,v1,t1
9d009d30:	0069282b 	sltu	a1,v1,t1
9d009d34:	14a00003 	bnez	a1,9d009d44 <__umoddi3+0x88>
9d009d38:	0066282b 	sltu	a1,v1,a2
9d009d3c:	54a00001 	bnezl	a1,9d009d44 <__umoddi3+0x88>
9d009d40:	00691821 	addu	v1,v1,t1
9d009d44:	00661823 	subu	v1,v1,a2
9d009d48:	006b001b 	divu	zero,v1,t3
9d009d4c:	016001f4 	teq	t3,zero,0x7
9d009d50:	3042ffff 	andi	v0,v0,0xffff
9d009d54:	00003010 	mfhi	a2
9d009d58:	00001812 	mflo	v1
9d009d5c:	70645802 	mul	t3,v1,a0
9d009d60:	00061c00 	sll	v1,a2,0x10
9d009d64:	00621025 	or	v0,v1,v0
9d009d68:	004b182b 	sltu	v1,v0,t3
9d009d6c:	50600009 	beqzl	v1,9d009d94 <__umoddi3+0xd8>
9d009d70:	004b1023 	subu	v0,v0,t3
9d009d74:	00491021 	addu	v0,v0,t1
9d009d78:	0049182b 	sltu	v1,v0,t1
9d009d7c:	54600005 	bnezl	v1,9d009d94 <__umoddi3+0xd8>
9d009d80:	004b1023 	subu	v0,v0,t3
9d009d84:	004b182b 	sltu	v1,v0,t3
9d009d88:	54600001 	bnezl	v1,9d009d90 <__umoddi3+0xd4>
9d009d8c:	00491021 	addu	v0,v0,t1
9d009d90:	004b1023 	subu	v0,v0,t3
9d009d94:	01421006 	srlv	v0,v0,t2
9d009d98:	03e00008 	jr	ra
9d009d9c:	00001825 	move	v1,zero
9d009da0:	15200004 	bnez	t1,9d009db4 <__umoddi3+0xf8>
9d009da4:	24030001 	li	v1,1
9d009da8:	0069001b 	divu	zero,v1,t1
9d009dac:	012001f4 	teq	t1,zero,0x7
9d009db0:	00004812 	mflo	t1
9d009db4:	712a5020 	clz	t2,t1
9d009db8:	1540001f 	bnez	t2,9d009e38 <__umoddi3+0x17c>
9d009dbc:	24070020 	li	a3,32
9d009dc0:	00a92823 	subu	a1,a1,t1
9d009dc4:	00095c02 	srl	t3,t1,0x10
9d009dc8:	00ab001b 	divu	zero,a1,t3
9d009dcc:	016001f4 	teq	t3,zero,0x7
9d009dd0:	3124ffff 	andi	a0,t1,0xffff
9d009dd4:	00002812 	mflo	a1
9d009dd8:	00001810 	mfhi	v1
9d009ddc:	70a43002 	mul	a2,a1,a0
9d009de0:	00032c00 	sll	a1,v1,0x10
9d009de4:	00021c02 	srl	v1,v0,0x10
9d009de8:	00a32825 	or	a1,a1,v1
9d009dec:	00a6182b 	sltu	v1,a1,a2
9d009df0:	50600008 	beqzl	v1,9d009e14 <__umoddi3+0x158>
9d009df4:	00a63023 	subu	a2,a1,a2
9d009df8:	00a92821 	addu	a1,a1,t1
9d009dfc:	00a9182b 	sltu	v1,a1,t1
9d009e00:	14600003 	bnez	v1,9d009e10 <__umoddi3+0x154>
9d009e04:	00a6182b 	sltu	v1,a1,a2
9d009e08:	54600001 	bnezl	v1,9d009e10 <__umoddi3+0x154>
9d009e0c:	00a92821 	addu	a1,a1,t1
9d009e10:	00a63023 	subu	a2,a1,a2
9d009e14:	00cb001b 	divu	zero,a2,t3
9d009e18:	016001f4 	teq	t3,zero,0x7
9d009e1c:	3042ffff 	andi	v0,v0,0xffff
9d009e20:	00002810 	mfhi	a1
9d009e24:	00003012 	mflo	a2
9d009e28:	70c45802 	mul	t3,a2,a0
9d009e2c:	00053400 	sll	a2,a1,0x10
9d009e30:	1000ffcd 	b	9d009d68 <__umoddi3+0xac>
9d009e34:	00c21025 	or	v0,a2,v0
9d009e38:	00ea3823 	subu	a3,a3,t2
9d009e3c:	01494804 	sllv	t1,t1,t2
9d009e40:	00e41806 	srlv	v1,a0,a3
9d009e44:	00093402 	srl	a2,t1,0x10
9d009e48:	00e53806 	srlv	a3,a1,a3
9d009e4c:	00e6001b 	divu	zero,a3,a2
9d009e50:	00c001f4 	teq	a2,zero,0x7
9d009e54:	01451004 	sllv	v0,a1,t2
9d009e58:	3128ffff 	andi	t0,t1,0xffff
9d009e5c:	00621825 	or	v1,v1,v0
9d009e60:	00032c02 	srl	a1,v1,0x10
9d009e64:	00003812 	mflo	a3
9d009e68:	00006010 	mfhi	t4
9d009e6c:	70e81002 	mul	v0,a3,t0
9d009e70:	000c3c00 	sll	a3,t4,0x10
9d009e74:	00e53825 	or	a3,a3,a1
9d009e78:	00e2282b 	sltu	a1,a3,v0
9d009e7c:	50a00008 	beqzl	a1,9d009ea0 <__umoddi3+0x1e4>
9d009e80:	00e23823 	subu	a3,a3,v0
9d009e84:	00e93821 	addu	a3,a3,t1
9d009e88:	00e9282b 	sltu	a1,a3,t1
9d009e8c:	14a00003 	bnez	a1,9d009e9c <__umoddi3+0x1e0>
9d009e90:	00e2282b 	sltu	a1,a3,v0
9d009e94:	54a00001 	bnezl	a1,9d009e9c <__umoddi3+0x1e0>
9d009e98:	00e93821 	addu	a3,a3,t1
9d009e9c:	00e23823 	subu	a3,a3,v0
9d009ea0:	00e6001b 	divu	zero,a3,a2
9d009ea4:	00c001f4 	teq	a2,zero,0x7
9d009ea8:	3065ffff 	andi	a1,v1,0xffff
9d009eac:	00003012 	mflo	a2
9d009eb0:	00003810 	mfhi	a3
9d009eb4:	00073c00 	sll	a3,a3,0x10
9d009eb8:	00e52825 	or	a1,a3,a1
9d009ebc:	70c83002 	mul	a2,a2,t0
9d009ec0:	00a6102b 	sltu	v0,a1,a2
9d009ec4:	10400009 	beqz	v0,9d009eec <__umoddi3+0x230>
9d009ec8:	01441004 	sllv	v0,a0,t2
9d009ecc:	00a92821 	addu	a1,a1,t1
9d009ed0:	00a9102b 	sltu	v0,a1,t1
9d009ed4:	14400005 	bnez	v0,9d009eec <__umoddi3+0x230>
9d009ed8:	01441004 	sllv	v0,a0,t2
9d009edc:	00a6102b 	sltu	v0,a1,a2
9d009ee0:	54400001 	bnezl	v0,9d009ee8 <__umoddi3+0x22c>
9d009ee4:	00a92821 	addu	a1,a1,t1
9d009ee8:	01441004 	sllv	v0,a0,t2
9d009eec:	1000ffb5 	b	9d009dc4 <__umoddi3+0x108>
9d009ef0:	00a62823 	subu	a1,a1,a2
9d009ef4:	00a7402b 	sltu	t0,a1,a3
9d009ef8:	1500005c 	bnez	t0,9d00a06c <__umoddi3+0x3b0>
9d009efc:	70ee7020 	clz	t6,a3
9d009f00:	15c0000a 	bnez	t6,9d009f2c <__umoddi3+0x270>
9d009f04:	00e5402b 	sltu	t0,a3,a1
9d009f08:	15000003 	bnez	t0,9d009f18 <__umoddi3+0x25c>
9d009f0c:	0086402b 	sltu	t0,a0,a2
9d009f10:	15000056 	bnez	t0,9d00a06c <__umoddi3+0x3b0>
9d009f14:	00000000 	nop
9d009f18:	00861023 	subu	v0,a0,a2
9d009f1c:	00a72823 	subu	a1,a1,a3
9d009f20:	0082182b 	sltu	v1,a0,v0
9d009f24:	03e00008 	jr	ra
9d009f28:	00a31823 	subu	v1,a1,v1
9d009f2c:	240b0020 	li	t3,32
9d009f30:	016e5823 	subu	t3,t3,t6
9d009f34:	01666006 	srlv	t4,a2,t3
9d009f38:	01c73804 	sllv	a3,a3,t6
9d009f3c:	01873825 	or	a3,t4,a3
9d009f40:	01c54004 	sllv	t0,a1,t6
9d009f44:	00074c02 	srl	t1,a3,0x10
9d009f48:	01652806 	srlv	a1,a1,t3
9d009f4c:	00a9001b 	divu	zero,a1,t1
9d009f50:	012001f4 	teq	t1,zero,0x7
9d009f54:	01641006 	srlv	v0,a0,t3
9d009f58:	00481025 	or	v0,v0,t0
9d009f5c:	30e8ffff 	andi	t0,a3,0xffff
9d009f60:	00026402 	srl	t4,v0,0x10
9d009f64:	00002812 	mflo	a1
9d009f68:	00005010 	mfhi	t2
9d009f6c:	000a5400 	sll	t2,t2,0x10
9d009f70:	014c5025 	or	t2,t2,t4
9d009f74:	71051802 	mul	v1,t0,a1
9d009f78:	0143602b 	sltu	t4,t2,v1
9d009f7c:	1180000a 	beqz	t4,9d009fa8 <__umoddi3+0x2ec>
9d009f80:	00a06825 	move	t5,a1
9d009f84:	01475021 	addu	t2,t2,a3
9d009f88:	0147602b 	sltu	t4,t2,a3
9d009f8c:	15800006 	bnez	t4,9d009fa8 <__umoddi3+0x2ec>
9d009f90:	24adffff 	addiu	t5,a1,-1
9d009f94:	0143602b 	sltu	t4,t2,v1
9d009f98:	51800004 	beqzl	t4,9d009fac <__umoddi3+0x2f0>
9d009f9c:	01435023 	subu	t2,t2,v1
9d009fa0:	24adfffe 	addiu	t5,a1,-2
9d009fa4:	01475021 	addu	t2,t2,a3
9d009fa8:	01435023 	subu	t2,t2,v1
9d009fac:	0149001b 	divu	zero,t2,t1
9d009fb0:	012001f4 	teq	t1,zero,0x7
9d009fb4:	00004812 	mflo	t1
9d009fb8:	00005010 	mfhi	t2
9d009fbc:	000a5400 	sll	t2,t2,0x10
9d009fc0:	71092802 	mul	a1,t0,t1
9d009fc4:	3048ffff 	andi	t0,v0,0xffff
9d009fc8:	01484025 	or	t0,t2,t0
9d009fcc:	0105102b 	sltu	v0,t0,a1
9d009fd0:	1040000a 	beqz	v0,9d009ffc <__umoddi3+0x340>
9d009fd4:	01205025 	move	t2,t1
9d009fd8:	01074021 	addu	t0,t0,a3
9d009fdc:	0107102b 	sltu	v0,t0,a3
9d009fe0:	14400006 	bnez	v0,9d009ffc <__umoddi3+0x340>
9d009fe4:	252affff 	addiu	t2,t1,-1
9d009fe8:	0105102b 	sltu	v0,t0,a1
9d009fec:	10400004 	beqz	v0,9d00a000 <__umoddi3+0x344>
9d009ff0:	000d6400 	sll	t4,t5,0x10
9d009ff4:	252afffe 	addiu	t2,t1,-2
9d009ff8:	01074021 	addu	t0,t0,a3
9d009ffc:	000d6400 	sll	t4,t5,0x10
9d00a000:	01c61004 	sllv	v0,a2,t6
9d00a004:	018a6025 	or	t4,t4,t2
9d00a008:	01820019 	multu	t4,v0
9d00a00c:	01054023 	subu	t0,t0,a1
9d00a010:	01c41804 	sllv	v1,a0,t6
9d00a014:	00006810 	mfhi	t5
9d00a018:	010d202b 	sltu	a0,t0,t5
9d00a01c:	01a02825 	move	a1,t5
9d00a020:	00006012 	mflo	t4
9d00a024:	14800005 	bnez	a0,9d00a03c <__umoddi3+0x380>
9d00a028:	00003012 	mflo	a2
9d00a02c:	150d0007 	bne	t0,t5,9d00a04c <__umoddi3+0x390>
9d00a030:	006c202b 	sltu	a0,v1,t4
9d00a034:	10800006 	beqz	a0,9d00a050 <__umoddi3+0x394>
9d00a038:	00663023 	subu	a2,v1,a2
9d00a03c:	01823023 	subu	a2,t4,v0
9d00a040:	01a73823 	subu	a3,t5,a3
9d00a044:	0186602b 	sltu	t4,t4,a2
9d00a048:	00ec2823 	subu	a1,a3,t4
9d00a04c:	00663023 	subu	a2,v1,a2
9d00a050:	0066182b 	sltu	v1,v1,a2
9d00a054:	01054023 	subu	t0,t0,a1
9d00a058:	01031823 	subu	v1,t0,v1
9d00a05c:	01631004 	sllv	v0,v1,t3
9d00a060:	01c63006 	srlv	a2,a2,t6
9d00a064:	00461025 	or	v0,v0,a2
9d00a068:	01c31806 	srlv	v1,v1,t6
9d00a06c:	03e00008 	jr	ra
9d00a070:	00000000 	nop

Disassembly of section .text:

9d00a074 <ssd1306_command>:
    ssd1306_clear();
    ssd1306_update();
}

// send a command instruction (not pixel data)
void ssd1306_command(unsigned char c) {
9d00a074:	27bdffe8 	addiu	sp,sp,-24
9d00a078:	afbf0014 	sw	ra,20(sp)
9d00a07c:	afb00010 	sw	s0,16(sp)
    i2c_master_start();
9d00a080:	0f402d44 	jal	9d00b510 <i2c_master_start>
9d00a084:	00808025 	move	s0,a0
    i2c_master_send(ssd1306_write);
9d00a088:	0f402d5c 	jal	9d00b570 <i2c_master_send>
9d00a08c:	93848011 	lbu	a0,-32751(gp)
    i2c_master_send(0x00); // bit 7 is 0 for Co bit (data bytes only), bit 6 is 0 for DC (data is a command))
9d00a090:	0f402d5c 	jal	9d00b570 <i2c_master_send>
9d00a094:	00002025 	move	a0,zero
    i2c_master_send(c);
9d00a098:	0f402d5c 	jal	9d00b570 <i2c_master_send>
9d00a09c:	02002025 	move	a0,s0
    i2c_master_stop();
9d00a0a0:	0f402d87 	jal	9d00b61c <i2c_master_stop>
9d00a0a4:	00000000 	nop
}
9d00a0a8:	8fbf0014 	lw	ra,20(sp)
9d00a0ac:	8fb00010 	lw	s0,16(sp)
9d00a0b0:	03e00008 	jr	ra
9d00a0b4:	27bd0018 	addiu	sp,sp,24

9d00a0b8 <ssd1306_update>:

// update every pixel on the screen
void ssd1306_update() {
9d00a0b8:	27bdffe0 	addiu	sp,sp,-32
9d00a0bc:	afbf001c 	sw	ra,28(sp)
9d00a0c0:	afb10018 	sw	s1,24(sp)
9d00a0c4:	afb00014 	sw	s0,20(sp)
    ssd1306_command(SSD1306_PAGEADDR);
9d00a0c8:	0f40281d 	jal	9d00a074 <ssd1306_command>
9d00a0cc:	24040022 	li	a0,34
    ssd1306_command(0);
9d00a0d0:	0f40281d 	jal	9d00a074 <ssd1306_command>
9d00a0d4:	00002025 	move	a0,zero
    ssd1306_command(0xFF);
9d00a0d8:	0f40281d 	jal	9d00a074 <ssd1306_command>
9d00a0dc:	240400ff 	li	a0,255
    ssd1306_command(SSD1306_COLUMNADDR);
9d00a0e0:	0f40281d 	jal	9d00a074 <ssd1306_command>
9d00a0e4:	24040021 	li	a0,33
    ssd1306_command(0);
9d00a0e8:	0f40281d 	jal	9d00a074 <ssd1306_command>
9d00a0ec:	00002025 	move	a0,zero
    ssd1306_command(128 - 1); // Width
9d00a0f0:	0f40281d 	jal	9d00a074 <ssd1306_command>
9d00a0f4:	2404007f 	li	a0,127

    unsigned short count = 512; // WIDTH * ((HEIGHT + 7) / 8)
    unsigned char * ptr = ssd1306_buffer; // first address of the pixel buffer
    i2c_master_start();
9d00a0f8:	0f402d44 	jal	9d00b510 <i2c_master_start>
9d00a0fc:	3c10a000 	lui	s0,0xa000
    i2c_master_send(ssd1306_write);
9d00a100:	0f402d5c 	jal	9d00b570 <i2c_master_send>
9d00a104:	93848011 	lbu	a0,-32751(gp)
    i2c_master_send(0x40); // send pixel data
9d00a108:	0f402d5c 	jal	9d00b570 <i2c_master_send>
9d00a10c:	24040040 	li	a0,64
    unsigned char * ptr = ssd1306_buffer; // first address of the pixel buffer
9d00a110:	26100004 	addiu	s0,s0,4
    // send every pixel
    while (count--) {
9d00a114:	3c11a000 	lui	s1,0xa000
9d00a118:	26310204 	addiu	s1,s1,516
        i2c_master_send(*ptr++);
9d00a11c:	26100001 	addiu	s0,s0,1
9d00a120:	0f402d5c 	jal	9d00b570 <i2c_master_send>
9d00a124:	9204ffff 	lbu	a0,-1(s0)
    while (count--) {
9d00a128:	1611fffd 	bne	s0,s1,9d00a120 <ssd1306_update+0x68>
9d00a12c:	26100001 	addiu	s0,s0,1
    }
    i2c_master_stop();
9d00a130:	0f402d87 	jal	9d00b61c <i2c_master_stop>
9d00a134:	00000000 	nop
}
9d00a138:	8fbf001c 	lw	ra,28(sp)
9d00a13c:	8fb10018 	lw	s1,24(sp)
9d00a140:	8fb00014 	lw	s0,20(sp)
9d00a144:	03e00008 	jr	ra
9d00a148:	27bd0020 	addiu	sp,sp,32

9d00a14c <ssd1306_drawPixel>:

// set a pixel value. Call update() to push to the display)
void ssd1306_drawPixel(unsigned char x, unsigned char y, unsigned char color) {
    if ((x < 0) || (x >= 128) || (y < 0) || (y >= 32)) {
9d00a14c:	7c041420 	seb	v0,a0
9d00a150:	0440001e 	bltz	v0,9d00a1cc <ssd1306_drawPixel+0x80>
9d00a154:	2ca20020 	sltiu	v0,a1,32
9d00a158:	1040001c 	beqz	v0,9d00a1cc <ssd1306_drawPixel+0x80>
9d00a15c:	24020001 	li	v0,1
        return;
    }

    if (color == 1) {
9d00a160:	14c2000d 	bne	a2,v0,9d00a198 <ssd1306_drawPixel+0x4c>
9d00a164:	000518c2 	srl	v1,a1,0x3
        ssd1306_buffer[x + (y / 8)*128] |= (1 << (y & 7));
9d00a168:	000319c0 	sll	v1,v1,0x7
9d00a16c:	00642021 	addu	a0,v1,a0
9d00a170:	3c02a000 	lui	v0,0xa000
9d00a174:	24420004 	addiu	v0,v0,4
9d00a178:	00822021 	addu	a0,a0,v0
9d00a17c:	30a50007 	andi	a1,a1,0x7
9d00a180:	24020001 	li	v0,1
9d00a184:	00a22804 	sllv	a1,v0,a1
9d00a188:	90820000 	lbu	v0,0(a0)
9d00a18c:	00a22825 	or	a1,a1,v0
9d00a190:	03e00008 	jr	ra
9d00a194:	a0850000 	sb	a1,0(a0)
    } else {
        ssd1306_buffer[x + (y / 8)*128] &= ~(1 << (y & 7));
9d00a198:	000510c2 	srl	v0,a1,0x3
9d00a19c:	000211c0 	sll	v0,v0,0x7
9d00a1a0:	00442021 	addu	a0,v0,a0
9d00a1a4:	3c02a000 	lui	v0,0xa000
9d00a1a8:	24420004 	addiu	v0,v0,4
9d00a1ac:	00822021 	addu	a0,a0,v0
9d00a1b0:	30a50007 	andi	a1,a1,0x7
9d00a1b4:	24020001 	li	v0,1
9d00a1b8:	00a22804 	sllv	a1,v0,a1
9d00a1bc:	00052827 	nor	a1,zero,a1
9d00a1c0:	90820000 	lbu	v0,0(a0)
9d00a1c4:	00a22824 	and	a1,a1,v0
9d00a1c8:	a0850000 	sb	a1,0(a0)
    }
}
9d00a1cc:	03e00008 	jr	ra
9d00a1d0:	00000000 	nop

9d00a1d4 <ssd1306_clear>:

// zero every pixel value
void ssd1306_clear() {
9d00a1d4:	27bdffe8 	addiu	sp,sp,-24
9d00a1d8:	afbf0014 	sw	ra,20(sp)
    memset(ssd1306_buffer, 0, 512); // make every bit a 0, memset in string.h
9d00a1dc:	24060200 	li	a2,512
9d00a1e0:	00002825 	move	a1,zero
9d00a1e4:	3c04a000 	lui	a0,0xa000
9d00a1e8:	0f4030d1 	jal	9d00c344 <memset>
9d00a1ec:	24840004 	addiu	a0,a0,4
}
9d00a1f0:	8fbf0014 	lw	ra,20(sp)
9d00a1f4:	03e00008 	jr	ra
9d00a1f8:	27bd0018 	addiu	sp,sp,24

9d00a1fc <ssd1306_setup>:
void ssd1306_setup() {
9d00a1fc:	27bdffe8 	addiu	sp,sp,-24
9d00a200:	afbf0014 	sw	ra,20(sp)
    _CP0_SET_COUNT(0);
9d00a204:	00001025 	move	v0,zero
9d00a208:	40824800 	mtc0	v0,c0_count
9d00a20c:	000000c0 	ehb
    while (_CP0_GET_COUNT() < 48000000 / 2 / 50) {
9d00a210:	3c020007 	lui	v0,0x7
9d00a214:	24425300 	addiu	v0,v0,21248
9d00a218:	40034800 	mfc0	v1,c0_count
9d00a21c:	0062182b 	sltu	v1,v1,v0
9d00a220:	1460fffd 	bnez	v1,9d00a218 <ssd1306_setup+0x1c>
9d00a224:	00000000 	nop
    ssd1306_command(SSD1306_DISPLAYOFF);
9d00a228:	0f40281d 	jal	9d00a074 <ssd1306_command>
9d00a22c:	240400ae 	li	a0,174
    ssd1306_command(SSD1306_SETDISPLAYCLOCKDIV);
9d00a230:	0f40281d 	jal	9d00a074 <ssd1306_command>
9d00a234:	240400d5 	li	a0,213
    ssd1306_command(0x80);
9d00a238:	0f40281d 	jal	9d00a074 <ssd1306_command>
9d00a23c:	24040080 	li	a0,128
    ssd1306_command(SSD1306_SETMULTIPLEX);
9d00a240:	0f40281d 	jal	9d00a074 <ssd1306_command>
9d00a244:	240400a8 	li	a0,168
    ssd1306_command(0x1F); // height-1 = 31
9d00a248:	0f40281d 	jal	9d00a074 <ssd1306_command>
9d00a24c:	2404001f 	li	a0,31
    ssd1306_command(SSD1306_SETDISPLAYOFFSET);
9d00a250:	0f40281d 	jal	9d00a074 <ssd1306_command>
9d00a254:	240400d3 	li	a0,211
    ssd1306_command(0x0);
9d00a258:	0f40281d 	jal	9d00a074 <ssd1306_command>
9d00a25c:	00002025 	move	a0,zero
    ssd1306_command(SSD1306_SETSTARTLINE);
9d00a260:	0f40281d 	jal	9d00a074 <ssd1306_command>
9d00a264:	24040040 	li	a0,64
    ssd1306_command(SSD1306_CHARGEPUMP);
9d00a268:	0f40281d 	jal	9d00a074 <ssd1306_command>
9d00a26c:	2404008d 	li	a0,141
    ssd1306_command(0x14);
9d00a270:	0f40281d 	jal	9d00a074 <ssd1306_command>
9d00a274:	24040014 	li	a0,20
    ssd1306_command(SSD1306_MEMORYMODE);
9d00a278:	0f40281d 	jal	9d00a074 <ssd1306_command>
9d00a27c:	24040020 	li	a0,32
    ssd1306_command(0x00);
9d00a280:	0f40281d 	jal	9d00a074 <ssd1306_command>
9d00a284:	00002025 	move	a0,zero
    ssd1306_command(SSD1306_SEGREMAP | 0x1);
9d00a288:	0f40281d 	jal	9d00a074 <ssd1306_command>
9d00a28c:	240400a1 	li	a0,161
    ssd1306_command(SSD1306_COMSCANDEC);
9d00a290:	0f40281d 	jal	9d00a074 <ssd1306_command>
9d00a294:	240400c8 	li	a0,200
    ssd1306_command(SSD1306_SETCOMPINS);
9d00a298:	0f40281d 	jal	9d00a074 <ssd1306_command>
9d00a29c:	240400da 	li	a0,218
    ssd1306_command(0x02);
9d00a2a0:	0f40281d 	jal	9d00a074 <ssd1306_command>
9d00a2a4:	24040002 	li	a0,2
    ssd1306_command(SSD1306_SETCONTRAST);
9d00a2a8:	0f40281d 	jal	9d00a074 <ssd1306_command>
9d00a2ac:	24040081 	li	a0,129
    ssd1306_command(0x8F);
9d00a2b0:	0f40281d 	jal	9d00a074 <ssd1306_command>
9d00a2b4:	2404008f 	li	a0,143
    ssd1306_command(SSD1306_SETPRECHARGE);
9d00a2b8:	0f40281d 	jal	9d00a074 <ssd1306_command>
9d00a2bc:	240400d9 	li	a0,217
    ssd1306_command(0xF1);
9d00a2c0:	0f40281d 	jal	9d00a074 <ssd1306_command>
9d00a2c4:	240400f1 	li	a0,241
    ssd1306_command(SSD1306_SETVCOMDETECT);
9d00a2c8:	0f40281d 	jal	9d00a074 <ssd1306_command>
9d00a2cc:	240400db 	li	a0,219
    ssd1306_command(0x40);
9d00a2d0:	0f40281d 	jal	9d00a074 <ssd1306_command>
9d00a2d4:	24040040 	li	a0,64
    ssd1306_command(SSD1306_DISPLAYON);
9d00a2d8:	0f40281d 	jal	9d00a074 <ssd1306_command>
9d00a2dc:	240400af 	li	a0,175
    ssd1306_clear();
9d00a2e0:	0f402875 	jal	9d00a1d4 <ssd1306_clear>
9d00a2e4:	00000000 	nop
    ssd1306_update();
9d00a2e8:	0f40282e 	jal	9d00a0b8 <ssd1306_update>
9d00a2ec:	00000000 	nop
}
9d00a2f0:	8fbf0014 	lw	ra,20(sp)
9d00a2f4:	03e00008 	jr	ra
9d00a2f8:	27bd0018 	addiu	sp,sp,24

9d00a2fc <drawChar>:

void drawChar(unsigned char letter, unsigned char x, unsigned char y){
9d00a2fc:	27bdffd0 	addiu	sp,sp,-48
9d00a300:	afbf002c 	sw	ra,44(sp)
9d00a304:	afb60028 	sw	s6,40(sp)
9d00a308:	afb50024 	sw	s5,36(sp)
9d00a30c:	afb40020 	sw	s4,32(sp)
9d00a310:	afb3001c 	sw	s3,28(sp)
9d00a314:	afb20018 	sw	s2,24(sp)
9d00a318:	afb10014 	sw	s1,20(sp)
9d00a31c:	afb00010 	sw	s0,16(sp)
9d00a320:	00a08025 	move	s0,a1
9d00a324:	00c0a025 	move	s4,a2
    for(int j = 0; j < 5; ++j) {
9d00a328:	00048880 	sll	s1,a0,0x2
9d00a32c:	02242021 	addu	a0,s1,a0
9d00a330:	2484ff60 	addiu	a0,a0,-160
9d00a334:	3c119d01 	lui	s1,0x9d01
9d00a338:	2631adfc 	addiu	s1,s1,-20996
9d00a33c:	02248821 	addu	s1,s1,a0
9d00a340:	24b30005 	addiu	s3,a1,5
9d00a344:	327300ff 	andi	s3,s3,0xff
        unsigned char col = ASCII[letter - 0x20][j];
        for(int i = 0; i < 8; ++i) {
9d00a348:	24150008 	li	s5,8
        unsigned char col = ASCII[letter - 0x20][j];
9d00a34c:	92360000 	lbu	s6,0(s1)
        for(int i = 0; i < 8; ++i) {
9d00a350:	00009025 	move	s2,zero
            ssd1306_drawPixel(x+j, y+i, (col>>i)&0b1);
9d00a354:	02563007 	srav	a2,s6,s2
9d00a358:	02922821 	addu	a1,s4,s2
9d00a35c:	30c60001 	andi	a2,a2,0x1
9d00a360:	30a500ff 	andi	a1,a1,0xff
9d00a364:	0f402853 	jal	9d00a14c <ssd1306_drawPixel>
9d00a368:	02002025 	move	a0,s0
        for(int i = 0; i < 8; ++i) {
9d00a36c:	26520001 	addiu	s2,s2,1
9d00a370:	1655fff9 	bne	s2,s5,9d00a358 <drawChar+0x5c>
9d00a374:	02563007 	srav	a2,s6,s2
9d00a378:	26100001 	addiu	s0,s0,1
9d00a37c:	321000ff 	andi	s0,s0,0xff
    for(int j = 0; j < 5; ++j) {
9d00a380:	1613fff2 	bne	s0,s3,9d00a34c <drawChar+0x50>
9d00a384:	26310001 	addiu	s1,s1,1
        }
    }
}
9d00a388:	8fbf002c 	lw	ra,44(sp)
9d00a38c:	8fb60028 	lw	s6,40(sp)
9d00a390:	8fb50024 	lw	s5,36(sp)
9d00a394:	8fb40020 	lw	s4,32(sp)
9d00a398:	8fb3001c 	lw	s3,28(sp)
9d00a39c:	8fb20018 	lw	s2,24(sp)
9d00a3a0:	8fb10014 	lw	s1,20(sp)
9d00a3a4:	8fb00010 	lw	s0,16(sp)
9d00a3a8:	03e00008 	jr	ra
9d00a3ac:	27bd0030 	addiu	sp,sp,48

9d00a3b0 <drawString>:

void drawString(char *m, unsigned char x, unsigned char y) {
    int k = 0;
    while (m[k]!=0) {
9d00a3b0:	80820000 	lb	v0,0(a0)
9d00a3b4:	10400018 	beqz	v0,9d00a418 <drawString+0x68>
9d00a3b8:	00000000 	nop
void drawString(char *m, unsigned char x, unsigned char y) {
9d00a3bc:	27bdffe0 	addiu	sp,sp,-32
9d00a3c0:	afbf001c 	sw	ra,28(sp)
9d00a3c4:	afb20018 	sw	s2,24(sp)
9d00a3c8:	afb10014 	sw	s1,20(sp)
9d00a3cc:	afb00010 	sw	s0,16(sp)
9d00a3d0:	00a08825 	move	s1,a1
9d00a3d4:	00c09025 	move	s2,a2
9d00a3d8:	24900001 	addiu	s0,a0,1
        drawChar(m[k], x+5*k, y);
9d00a3dc:	02403025 	move	a2,s2
9d00a3e0:	02202825 	move	a1,s1
9d00a3e4:	0f4028bf 	jal	9d00a2fc <drawChar>
9d00a3e8:	304400ff 	andi	a0,v0,0xff
    while (m[k]!=0) {
9d00a3ec:	82020000 	lb	v0,0(s0)
9d00a3f0:	26310005 	addiu	s1,s1,5
9d00a3f4:	323100ff 	andi	s1,s1,0xff
9d00a3f8:	1440fff8 	bnez	v0,9d00a3dc <drawString+0x2c>
9d00a3fc:	26100001 	addiu	s0,s0,1
        k++;
    }
}
9d00a400:	8fbf001c 	lw	ra,28(sp)
9d00a404:	8fb20018 	lw	s2,24(sp)
9d00a408:	8fb10014 	lw	s1,20(sp)
9d00a40c:	8fb00010 	lw	s0,16(sp)
9d00a410:	03e00008 	jr	ra
9d00a414:	27bd0020 	addiu	sp,sp,32
9d00a418:	03e00008 	jr	ra
9d00a41c:	00000000 	nop

Disassembly of section .text.dp32mul:

9d00a420 <__muldf3>:
9d00a420:	00055040 000a5542 00054ac0 00047d42     @P..BU...J..B}..
9d00a430:	012f4825 000442c0 3c0e8000 012e4825     %H/..B.....<%H..
9d00a440:	00076840 000d6d42 000762c0 00067d42     @h..Bm...b..B}..
9d00a450:	018f6025 00065ac0 018e6025 00a72826     %`...Z..%`..&(..
9d00a460:	00ae2824 254fffff 2de107fe 10200047     $(....O%...-G. .
9d00a470:	00000000                                ....

9d00a474 <Clab1>:
9d00a474:	25afffff 	addiu	t7,t5,-1
9d00a478:	2de107fe 	sltiu	at,t7,2046
9d00a47c:	1020006f 	beqz	at,9d00a63c <CspecB>
9d00a480:	00000000 	nop

9d00a484 <Clab2>:
9d00a484:	25affc02 	addiu	t7,t5,-1022
9d00a488:	014f5021 	addu	t2,t2,t7
9d00a48c:	012c0019 	multu	t1,t4
9d00a490:	00003812 	mflo	a3
9d00a494:	00007010 	mfhi	t6
9d00a498:	010b0019 	multu	t0,t3
9d00a49c:	00002012 	mflo	a0
9d00a4a0:	00003010 	mfhi	a2
9d00a4a4:	012b0019 	multu	t1,t3
9d00a4a8:	00005812 	mflo	t3
9d00a4ac:	00006810 	mfhi	t5
9d00a4b0:	00cb3021 	addu	a2,a2,t3
9d00a4b4:	00cb782b 	sltu	t7,a2,t3
9d00a4b8:	00ed3821 	addu	a3,a3,t5
9d00a4bc:	00ef3821 	addu	a3,a3,t7
9d00a4c0:	10ed0002 	beq	a3,t5,9d00a4cc <L20>
9d00a4c4:	00000000 	nop
9d00a4c8:	00ed782b 	sltu	t7,a3,t5

9d00a4cc <L20>:
9d00a4cc:	01cf7021 	addu	t6,t6,t7
9d00a4d0:	010c0019 	multu	t0,t4
9d00a4d4:	00004012 	mflo	t0
9d00a4d8:	00004810 	mfhi	t1
9d00a4dc:	00c83021 	addu	a2,a2,t0
9d00a4e0:	00c8782b 	sltu	t7,a2,t0
9d00a4e4:	00e93821 	addu	a3,a3,t1
9d00a4e8:	00ef3821 	addu	a3,a3,t7
9d00a4ec:	10e90002 	beq	a3,t1,9d00a4f8 <L21>
9d00a4f0:	00000000 	nop
9d00a4f4:	00e9782b 	sltu	t7,a3,t1

9d00a4f8 <L21>:
9d00a4f8:	01cf7021 	addu	t6,t6,t7
9d00a4fc:	00867825 	or	t7,a0,a2
9d00a500:	11e00002 	beqz	t7,9d00a50c <i13>
9d00a504:	00000000 	nop
9d00a508:	34e70001 	ori	a3,a3,0x1

9d00a50c <i13>:
9d00a50c:	000e4825 	or	t1,zero,t6
9d00a510:	05200006 	bltz	t1,9d00a52c <i14>
9d00a514:	00074025 	or	t0,zero,a3
9d00a518:	0100782a 	slt	t7,t0,zero
9d00a51c:	01084021 	addu	t0,t0,t0
9d00a520:	01294821 	addu	t1,t1,t1
9d00a524:	012f4821 	addu	t1,t1,t7
9d00a528:	254affff 	addiu	t2,t2,-1

9d00a52c <i14>:
9d00a52c:	254fffff 	addiu	t7,t2,-1
9d00a530:	2de107fe 	sltiu	at,t7,2046
9d00a534:	10200068 	beqz	at,9d00a6d8 <Coveund>
9d00a538:	00000000 	nop
9d00a53c:	25080400 	addiu	t0,t0,1024
9d00a540:	2d0f0400 	sltiu	t7,t0,1024
9d00a544:	012f4821 	addu	t1,t1,t7
9d00a548:	012f782b 	sltu	t7,t1,t7
9d00a54c:	014f5021 	addu	t2,t2,t7

9d00a550 <Clab8>:
9d00a550:	00087ac2 	srl	t7,t0,0xb
9d00a554:	31ef0001 	andi	t7,t7,0x1
9d00a558:	010f4023 	subu	t0,t0,t7
9d00a55c:	000822c2 	srl	a0,t0,0xb
9d00a560:	00097d40 	sll	t7,t1,0x15
9d00a564:	008f2025 	or	a0,a0,t7
9d00a568:	00097840 	sll	t7,t1,0x1
9d00a56c:	000f7b02 	srl	t7,t7,0xc
9d00a570:	00af2825 	or	a1,a1,t7
9d00a574:	000a7d00 	sll	t7,t2,0x14
9d00a578:	00af2825 	or	a1,a1,t7

9d00a57c <Cret>:
9d00a57c:	00041025 	or	v0,zero,a0
9d00a580:	00051825 	or	v1,zero,a1

9d00a584 <C999>:
9d00a584:	03e00008 	jr	ra
9d00a588:	00000000 	nop

9d00a58c <CspecA>:
9d00a58c:	0100782a 	slt	t7,t0,zero
9d00a590:	01084021 	addu	t0,t0,t0
9d00a594:	01294821 	addu	t1,t1,t1
9d00a598:	1540001c 	bnez	t2,9d00a60c <i15>
9d00a59c:	012f4821 	addu	t1,t1,t7
9d00a5a0:	01287825 	or	t7,t1,t0
9d00a5a4:	11e00014 	beqz	t7,9d00a5f8 <i16>
9d00a5a8:	00000000 	nop
9d00a5ac:	15200008 	bnez	t1,9d00a5d0 <L22>
9d00a5b0:	00000000 	nop
9d00a5b4:	15000003 	bnez	t0,9d00a5c4 <L23>
9d00a5b8:	00000000 	nop
9d00a5bc:	1000ffad 	b	9d00a474 <Clab1>
9d00a5c0:	240a0000 	li	t2,0

9d00a5c4 <L23>:
9d00a5c4:	01004825 	move	t1,t0
9d00a5c8:	24080000 	li	t0,0
9d00a5cc:	254affe0 	addiu	t2,t2,-32

9d00a5d0 <L22>:
9d00a5d0:	712e7020 	clz	t6,t1
9d00a5d4:	11c0ffa7 	beqz	t6,9d00a474 <Clab1>
9d00a5d8:	00000000 	nop
9d00a5dc:	014e5023 	subu	t2,t2,t6
9d00a5e0:	000e3822 	neg	a3,t6
9d00a5e4:	00e83806 	srlv	a3,t0,a3
9d00a5e8:	01c84004 	sllv	t0,t0,t6
9d00a5ec:	01c94804 	sllv	t1,t1,t6
9d00a5f0:	1000ffa0 	b	9d00a474 <Clab1>
9d00a5f4:	01274825 	or	t1,t1,a3

9d00a5f8 <i16>:
9d00a5f8:	240107ff 	li	at,2047
9d00a5fc:	11a10033 	beq	t5,at,9d00a6cc <Cnan>
9d00a600:	00000000 	nop
9d00a604:	1000ffdd 	b	9d00a57c <Cret>
9d00a608:	00000000 	nop

9d00a60c <i15>:
9d00a60c:	01287825 	or	t7,t1,t0
9d00a610:	15e0002e 	bnez	t7,9d00a6cc <Cnan>
9d00a614:	00000000 	nop
9d00a618:	15a00005 	bnez	t5,9d00a630 <i17>
9d00a61c:	00000000 	nop
9d00a620:	000c7840 	sll	t7,t4,0x1
9d00a624:	01eb7825 	or	t7,t7,t3
9d00a628:	11e00028 	beqz	t7,9d00a6cc <Cnan>
9d00a62c:	00000000 	nop

9d00a630 <i17>:
9d00a630:	240107ff 	li	at,2047
9d00a634:	15a10021 	bne	t5,at,9d00a6bc <Cinf>
9d00a638:	00000000 	nop

9d00a63c <CspecB>:
9d00a63c:	0160782a 	slt	t7,t3,zero
9d00a640:	016b5821 	addu	t3,t3,t3
9d00a644:	018c6021 	addu	t4,t4,t4
9d00a648:	15a00019 	bnez	t5,9d00a6b0 <i18>
9d00a64c:	018f6021 	addu	t4,t4,t7
9d00a650:	018b7825 	or	t7,t4,t3
9d00a654:	11e00014 	beqz	t7,9d00a6a8 <i19>
9d00a658:	00000000 	nop
9d00a65c:	15800008 	bnez	t4,9d00a680 <L25>
9d00a660:	00000000 	nop
9d00a664:	15600003 	bnez	t3,9d00a674 <L26>
9d00a668:	00000000 	nop
9d00a66c:	1000ff85 	b	9d00a484 <Clab2>
9d00a670:	240d0000 	li	t5,0

9d00a674 <L26>:
9d00a674:	01606025 	move	t4,t3
9d00a678:	240b0000 	li	t3,0
9d00a67c:	25adffe0 	addiu	t5,t5,-32

9d00a680 <L25>:
9d00a680:	71863020 	clz	a2,t4
9d00a684:	10c0ff7f 	beqz	a2,9d00a484 <Clab2>
9d00a688:	00000000 	nop
9d00a68c:	01a66823 	subu	t5,t5,a2
9d00a690:	00067022 	neg	t6,a2
9d00a694:	01cb7006 	srlv	t6,t3,t6
9d00a698:	00cb5804 	sllv	t3,t3,a2
9d00a69c:	00cc6004 	sllv	t4,t4,a2
9d00a6a0:	1000ff78 	b	9d00a484 <Clab2>
9d00a6a4:	018e6025 	or	t4,t4,t6

9d00a6a8 <i19>:
9d00a6a8:	1000ffb4 	b	9d00a57c <Cret>
9d00a6ac:	24040000 	li	a0,0

9d00a6b0 <i18>:
9d00a6b0:	018b7825 	or	t7,t4,t3
9d00a6b4:	15e00005 	bnez	t7,9d00a6cc <Cnan>
9d00a6b8:	00000000 	nop

9d00a6bc <Cinf>:
9d00a6bc:	3c017ff0 	lui	at,0x7ff0
9d00a6c0:	00a12825 	or	a1,a1,at
9d00a6c4:	1000ffad 	b	9d00a57c <Cret>
9d00a6c8:	24040000 	li	a0,0

9d00a6cc <Cnan>:
9d00a6cc:	3c05fff8 	lui	a1,0xfff8
9d00a6d0:	1000ffaa 	b	9d00a57c <Cret>
9d00a6d4:	24040000 	li	a0,0

9d00a6d8 <Coveund>:
9d00a6d8:	1d40fff8 	bgtz	t2,9d00a6bc <Cinf>
9d00a6dc:	00000000 	nop
9d00a6e0:	240e0001 	li	t6,1
9d00a6e4:	01ca7023 	subu	t6,t6,t2

9d00a6e8 <L28>:
9d00a6e8:	2dc10020 	sltiu	at,t6,32
9d00a6ec:	14200007 	bnez	at,9d00a70c <L29>
9d00a6f0:	00000000 	nop
9d00a6f4:	21ceffe0 	addi	t6,t6,-32
9d00a6f8:	0008302b 	sltu	a2,zero,t0
9d00a6fc:	1009000d 	beq	zero,t1,9d00a734 <L30>
9d00a700:	01264025 	or	t0,t1,a2
9d00a704:	1000fff8 	b	9d00a6e8 <L28>
9d00a708:	34090000 	li	t1,0x0

9d00a70c <L29>:
9d00a70c:	11c00009 	beqz	t6,9d00a734 <L30>
9d00a710:	00000000 	nop
9d00a714:	000e3822 	neg	a3,t6
9d00a718:	00e83004 	sllv	a2,t0,a3
9d00a71c:	00e93804 	sllv	a3,t1,a3
9d00a720:	01c84006 	srlv	t0,t0,t6
9d00a724:	01c94806 	srlv	t1,t1,t6
9d00a728:	10c00002 	beqz	a2,9d00a734 <L30>
9d00a72c:	00e84025 	or	t0,a3,t0
9d00a730:	35080002 	ori	t0,t0,0x2

9d00a734 <L30>:
9d00a734:	25080400 	addiu	t0,t0,1024
9d00a738:	2d0f0400 	sltiu	t7,t0,1024
9d00a73c:	012f4821 	addu	t1,t1,t7
9d00a740:	1000ff83 	b	9d00a550 <Clab8>
9d00a744:	000957c2 	srl	t2,t1,0x1f
9d00a748:	00000000 	nop

Disassembly of section .text.fpsubadd:

9d00a74c <__subsf3>:
9d00a74c:	3c018000 00a12826                       ...<&(..

9d00a754 <__addsf3>:
9d00a754:	00044dc2 312900ff 00055dc2 316b00ff     .M....)1.]....k1
9d00a764:	3c078000 00044200 01074025 00055200     ...<.B..%@...R..
9d00a774:	01475025 252dffff 2da100fe 10200061     %PG...-%...-a. .
9d00a784:	00000000                                ....

9d00a788 <Blab1>:
9d00a788:	256dffff 	addiu	t5,t3,-1
9d00a78c:	2da100fe 	sltiu	at,t5,254
9d00a790:	10200077 	beqz	at,9d00a970 <BspecB>
9d00a794:	00000000 	nop

9d00a798 <Blab2>:
9d00a798:	012b6023 	subu	t4,t1,t3
9d00a79c:	0580000d 	bltz	t4,9d00a7d4 <i1>
9d00a7a0:	00000000 	nop
9d00a7a4:	29810020 	slti	at,t4,32
9d00a7a8:	14200003 	bnez	at,9d00a7b8 <i2>
9d00a7ac:	00000000 	nop
9d00a7b0:	10000015 	b	9d00a808 <e1>
9d00a7b4:	240a0002 	li	t2,2

9d00a7b8 <i2>:
9d00a7b8:	000a3025 	or	a2,zero,t2
9d00a7bc:	018a5006 	srlv	t2,t2,t4
9d00a7c0:	018a6804 	sllv	t5,t2,t4
9d00a7c4:	11a60010 	beq	t5,a2,9d00a808 <e1>
9d00a7c8:	00000000 	nop
9d00a7cc:	1000000e 	b	9d00a808 <e1>
9d00a7d0:	354a0002 	ori	t2,t2,0x2

9d00a7d4 <i1>:
9d00a7d4:	000b4825 	or	t1,zero,t3
9d00a7d8:	000c6023 	negu	t4,t4
9d00a7dc:	29810020 	slti	at,t4,32
9d00a7e0:	14200003 	bnez	at,9d00a7f0 <i4>
9d00a7e4:	00000000 	nop
9d00a7e8:	10000007 	b	9d00a808 <e1>
9d00a7ec:	24080002 	li	t0,2

9d00a7f0 <i4>:
9d00a7f0:	00083025 	or	a2,zero,t0
9d00a7f4:	01884006 	srlv	t0,t0,t4
9d00a7f8:	01886804 	sllv	t5,t0,t4
9d00a7fc:	11a60002 	beq	t5,a2,9d00a808 <e1>
9d00a800:	00000000 	nop
9d00a804:	35080002 	ori	t0,t0,0x2

9d00a808 <e1>:
9d00a808:	00876024 	and	t4,a0,a3
9d00a80c:	01856826 	xor	t5,t4,a1
9d00a810:	05a00010 	bltz	t5,9d00a854 <Bsub1>
9d00a814:	00000000 	nop
9d00a818:	010a4021 	addu	t0,t0,t2
9d00a81c:	010a682b 	sltu	t5,t0,t2
9d00a820:	11a00017 	beqz	t5,9d00a880 <Bres>
9d00a824:	00000000 	nop
9d00a828:	310d0001 	andi	t5,t0,0x1
9d00a82c:	11a00002 	beqz	t5,9d00a838 <i7>
9d00a830:	00000000 	nop
9d00a834:	35080002 	ori	t0,t0,0x2

9d00a838 <i7>:
9d00a838:	00084042 	srl	t0,t0,0x1
9d00a83c:	25290001 	addiu	t1,t1,1
9d00a840:	240100ff 	li	at,255
9d00a844:	1521000e 	bne	t1,at,9d00a880 <Bres>
9d00a848:	00000000 	nop
9d00a84c:	1000000c 	b	9d00a880 <Bres>
9d00a850:	24080000 	li	t0,0

9d00a854 <Bsub1>:
9d00a854:	010a682b 	sltu	t5,t0,t2
9d00a858:	11a00004 	beqz	t5,9d00a86c <i9>
9d00a85c:	010a4023 	subu	t0,t0,t2
9d00a860:	00084023 	negu	t0,t0
9d00a864:	10000003 	b	9d00a874 <e9>
9d00a868:	01876026 	xor	t4,t4,a3

9d00a86c <i9>:
9d00a86c:	11000050 	beqz	t0,9d00a9b0 <Bzer>
9d00a870:	00000000 	nop

9d00a874 <e9>:
9d00a874:	71063020 	clz	a2,t0
9d00a878:	01264823 	subu	t1,t1,a2
9d00a87c:	00c84004 	sllv	t0,t0,a2

9d00a880 <Bres>:
9d00a880:	1920000e 	blez	t1,9d00a8bc <Bund>
9d00a884:	00000000 	nop

9d00a888 <Blab12>:
9d00a888:	25080080 	addiu	t0,t0,128
9d00a88c:	2d0d0080 	sltiu	t5,t0,128
9d00a890:	012d4821 	addu	t1,t1,t5
9d00a894:	00086a02 	srl	t5,t0,0x8
9d00a898:	31ad0001 	andi	t5,t5,0x1
9d00a89c:	010d4023 	subu	t0,t0,t5
9d00a8a0:	00084040 	sll	t0,t0,0x1
9d00a8a4:	00084242 	srl	t0,t0,0x9
9d00a8a8:	00096dc0 	sll	t5,t1,0x17
9d00a8ac:	010d4025 	or	t0,t0,t5
9d00a8b0:	010c1025 	or	v0,t0,t4

9d00a8b4 <B999>:
9d00a8b4:	03e00008 	jr	ra
9d00a8b8:	00000000 	nop

9d00a8bc <Bund>:
9d00a8bc:	24060001 	li	a2,1
9d00a8c0:	00c93023 	subu	a2,a2,t1
9d00a8c4:	2cc10020 	sltiu	at,a2,32
9d00a8c8:	10200039 	beqz	at,9d00a9b0 <Bzer>
9d00a8cc:	00000000 	nop
9d00a8d0:	3c018000 	lui	at,0x8000
9d00a8d4:	01014025 	or	t0,t0,at
9d00a8d8:	240d0020 	li	t5,32
9d00a8dc:	01a66823 	subu	t5,t5,a2
9d00a8e0:	01a84804 	sllv	t1,t0,t5
9d00a8e4:	11200002 	beqz	t1,9d00a8f0 <i10>
9d00a8e8:	00c84006 	srlv	t0,t0,a2
9d00a8ec:	35080001 	ori	t0,t0,0x1

9d00a8f0 <i10>:
9d00a8f0:	24090000 	li	t1,0
9d00a8f4:	250d0080 	addiu	t5,t0,128
9d00a8f8:	05a1ffe3 	bgez	t5,9d00a888 <Blab12>
9d00a8fc:	00000000 	nop
9d00a900:	1000ffe1 	b	9d00a888 <Blab12>
9d00a904:	24090001 	li	t1,1

9d00a908 <BspecA>:
9d00a908:	1520000e 	bnez	t1,9d00a944 <i12>
9d00a90c:	00000000 	nop
9d00a910:	01084021 	addu	t0,t0,t0
9d00a914:	11000005 	beqz	t0,9d00a92c <i13>
9d00a918:	00000000 	nop
9d00a91c:	710c6020 	clz	t4,t0
9d00a920:	012c4823 	subu	t1,t1,t4
9d00a924:	1000ff98 	b	9d00a788 <Blab1>
9d00a928:	01884004 	sllv	t0,t0,t4

9d00a92c <i13>:
9d00a92c:	240100ff 	li	at,255
9d00a930:	1161000f 	beq	t3,at,9d00a970 <BspecB>
9d00a934:	00000000 	nop
9d00a938:	3c018000 	lui	at,0x8000
9d00a93c:	14a10018 	bne	a1,at,9d00a9a0 <BretB>
9d00a940:	00000000 	nop

9d00a944 <i12>:
9d00a944:	01086821 	addu	t5,t0,t0
9d00a948:	15a0001b 	bnez	t5,9d00a9b8 <Bnan>
9d00a94c:	00000000 	nop
9d00a950:	240100ff 	li	at,255
9d00a954:	15610014 	bne	t3,at,9d00a9a8 <BretA>
9d00a958:	00000000 	nop
9d00a95c:	00856826 	xor	t5,a0,a1
9d00a960:	05a00015 	bltz	t5,9d00a9b8 <Bnan>
9d00a964:	00000000 	nop
9d00a968:	1000000d 	b	9d00a9a0 <BretB>
9d00a96c:	00000000 	nop

9d00a970 <BspecB>:
9d00a970:	15600008 	bnez	t3,9d00a994 <i15>
9d00a974:	00000000 	nop
9d00a978:	014a5021 	addu	t2,t2,t2
9d00a97c:	1140000a 	beqz	t2,9d00a9a8 <BretA>
9d00a980:	00000000 	nop
9d00a984:	714c6020 	clz	t4,t2
9d00a988:	016c5823 	subu	t3,t3,t4
9d00a98c:	1000ff82 	b	9d00a798 <Blab2>
9d00a990:	018a5004 	sllv	t2,t2,t4

9d00a994 <i15>:
9d00a994:	014a6821 	addu	t5,t2,t2
9d00a998:	15a00007 	bnez	t5,9d00a9b8 <Bnan>
9d00a99c:	00000000 	nop

9d00a9a0 <BretB>:
9d00a9a0:	1000ffc4 	b	9d00a8b4 <B999>
9d00a9a4:	00051025 	or	v0,zero,a1

9d00a9a8 <BretA>:
9d00a9a8:	1000ffc2 	b	9d00a8b4 <B999>
9d00a9ac:	00041025 	or	v0,zero,a0

9d00a9b0 <Bzer>:
9d00a9b0:	1000ffc0 	b	9d00a8b4 <B999>
9d00a9b4:	24020000 	li	v0,0

9d00a9b8 <Bnan>:
9d00a9b8:	1000ffbe 	b	9d00a8b4 <B999>
9d00a9bc:	3c02ffc0 	lui	v0,0xffc0
9d00a9c0:	00000000 	nop

Disassembly of section .text.fp32div:

9d00a9c4 <__divsf3>:
9d00a9c4:	3c0b8000 000445c2 310800ff 000555c2     ...<.E.....1.U..
9d00a9d4:	314a00ff 00043a00 00eb3825 00054a00     ..J1.:..%8...J..
9d00a9e4:	012b4825 00857026 016e5824 250effff     %H+.&p..$Xn....%
9d00a9f4:	2dc100fe 1020003f 00000000              ...-?. .....

9d00aa00 <Dlab1>:
9d00aa00:	254effff 	addiu	t6,t2,-1
9d00aa04:	2dc100fe 	sltiu	at,t6,254
9d00aa08:	10200053 	beqz	at,9d00ab58 <DspecB>
9d00aa0c:	00000000 	nop

9d00aa10 <Dlab2>:
9d00aa10:	00e9082b 	sltu	at,a3,t1
9d00aa14:	14200003 	bnez	at,9d00aa24 <i27>
9d00aa18:	00000000 	nop
9d00aa1c:	00073842 	srl	a3,a3,0x1
9d00aa20:	25080001 	addiu	t0,t0,1

9d00aa24 <i27>:
9d00aa24:	00096382 	srl	t4,t1,0xe
9d00aa28:	018001f4 	teq	t4,zero,0x7
9d00aa2c:	00ec001b 	divu	zero,a3,t4
9d00aa30:	00002012 	mflo	a0
9d00aa34:	00003010 	mfhi	a2
9d00aa38:	312d3fff 	andi	t5,t1,0x3fff
9d00aa3c:	01a40019 	multu	t5,a0
9d00aa40:	00002812 	mflo	a1
9d00aa44:	00063380 	sll	a2,a2,0xe
9d00aa48:	00c5702b 	sltu	t6,a2,a1
9d00aa4c:	11c00004 	beqz	t6,9d00aa60 <i28>
9d00aa50:	00c53023 	subu	a2,a2,a1
9d00aa54:	2484ffff 	addiu	a0,a0,-1
9d00aa58:	00c93021 	addu	a2,a2,t1
9d00aa5c:	00c9702b 	sltu	t6,a2,t1

9d00aa60 <i28>:
9d00aa60:	018001f4 	teq	t4,zero,0x7
9d00aa64:	00cc001b 	divu	zero,a2,t4
9d00aa68:	00003812 	mflo	a3
9d00aa6c:	00003010 	mfhi	a2
9d00aa70:	01a70019 	multu	t5,a3
9d00aa74:	00002812 	mflo	a1
9d00aa78:	00063380 	sll	a2,a2,0xe
9d00aa7c:	00c5702b 	sltu	t6,a2,a1
9d00aa80:	11c00004 	beqz	t6,9d00aa94 <i29>
9d00aa84:	00c53023 	subu	a2,a2,a1
9d00aa88:	24e7ffff 	addiu	a3,a3,-1
9d00aa8c:	00c93021 	addu	a2,a2,t1
9d00aa90:	00c9702b 	sltu	t6,a2,t1

9d00aa94 <i29>:
9d00aa94:	00047380 	sll	t6,a0,0xe
9d00aa98:	00ee3821 	addu	a3,a3,t6
9d00aa9c:	10c00002 	beqz	a2,9d00aaa8 <i30>
9d00aaa0:	00073900 	sll	a3,a3,0x4
9d00aaa4:	34e70001 	ori	a3,a3,0x1

9d00aaa8 <i30>:
9d00aaa8:	240e007e 	li	t6,126
9d00aaac:	01ca7023 	subu	t6,t6,t2
9d00aab0:	010e4021 	addu	t0,t0,t6
9d00aab4:	250effff 	addiu	t6,t0,-1
9d00aab8:	2dc100fe 	sltiu	at,t6,254
9d00aabc:	10200034 	beqz	at,9d00ab90 <Doveund>
9d00aac0:	00000000 	nop

9d00aac4 <Dlab8>:
9d00aac4:	24e70080 	addiu	a3,a3,128
9d00aac8:	2cee0080 	sltiu	t6,a3,128
9d00aacc:	010e4021 	addu	t0,t0,t6
9d00aad0:	00077202 	srl	t6,a3,0x8
9d00aad4:	31ce0001 	andi	t6,t6,0x1
9d00aad8:	00ee3823 	subu	a3,a3,t6
9d00aadc:	00073840 	sll	a3,a3,0x1
9d00aae0:	00073a42 	srl	a3,a3,0x9
9d00aae4:	000875c0 	sll	t6,t0,0x17
9d00aae8:	00ee3825 	or	a3,a3,t6
9d00aaec:	00eb1025 	or	v0,a3,t3

9d00aaf0 <D999>:
9d00aaf0:	03e00008 	jr	ra
9d00aaf4:	00000000 	nop

9d00aaf8 <DspecA>:
9d00aaf8:	15000008 	bnez	t0,9d00ab1c <i31>
9d00aafc:	00000000 	nop
9d00ab00:	00e73821 	addu	a3,a3,a3
9d00ab04:	10e00005 	beqz	a3,9d00ab1c <i31>
9d00ab08:	00000000 	nop
9d00ab0c:	70ec6020 	clz	t4,a3
9d00ab10:	010c4023 	subu	t0,t0,t4
9d00ab14:	1000ffba 	b	9d00aa00 <Dlab1>
9d00ab18:	01873804 	sllv	a3,a3,t4

9d00ab1c <i31>:
9d00ab1c:	15480004 	bne	t2,t0,9d00ab30 <i33>
9d00ab20:	00000000 	nop
9d00ab24:	01297021 	addu	t6,t1,t1
9d00ab28:	11c0002f 	beqz	t6,9d00abe8 <Dnan>
9d00ab2c:	00000000 	nop

9d00ab30 <i33>:
9d00ab30:	240100ff 	li	at,255
9d00ab34:	11410008 	beq	t2,at,9d00ab58 <DspecB>
9d00ab38:	00000000 	nop
9d00ab3c:	11000012 	beqz	t0,9d00ab88 <Dzer>
9d00ab40:	00000000 	nop
9d00ab44:	00e77021 	addu	t6,a3,a3
9d00ab48:	15c00027 	bnez	t6,9d00abe8 <Dnan>
9d00ab4c:	00000000 	nop
9d00ab50:	10000022 	b	9d00abdc <Dinf>
9d00ab54:	00000000 	nop

9d00ab58 <DspecB>:
9d00ab58:	15400008 	bnez	t2,9d00ab7c <i34>
9d00ab5c:	00000000 	nop
9d00ab60:	01294821 	addu	t1,t1,t1
9d00ab64:	1120001d 	beqz	t1,9d00abdc <Dinf>
9d00ab68:	00000000 	nop
9d00ab6c:	712c6020 	clz	t4,t1
9d00ab70:	014c5023 	subu	t2,t2,t4
9d00ab74:	1000ffa6 	b	9d00aa10 <Dlab2>
9d00ab78:	01894804 	sllv	t1,t1,t4

9d00ab7c <i34>:
9d00ab7c:	01297021 	addu	t6,t1,t1
9d00ab80:	15c00019 	bnez	t6,9d00abe8 <Dnan>
9d00ab84:	00000000 	nop

9d00ab88 <Dzer>:
9d00ab88:	1000ffd9 	b	9d00aaf0 <D999>
9d00ab8c:	000b1025 	or	v0,zero,t3

9d00ab90 <Doveund>:
9d00ab90:	1d000012 	bgtz	t0,9d00abdc <Dinf>
9d00ab94:	00000000 	nop
9d00ab98:	240c0001 	li	t4,1
9d00ab9c:	01886023 	subu	t4,t4,t0
9d00aba0:	2d810020 	sltiu	at,t4,32
9d00aba4:	1020fff8 	beqz	at,9d00ab88 <Dzer>
9d00aba8:	00000000 	nop
9d00abac:	240e0020 	li	t6,32
9d00abb0:	01cc7023 	subu	t6,t6,t4
9d00abb4:	01c74004 	sllv	t0,a3,t6
9d00abb8:	11000002 	beqz	t0,9d00abc4 <i37>
9d00abbc:	01873806 	srlv	a3,a3,t4
9d00abc0:	34e70002 	ori	a3,a3,0x2

9d00abc4 <i37>:
9d00abc4:	24080000 	li	t0,0
9d00abc8:	24ee0080 	addiu	t6,a3,128
9d00abcc:	05c1ffbd 	bgez	t6,9d00aac4 <Dlab8>
9d00abd0:	00000000 	nop
9d00abd4:	1000ffbb 	b	9d00aac4 <Dlab8>
9d00abd8:	24080001 	li	t0,1

9d00abdc <Dinf>:
9d00abdc:	3c017f80 	lui	at,0x7f80
9d00abe0:	1000ffc3 	b	9d00aaf0 <D999>
9d00abe4:	01611025 	or	v0,t3,at

9d00abe8 <Dnan>:
9d00abe8:	1000ffc1 	b	9d00aaf0 <D999>
9d00abec:	3c02ffc0 	lui	v0,0xffc0
9d00abf0:	00000000 	nop

Disassembly of section .text.__fmt_x:

9d00abf4 <__fmt_x>:
9d00abf4:	8ca20004 	lw	v0,4(a1)
9d00abf8:	27bdffa8 	addiu	sp,sp,-88
9d00abfc:	afb60048 	sw	s6,72(sp)
9d00ac00:	afb3003c 	sw	s3,60(sp)
9d00ac04:	afb20038 	sw	s2,56(sp)
9d00ac08:	afbf0054 	sw	ra,84(sp)
9d00ac0c:	afbe0050 	sw	s8,80(sp)
9d00ac10:	afb7004c 	sw	s7,76(sp)
9d00ac14:	afb50044 	sw	s5,68(sp)
9d00ac18:	afb40040 	sw	s4,64(sp)
9d00ac1c:	afb10034 	sw	s1,52(sp)
9d00ac20:	afb00030 	sw	s0,48(sp)
9d00ac24:	00809825 	move	s3,a0
9d00ac28:	00a09025 	move	s2,a1
9d00ac2c:	00e04025 	move	t0,a3
9d00ac30:	0440004d 	bltz	v0,9d00ad68 <__fmt_x+0x174>
9d00ac34:	8cb60000 	lw	s6,0(a1)
9d00ac38:	7c160844 	ins	s6,zero,0x1,0x1
9d00ac3c:	8e470008 	lw	a3,8(s2)
9d00ac40:	32c90010 	andi	t1,s6,0x10
9d00ac44:	8cd40000 	lw	s4,0(a2)
9d00ac48:	8cd70004 	lw	s7,4(a2)
9d00ac4c:	11200004 	beqz	t1,9d00ac60 <__fmt_x+0x6c>
9d00ac50:	00e08825 	move	s1,a3
9d00ac54:	02971825 	or	v1,s4,s7
9d00ac58:	54600001 	bnezl	v1,9d00ac60 <__fmt_x+0x6c>
9d00ac5c:	24f1fffe 	addiu	s1,a3,-2
9d00ac60:	32ca0008 	andi	t2,s6,0x8
9d00ac64:	55400001 	bnezl	t2,9d00ac6c <__fmt_x+0x78>
9d00ac68:	2631ffff 	addiu	s1,s1,-1
9d00ac6c:	8e500010 	lw	s0,16(s2)
9d00ac70:	8e55000c 	lw	s5,12(s2)
9d00ac74:	251effbf 	addiu	s8,t0,-65
9d00ac78:	2610ffff 	addiu	s0,s0,-1
9d00ac7c:	02b01821 	addu	v1,s5,s0
9d00ac80:	a0600000 	sb	zero,0(v1)
9d00ac84:	00512823 	subu	a1,v0,s1
9d00ac88:	32cb0002 	andi	t3,s6,0x2
9d00ac8c:	2fde001a 	sltiu	s8,s8,26
9d00ac90:	2a020002 	slti	v0,s0,2
9d00ac94:	1440000a 	bnez	v0,9d00acc0 <__fmt_x+0xcc>
9d00ac98:	02971025 	or	v0,s4,s7
9d00ac9c:	14400034 	bnez	v0,9d00ad70 <__fmt_x+0x17c>
9d00aca0:	3283000f 	andi	v1,s4,0xf
9d00aca4:	00b11021 	addu	v0,a1,s1
9d00aca8:	1c400032 	bgtz	v0,9d00ad74 <__fmt_x+0x180>
9d00acac:	2864000a 	slti	a0,v1,10
9d00acb0:	1a200003 	blez	s1,9d00acc0 <__fmt_x+0xcc>
9d00acb4:	00000000 	nop
9d00acb8:	1560002e 	bnez	t3,9d00ad74 <__fmt_x+0x180>
9d00acbc:	00000000 	nop
9d00acc0:	1120000b 	beqz	t1,9d00acf0 <__fmt_x+0xfc>
9d00acc4:	00000000 	nop
9d00acc8:	8cc20000 	lw	v0,0(a2)
9d00accc:	8cc30004 	lw	v1,4(a2)
9d00acd0:	00431025 	or	v0,v0,v1
9d00acd4:	10400006 	beqz	v0,9d00acf0 <__fmt_x+0xfc>
9d00acd8:	02b01021 	addu	v0,s5,s0
9d00acdc:	2610fffe 	addiu	s0,s0,-2
9d00ace0:	a048ffff 	sb	t0,-1(v0)
9d00ace4:	24030030 	li	v1,48
9d00ace8:	02b01021 	addu	v0,s5,s0
9d00acec:	a0430000 	sb	v1,0(v0)
9d00acf0:	11400004 	beqz	t2,9d00ad04 <__fmt_x+0x110>
9d00acf4:	24030020 	li	v1,32
9d00acf8:	2610ffff 	addiu	s0,s0,-1
9d00acfc:	02b01021 	addu	v0,s5,s0
9d00ad00:	a0430000 	sb	v1,0(v0)
9d00ad04:	8e460010 	lw	a2,16(s2)
9d00ad08:	afb60010 	sw	s6,16(sp)
9d00ad0c:	02b02821 	addu	a1,s5,s0
9d00ad10:	24c6ffff 	addiu	a2,a2,-1
9d00ad14:	00d03023 	subu	a2,a2,s0
9d00ad18:	0f402f0e 	jal	9d00bc38 <__pad>
9d00ad1c:	02602025 	move	a0,s3
9d00ad20:	8e630004 	lw	v1,4(s3)
9d00ad24:	30630100 	andi	v1,v1,0x100
9d00ad28:	10600004 	beqz	v1,9d00ad3c <__fmt_x+0x148>
9d00ad2c:	8fbf0054 	lw	ra,84(sp)
9d00ad30:	8e430004 	lw	v1,4(s2)
9d00ad34:	0043202a 	slt	a0,v0,v1
9d00ad38:	0064100b 	movn	v0,v1,a0
9d00ad3c:	8fbe0050 	lw	s8,80(sp)
9d00ad40:	8fb7004c 	lw	s7,76(sp)
9d00ad44:	8fb60048 	lw	s6,72(sp)
9d00ad48:	8fb50044 	lw	s5,68(sp)
9d00ad4c:	8fb40040 	lw	s4,64(sp)
9d00ad50:	8fb3003c 	lw	s3,60(sp)
9d00ad54:	8fb20038 	lw	s2,56(sp)
9d00ad58:	8fb10034 	lw	s1,52(sp)
9d00ad5c:	8fb00030 	lw	s0,48(sp)
9d00ad60:	03e00008 	jr	ra
9d00ad64:	27bd0058 	addiu	sp,sp,88
9d00ad68:	1000ffb4 	b	9d00ac3c <__fmt_x+0x48>
9d00ad6c:	24020001 	li	v0,1
9d00ad70:	2864000a 	slti	a0,v1,10
9d00ad74:	10800002 	beqz	a0,9d00ad80 <__fmt_x+0x18c>
9d00ad78:	24620057 	addiu	v0,v1,87
9d00ad7c:	24620030 	addiu	v0,v1,48
9d00ad80:	13c00015 	beqz	s8,9d00add8 <__fmt_x+0x1e4>
9d00ad84:	34430020 	ori	v1,v0,0x20
9d00ad88:	2463ff9f 	addiu	v1,v1,-97
9d00ad8c:	2c63001a 	sltiu	v1,v1,26
9d00ad90:	50600012 	beqzl	v1,9d00addc <__fmt_x+0x1e8>
9d00ad94:	2610ffff 	addiu	s0,s0,-1
9d00ad98:	00402025 	move	a0,v0
9d00ad9c:	afab0028 	sw	t3,40(sp)
9d00ada0:	afa50024 	sw	a1,36(sp)
9d00ada4:	afa80064 	sw	t0,100(sp)
9d00ada8:	afa60060 	sw	a2,96(sp)
9d00adac:	afa70020 	sw	a3,32(sp)
9d00adb0:	afaa001c 	sw	t2,28(sp)
9d00adb4:	0f403395 	jal	9d00ce54 <toupper>
9d00adb8:	afa90018 	sw	t1,24(sp)
9d00adbc:	8fab0028 	lw	t3,40(sp)
9d00adc0:	8fa50024 	lw	a1,36(sp)
9d00adc4:	8fa80064 	lw	t0,100(sp)
9d00adc8:	8fa60060 	lw	a2,96(sp)
9d00adcc:	8fa70020 	lw	a3,32(sp)
9d00add0:	8faa001c 	lw	t2,28(sp)
9d00add4:	8fa90018 	lw	t1,24(sp)
9d00add8:	2610ffff 	addiu	s0,s0,-1
9d00addc:	02b01821 	addu	v1,s5,s0
9d00ade0:	a0620000 	sb	v0,0(v1)
9d00ade4:	0014a102 	srl	s4,s4,0x4
9d00ade8:	00171700 	sll	v0,s7,0x1c
9d00adec:	2631ffff 	addiu	s1,s1,-1
9d00adf0:	0054a025 	or	s4,v0,s4
9d00adf4:	1000ffa6 	b	9d00ac90 <__fmt_x+0x9c>
9d00adf8:	0017b902 	srl	s7,s7,0x4

Disassembly of section .rodata:

9d00adfc <ASCII>:
9d00adfc:	00000000 5f000000 07000000 14000700     ......._........
9d00ae0c:	147f147f 2a7f2a24 08132312 49366264     ....$*.*.#..db6I
9d00ae1c:	00502255 00000305 41221c00 22410000     U"P......."A..A"
9d00ae2c:	0814001c 0814083e 08083e08 00305000     ....>....>...P0.
9d00ae3c:	08080800 60000808 20000060 02040810     .......``.. ....
9d00ae4c:	4549513e 7f42003e 61420040 21464951     >QIE>.B.@.BaQIF!
9d00ae5c:	314b4541 7f121418 45452710 4a3c3945     AEK1.....'EEE9<J
9d00ae6c:	01304949 03050971 49494936 49490636     II0.q...6III6.II
9d00ae7c:	36001e29 00000036 00003656 41221408     )..66...V6...."A
9d00ae8c:	14141400 41001414 02081422 06095101     .......A"....Q..
9d00ae9c:	41794932 11117e3e 497f7e11 3e364949     2IyA>~...~.III6>
9d00aeac:	22414141 2241417f 49497f1c 097f4149     AAA".AA"..IIIA..
9d00aebc:	3e010909 7a494941 0808087f 7f41007f     ...>AIIz......A.
9d00aecc:	40200041 7f013f41 41221408 4040407f     A. @A?...."A.@@@
9d00aedc:	0c027f40 047f7f02 3e7f1008 3e414141     @..........>AAA>
9d00aeec:	0909097f 51413e06 097f5e21 46462919     .....>AQ!^...)FF
9d00aefc:	31494949 017f0101 40403f01 201f3f40     III1.....?@@@?. 
9d00af0c:	3f1f2040 3f403840 14081463 70080763     @ .?@8@?c...c..p
9d00af1c:	51610708 00434549 0041417f 10080402     ..aQIEC..AA.....
9d00af2c:	41410020 0204007f 40040201 40404040      .AA.......@@@@@
9d00af3c:	04020100 54542000 487f7854 38384444     ..... TTTx.HDD88
9d00af4c:	20444444 48444438 5454387f 7e081854     DDD 8DDH.8TTT..~
9d00af5c:	0c020109 3e525252 0404087f 7d440078     ....RRR>....x.D}
9d00af6c:	40200040 7f003d44 00442810 407f4100     @. @D=...(D..A.@
9d00af7c:	18047c00 087c7804 38780404 38444444     .|...x|...x8DDD8
9d00af8c:	1414147c 14140808 087c7c18 48080404     |........||....H
9d00af9c:	20545454 40443f04 40403c20 201c7c20     TTT .?D@ <@@ |. 
9d00afac:	3c1c2040 3c403040 28102844 50500c44     @ .<@0@<D(.(D.PP
9d00afbc:	64443c50 00444c54 00413608 007f0000     P<DdTLD..6A.....
9d00afcc:	36410000 08100008 00081008 06090906     ..A6............

Disassembly of section .text:

9d00afdc <main>:

void blink(int, int); // blink the LEDs function
void drawString(char*, unsigned char, unsigned char);
void delay(void);

int main(void) {
9d00afdc:	27bdfef8 	addiu	sp,sp,-264
9d00afe0:	afbf0104 	sw	ra,260(sp)
9d00afe4:	afb30100 	sw	s3,256(sp)
9d00afe8:	afb200fc 	sw	s2,252(sp)
9d00afec:	afb100f8 	sw	s1,248(sp)
    NU32DIP_Startup(); // cache on, interrupts on, LED/button init, 
9d00aff0:	0f402c68 	jal	9d00b1a0 <NU32DIP_Startup>
9d00aff4:	afb000f4 	sw	s0,244(sp)
    init_mpu6050();
9d00aff8:	0f4023f3 	jal	9d008fcc <init_mpu6050>
9d00affc:	00000000 	nop
    ssd1306_setup();
9d00b000:	0f40287f 	jal	9d00a1fc <ssd1306_setup>
9d00b004:	00000000 	nop
    float fps; 


    //read whoami
    unsigned char who;
    who = whoami(); 
9d00b008:	0f402394 	jal	9d008e50 <whoami>
9d00b00c:	00000000 	nop
9d00b010:	00408025 	move	s0,v0

	// print whoami
    char message[100];
    sprintf(message, "0x%X\r\n", who);
9d00b014:	00403025 	move	a2,v0
9d00b018:	3c059d00 	lui	a1,0x9d00
9d00b01c:	24a57490 	addiu	a1,a1,29840
9d00b020:	0f403359 	jal	9d00cd64 <_dsprintf_cdeEfFgGnopuxX>
9d00b024:	27a40088 	addiu	a0,sp,136
    NU32DIP_WriteUART1(message);
9d00b028:	0f402cc9 	jal	9d00b324 <NU32DIP_WriteUART1>
9d00b02c:	27a40088 	addiu	a0,sp,136
	// if whoami is not 0x68, stuck in loop with LEDs on
    if (who != 0x68){
9d00b030:	24020068 	li	v0,104
9d00b034:	16020034 	bne	s0,v0,9d00b108 <main+0x12c>
9d00b038:	3c119d00 	lui	s1,0x9d00
    while (1) {
        _CP0_SET_COUNT(0);
        burst_read_mpu6050(data);
		// convert data
        az = conv_zXL(data);
        sprintf(accel, "Z acc: %.2f", az);
9d00b03c:	26317498 	addiu	s1,s1,29848
        drawString(accel, 5, 5);
        ssd1306_update();
        time = _CP0_GET_COUNT();
        time = time/48000000;
9d00b040:	3c029d00 	lui	v0,0x9d00
9d00b044:	8c5374ac 	lw	s3,29868(v0)
        fps = 1/time;
9d00b048:	3c029d00 	lui	v0,0x9d00
9d00b04c:	8c5274b0 	lw	s2,29872(v0)
        sprintf(fps_arr, "FPS: %f", fps);
9d00b050:	3c109d00 	lui	s0,0x9d00
9d00b054:	261074a4 	addiu	s0,s0,29860
        _CP0_SET_COUNT(0);
9d00b058:	00001025 	move	v0,zero
9d00b05c:	40824800 	mtc0	v0,c0_count
9d00b060:	000000c0 	ehb
        burst_read_mpu6050(data);
9d00b064:	0f4023d1 	jal	9d008f44 <burst_read_mpu6050>
9d00b068:	27a40010 	addiu	a0,sp,16
        az = conv_zXL(data);
9d00b06c:	0f40230c 	jal	9d008c30 <conv_zXL>
9d00b070:	27a40010 	addiu	a0,sp,16
        sprintf(accel, "Z acc: %.2f", az);
9d00b074:	0f4030a6 	jal	9d00c298 <__extendsfdf2>
9d00b078:	00402025 	move	a0,v0
9d00b07c:	00403025 	move	a2,v0
9d00b080:	00603825 	move	a3,v1
9d00b084:	02202825 	move	a1,s1
9d00b088:	0f403359 	jal	9d00cd64 <_dsprintf_cdeEfFgGnopuxX>
9d00b08c:	27a40020 	addiu	a0,sp,32
        drawString(accel, 5, 5);
9d00b090:	24060005 	li	a2,5
9d00b094:	24050005 	li	a1,5
9d00b098:	0f4028ec 	jal	9d00a3b0 <drawString>
9d00b09c:	27a40020 	addiu	a0,sp,32
        ssd1306_update();
9d00b0a0:	0f40282e 	jal	9d00a0b8 <ssd1306_update>
9d00b0a4:	00000000 	nop
        time = _CP0_GET_COUNT();
9d00b0a8:	40044800 	mfc0	a0,c0_count
9d00b0ac:	0f4032ac 	jal	9d00cab0 <__floatunsisf>
9d00b0b0:	00000000 	nop
        time = time/48000000;
9d00b0b4:	02602825 	move	a1,s3
9d00b0b8:	0f402a71 	jal	9d00a9c4 <__divsf3>
9d00b0bc:	00402025 	move	a0,v0
        fps = 1/time;
9d00b0c0:	00402825 	move	a1,v0
9d00b0c4:	0f402a71 	jal	9d00a9c4 <__divsf3>
9d00b0c8:	02402025 	move	a0,s2
        sprintf(fps_arr, "FPS: %f", fps);
9d00b0cc:	0f4030a6 	jal	9d00c298 <__extendsfdf2>
9d00b0d0:	00402025 	move	a0,v0
9d00b0d4:	00403025 	move	a2,v0
9d00b0d8:	00603825 	move	a3,v1
9d00b0dc:	02002825 	move	a1,s0
9d00b0e0:	0f403359 	jal	9d00cd64 <_dsprintf_cdeEfFgGnopuxX>
9d00b0e4:	27a40054 	addiu	a0,sp,84
        drawString(fps_arr, 5, 15);
9d00b0e8:	2406000f 	li	a2,15
9d00b0ec:	24050005 	li	a1,5
9d00b0f0:	0f4028ec 	jal	9d00a3b0 <drawString>
9d00b0f4:	27a40054 	addiu	a0,sp,84
        ssd1306_update();  
9d00b0f8:	0f40282e 	jal	9d00a0b8 <ssd1306_update>
9d00b0fc:	00000000 	nop
9d00b100:	1000ffd5 	b	9d00b058 <main+0x7c>
9d00b104:	00000000 	nop
            NU32DIP_YELLOW = 0; // on
9d00b108:	3c03bf88 	lui	v1,0xbf88
            _CP0_SET_COUNT(0);
9d00b10c:	00002825 	move	a1,zero
            while(_CP0_GET_COUNT()<24000000){}
9d00b110:	3c02016e 	lui	v0,0x16e
9d00b114:	24423600 	addiu	v0,v0,13824
            NU32DIP_YELLOW = 1; // off
9d00b118:	24060001 	li	a2,1
            NU32DIP_YELLOW = 0; // on
9d00b11c:	94646130 	lhu	a0,24880(v1)
9d00b120:	7c042944 	ins	a0,zero,0x5,0x1
9d00b124:	a4646130 	sh	a0,24880(v1)
            _CP0_SET_COUNT(0);
9d00b128:	40854800 	mtc0	a1,c0_count
9d00b12c:	000000c0 	ehb
            while(_CP0_GET_COUNT()<24000000){}
9d00b130:	40044800 	mfc0	a0,c0_count
9d00b134:	0082202b 	sltu	a0,a0,v0
9d00b138:	1480fffd 	bnez	a0,9d00b130 <main+0x154>
9d00b13c:	00000000 	nop
            NU32DIP_YELLOW = 1; // off
9d00b140:	94646130 	lhu	a0,24880(v1)
9d00b144:	7cc42944 	ins	a0,a2,0x5,0x1
9d00b148:	a4646130 	sh	a0,24880(v1)
            _CP0_SET_COUNT(0);
9d00b14c:	40854800 	mtc0	a1,c0_count
9d00b150:	000000c0 	ehb
            while(_CP0_GET_COUNT()<24000000){}
9d00b154:	40044800 	mfc0	a0,c0_count
9d00b158:	0082202b 	sltu	a0,a0,v0
9d00b15c:	1480fffd 	bnez	a0,9d00b154 <main+0x178>
9d00b160:	00000000 	nop
9d00b164:	1000ffed 	b	9d00b11c <main+0x140>
9d00b168:	00000000 	nop

9d00b16c <delay>:
    }
}

void delay(void) {
9d00b16c:	27bdfff8 	addiu	sp,sp,-8
9d00b170:	afbf0004 	sw	ra,4(sp)
    _CP0_SET_COUNT(0);
9d00b174:	00001025 	move	v0,zero
9d00b178:	40824800 	mtc0	v0,c0_count
9d00b17c:	000000c0 	ehb
    while (_CP0_GET_COUNT() < 48000000) {
9d00b180:	3c0202dc 	lui	v0,0x2dc
9d00b184:	24426c00 	addiu	v0,v0,27648
9d00b188:	40034800 	mfc0	v1,c0_count
9d00b18c:	0062182b 	sltu	v1,v1,v0
9d00b190:	1460fffd 	bnez	v1,9d00b188 <delay+0x1c>
9d00b194:	8fbf0004 	lw	ra,4(sp)
    }
}
9d00b198:	03e00008 	jr	ra
9d00b19c:	27bd0008 	addiu	sp,sp,8

9d00b1a0 <NU32DIP_Startup>:
#include "nu32dip.h"

void NU32DIP_Startup() {
9d00b1a0:	27bdfff8 	addiu	sp,sp,-8
9d00b1a4:	afbf0004 	sw	ra,4(sp)
    __builtin_disable_interrupts(); // disable interrupts while initializing things
9d00b1a8:	41626000 	di	v0
9d00b1ac:	000000c0 	ehb

    // set the CP0 CONFIG register to indicate that kseg0 is cacheable (0x3)
    __builtin_mtc0(_CP0_CONFIG, _CP0_CONFIG_SELECT, 0xa4210583);
9d00b1b0:	3c02a421 	lui	v0,0xa421
9d00b1b4:	24420583 	addiu	v0,v0,1411
9d00b1b8:	40828000 	mtc0	v0,c0_config
9d00b1bc:	000000c0 	ehb

    // 0 data RAM access wait states
    BMXCONbits.BMXWSDRM = 0x0;
9d00b1c0:	3c02bf88 	lui	v0,0xbf88
9d00b1c4:	8c432000 	lw	v1,8192(v0)
9d00b1c8:	7c033184 	ins	v1,zero,0x6,0x1
9d00b1cc:	ac432000 	sw	v1,8192(v0)

    // enable multi vector interrupts
    INTCONbits.MVEC = 0x1;
9d00b1d0:	3c02bf88 	lui	v0,0xbf88
9d00b1d4:	8c441000 	lw	a0,4096(v0)
9d00b1d8:	24030001 	li	v1,1
9d00b1dc:	7c646304 	ins	a0,v1,0xc,0x1
9d00b1e0:	ac441000 	sw	a0,4096(v0)

    // disable JTAG to get pins back
    DDPCONbits.JTAGEN = 0;
9d00b1e4:	3c02bf81 	lui	v0,0xbf81
9d00b1e8:	9444f200 	lhu	a0,-3584(v0)
9d00b1ec:	7c0418c4 	ins	a0,zero,0x3,0x1
9d00b1f0:	a444f200 	sh	a0,-3584(v0)

    // do your TRIS and LAT commands here
    TRISBCLR = 0b110000; // B4 and B5 LEDs
9d00b1f4:	3c02bf88 	lui	v0,0xbf88
9d00b1f8:	24040030 	li	a0,48
9d00b1fc:	ac446114 	sw	a0,24852(v0)
    TRISASET = 0b010000; // A4 user button
9d00b200:	3c02bf88 	lui	v0,0xbf88
9d00b204:	24040010 	li	a0,16
9d00b208:	ac446018 	sw	a0,24600(v0)
    //NU32_LED1 = 1; // LED1 is off
    NU32DIP_YELLOW = 1;
9d00b20c:	3c02bf88 	lui	v0,0xbf88
9d00b210:	94446130 	lhu	a0,24880(v0)
9d00b214:	7c642944 	ins	a0,v1,0x5,0x1
9d00b218:	a4446130 	sh	a0,24880(v0)
    //NU32_LED2 = 0; // LED2 is on
    NU32DIP_GREEN = 0;
9d00b21c:	94446130 	lhu	a0,24880(v0)
9d00b220:	7c042104 	ins	a0,zero,0x4,0x1
9d00b224:	a4446130 	sh	a0,24880(v0)

    //UART1 pins
    U1RXRbits.U1RXR = 0b0000; // Set A2 to U1RX
9d00b228:	3c02bf81 	lui	v0,0xbf81
9d00b22c:	9044fa50 	lbu	a0,-1456(v0)
9d00b230:	7c041804 	ins	a0,zero,0x0,0x4
9d00b234:	a044fa50 	sb	a0,-1456(v0)
    RPB3Rbits.RPB3R = 0b0001; // Set B3 to U1TX
9d00b238:	3c02bf81 	lui	v0,0xbf81
9d00b23c:	9044fb38 	lbu	a0,-1224(v0)
9d00b240:	7c641804 	ins	a0,v1,0x0,0x4
9d00b244:	a044fb38 	sb	a0,-1224(v0)

    // turn on UART1 without an interrupt
    U1MODEbits.BRGH = 0; // set baud to NU32_DESIRED_BAUD
9d00b248:	3c02bf80 	lui	v0,0xbf80
9d00b24c:	94446000 	lhu	a0,24576(v0)
9d00b250:	7c0418c4 	ins	a0,zero,0x3,0x1
9d00b254:	a4446000 	sh	a0,24576(v0)
    U1BRG = ((NU32DIP_SYS_FREQ / NU32DIP_DESIRED_BAUD) / 16) - 1;
9d00b258:	3c04bf80 	lui	a0,0xbf80
9d00b25c:	2405000c 	li	a1,12
9d00b260:	ac856040 	sw	a1,24640(a0)

    // 8 bit, no parity bit, and 1 stop bit (8N1 setup)
    U1MODEbits.PDSEL = 0;
9d00b264:	94446000 	lhu	a0,24576(v0)
9d00b268:	7c041044 	ins	a0,zero,0x1,0x2
9d00b26c:	a4446000 	sh	a0,24576(v0)
    U1MODEbits.STSEL = 0;
9d00b270:	94446000 	lhu	a0,24576(v0)
9d00b274:	7c040004 	ins	a0,zero,0x0,0x1
9d00b278:	a4446000 	sh	a0,24576(v0)

    // configure TX & RX pins as output & input pins
    U1STAbits.UTXEN = 1;
9d00b27c:	3c04bf80 	lui	a0,0xbf80
9d00b280:	8c856010 	lw	a1,24592(a0)
9d00b284:	7c655284 	ins	a1,v1,0xa,0x1
9d00b288:	ac856010 	sw	a1,24592(a0)
    U1STAbits.URXEN = 1;
9d00b28c:	8c856010 	lw	a1,24592(a0)
9d00b290:	7c656304 	ins	a1,v1,0xc,0x1
9d00b294:	ac856010 	sw	a1,24592(a0)
    // configure without hardware flow control
    U1MODEbits.UEN = 0;
9d00b298:	94446000 	lhu	a0,24576(v0)
9d00b29c:	7c044a04 	ins	a0,zero,0x8,0x2
9d00b2a0:	a4446000 	sh	a0,24576(v0)

    // enable the uart
    U1MODEbits.ON = 1;
9d00b2a4:	94446000 	lhu	a0,24576(v0)
9d00b2a8:	7c647bc4 	ins	a0,v1,0xf,0x1
9d00b2ac:	a4446000 	sh	a0,24576(v0)

    __builtin_enable_interrupts();
9d00b2b0:	41626020 	ei	v0
}
9d00b2b4:	8fbf0004 	lw	ra,4(sp)
9d00b2b8:	03e00008 	jr	ra
9d00b2bc:	27bd0008 	addiu	sp,sp,8

9d00b2c0 <NU32DIP_ReadUART1>:
// block other functions until you get a '\r' or '\n'
// send the pointer to your char array and the number of elements in the array

void NU32DIP_ReadUART1(char * message, int maxLength) {
    char data = 0;
    int complete = 0, num_bytes = 0;
9d00b2c0:	00001025 	move	v0,zero
    // loop until you get a '\r' or '\n'
    while (!complete) {
        if (U1STAbits.URXDA) { // if data is available
9d00b2c4:	3c0abf80 	lui	t2,0xbf80
            data = U1RXREG; // read the data
9d00b2c8:	3c09bf80 	lui	t1,0xbf80
            if ((data == '\n') || (data == '\r')) {
9d00b2cc:	2408000a 	li	t0,10
9d00b2d0:	2407000d 	li	a3,13
        if (U1STAbits.URXDA) { // if data is available
9d00b2d4:	8d436010 	lw	v1,24592(t2)
9d00b2d8:	30630001 	andi	v1,v1,0x1
9d00b2dc:	1060fffd 	beqz	v1,9d00b2d4 <NU32DIP_ReadUART1+0x14>
9d00b2e0:	00000000 	nop
            data = U1RXREG; // read the data
9d00b2e4:	8d236030 	lw	v1,24624(t1)
9d00b2e8:	7c031c20 	seb	v1,v1
            if ((data == '\n') || (data == '\r')) {
9d00b2ec:	5068000b 	beql	v1,t0,9d00b31c <NU32DIP_ReadUART1+0x5c>
9d00b2f0:	00822021 	addu	a0,a0,v0
9d00b2f4:	10670008 	beq	v1,a3,9d00b318 <NU32DIP_ReadUART1+0x58>
9d00b2f8:	24460001 	addiu	a2,v0,1
                complete = 1;
            } else {
                message[num_bytes] = data;
                ++num_bytes;
                // roll over if the array is too small
                if (num_bytes >= maxLength) {
9d00b2fc:	00c5302a 	slt	a2,a2,a1
                    num_bytes = 0;
9d00b300:	244b0001 	addiu	t3,v0,1
                message[num_bytes] = data;
9d00b304:	00821021 	addu	v0,a0,v0
9d00b308:	a0430000 	sb	v1,0(v0)
9d00b30c:	01601025 	move	v0,t3
9d00b310:	1000fff0 	b	9d00b2d4 <NU32DIP_ReadUART1+0x14>
9d00b314:	0006100a 	movz	v0,zero,a2
                }
            }
        }
    }
    // end the string
    message[num_bytes] = '\0';
9d00b318:	00822021 	addu	a0,a0,v0
}
9d00b31c:	03e00008 	jr	ra
9d00b320:	a0800000 	sb	zero,0(a0)

9d00b324 <NU32DIP_WriteUART1>:

// Write a character array using UART1

void NU32DIP_WriteUART1(const char * string) {
    while (*string != '\0') {
9d00b324:	80820000 	lb	v0,0(a0)
9d00b328:	1040000b 	beqz	v0,9d00b358 <NU32DIP_WriteUART1+0x34>
9d00b32c:	3c06bf80 	lui	a2,0xbf80
        while (U1STAbits.UTXBF) {
            ; // wait until tx buffer isn't full
        }
        U1TXREG = *string;
9d00b330:	3c05bf80 	lui	a1,0xbf80
        while (U1STAbits.UTXBF) {
9d00b334:	8cc36010 	lw	v1,24592(a2)
9d00b338:	7c630240 	ext	v1,v1,0x9,0x1
9d00b33c:	1460fffd 	bnez	v1,9d00b334 <NU32DIP_WriteUART1+0x10>
9d00b340:	00000000 	nop
        U1TXREG = *string;
9d00b344:	aca26020 	sw	v0,24608(a1)
        ++string;
9d00b348:	24840001 	addiu	a0,a0,1
    while (*string != '\0') {
9d00b34c:	80820000 	lb	v0,0(a0)
9d00b350:	1440fff8 	bnez	v0,9d00b334 <NU32DIP_WriteUART1+0x10>
9d00b354:	00000000 	nop
    }
}
9d00b358:	03e00008 	jr	ra
9d00b35c:	00000000 	nop

Disassembly of section .text.__pop_int:

9d00b360 <__pop_int>:
9d00b360:	24020088 	li	v0,136
9d00b364:	10a2003f 	beq	a1,v0,9d00b464 <__pop_int+0x104>
9d00b368:	28a20089 	slti	v0,a1,137
9d00b36c:	1040001a 	beqz	v0,9d00b3d8 <__pop_int+0x78>
9d00b370:	24020081 	li	v0,129
9d00b374:	10a20054 	beq	a1,v0,9d00b4c8 <__pop_int+0x168>
9d00b378:	28a20082 	slti	v0,a1,130
9d00b37c:	10400005 	beqz	v0,9d00b394 <__pop_int+0x34>
9d00b380:	24020080 	li	v0,128
9d00b384:	50a20051 	beql	a1,v0,9d00b4cc <__pop_int+0x16c>
9d00b388:	8ce20000 	lw	v0,0(a3)
9d00b38c:	03e00008 	jr	ra
9d00b390:	00001025 	move	v0,zero
9d00b394:	24020082 	li	v0,130
9d00b398:	50a2003b 	beql	a1,v0,9d00b488 <__pop_int+0x128>
9d00b39c:	8ce20000 	lw	v0,0(a3)
9d00b3a0:	24020084 	li	v0,132
9d00b3a4:	14a2fff9 	bne	a1,v0,9d00b38c <__pop_int+0x2c>
9d00b3a8:	00000000 	nop
9d00b3ac:	8ce20000 	lw	v0,0(a3)
9d00b3b0:	24430004 	addiu	v1,v0,4
9d00b3b4:	8c420000 	lw	v0,0(v0)
9d00b3b8:	10c00027 	beqz	a2,9d00b458 <__pop_int+0xf8>
9d00b3bc:	ace30000 	sw	v1,0(a3)
9d00b3c0:	7c021620 	seh	v0,v0
9d00b3c4:	ac820000 	sw	v0,0(a0)
9d00b3c8:	000217c3 	sra	v0,v0,0x1f
9d00b3cc:	ac820004 	sw	v0,4(a0)
9d00b3d0:	03e00008 	jr	ra
9d00b3d4:	24020001 	li	v0,1
9d00b3d8:	240200a0 	li	v0,160
9d00b3dc:	50a20036 	beql	a1,v0,9d00b4b8 <__pop_int+0x158>
9d00b3e0:	8ce20000 	lw	v0,0(a3)
9d00b3e4:	28a200a1 	slti	v0,a1,161
9d00b3e8:	10400010 	beqz	v0,9d00b42c <__pop_int+0xcc>
9d00b3ec:	24020090 	li	v0,144
9d00b3f0:	14a2ffe6 	bne	a1,v0,9d00b38c <__pop_int+0x2c>
9d00b3f4:	00000000 	nop
9d00b3f8:	8ce20000 	lw	v0,0(a3)
9d00b3fc:	24420007 	addiu	v0,v0,7
9d00b400:	7c021004 	ins	v0,zero,0x0,0x3
9d00b404:	8c480000 	lw	t0,0(v0)
9d00b408:	8c490004 	lw	t1,4(v0)
9d00b40c:	24420008 	addiu	v0,v0,8
9d00b410:	ace20000 	sw	v0,0(a3)
9d00b414:	ac880000 	sw	t0,0(a0)
9d00b418:	ac890004 	sw	t1,4(a0)
9d00b41c:	10c00001 	beqz	a2,9d00b424 <__pop_int+0xc4>
9d00b420:	24020001 	li	v0,1
9d00b424:	03e00008 	jr	ra
9d00b428:	00000000 	nop
9d00b42c:	240200c0 	li	v0,192
9d00b430:	50a20005 	beql	a1,v0,9d00b448 <__pop_int+0xe8>
9d00b434:	8ce20000 	lw	v0,0(a3)
9d00b438:	240200f0 	li	v0,240
9d00b43c:	14a2ffd3 	bne	a1,v0,9d00b38c <__pop_int+0x2c>
9d00b440:	00000000 	nop
9d00b444:	8ce20000 	lw	v0,0(a3)
9d00b448:	24430004 	addiu	v1,v0,4
9d00b44c:	ace30000 	sw	v1,0(a3)
9d00b450:	10000002 	b	9d00b45c <__pop_int+0xfc>
9d00b454:	8c420000 	lw	v0,0(v0)
9d00b458:	3042ffff 	andi	v0,v0,0xffff
9d00b45c:	10000020 	b	9d00b4e0 <__pop_int+0x180>
9d00b460:	ac820000 	sw	v0,0(a0)
9d00b464:	8ce20000 	lw	v0,0(a3)
9d00b468:	24430004 	addiu	v1,v0,4
9d00b46c:	8c420000 	lw	v0,0(v0)
9d00b470:	10c00003 	beqz	a2,9d00b480 <__pop_int+0x120>
9d00b474:	ace30000 	sw	v1,0(a3)
9d00b478:	1000ffd2 	b	9d00b3c4 <__pop_int+0x64>
9d00b47c:	7c021420 	seb	v0,v0
9d00b480:	1000fff6 	b	9d00b45c <__pop_int+0xfc>
9d00b484:	304200ff 	andi	v0,v0,0xff
9d00b488:	24420007 	addiu	v0,v0,7
9d00b48c:	7c021004 	ins	v0,zero,0x0,0x3
9d00b490:	8c480000 	lw	t0,0(v0)
9d00b494:	8c490004 	lw	t1,4(v0)
9d00b498:	24420008 	addiu	v0,v0,8
9d00b49c:	ace20000 	sw	v0,0(a3)
9d00b4a0:	ac880000 	sw	t0,0(a0)
9d00b4a4:	ac890004 	sw	t1,4(a0)
9d00b4a8:	10c0ffde 	beqz	a2,9d00b424 <__pop_int+0xc4>
9d00b4ac:	24020001 	li	v0,1
9d00b4b0:	03e00008 	jr	ra
9d00b4b4:	00000000 	nop
9d00b4b8:	24430004 	addiu	v1,v0,4
9d00b4bc:	ace30000 	sw	v1,0(a3)
9d00b4c0:	1000ffc0 	b	9d00b3c4 <__pop_int+0x64>
9d00b4c4:	8c420000 	lw	v0,0(v0)
9d00b4c8:	8ce20000 	lw	v0,0(a3)
9d00b4cc:	24430004 	addiu	v1,v0,4
9d00b4d0:	ace30000 	sw	v1,0(a3)
9d00b4d4:	8c420000 	lw	v0,0(v0)
9d00b4d8:	14c0ffbb 	bnez	a2,9d00b3c8 <__pop_int+0x68>
9d00b4dc:	ac820000 	sw	v0,0(a0)
9d00b4e0:	1000ffbb 	b	9d00b3d0 <__pop_int+0x70>
9d00b4e4:	ac800004 	sw	zero,4(a0)

Disassembly of section .text:

9d00b4e8 <i2c_master_setup>:
#include "i2c_master_noint.h"

void i2c_master_setup(void) {
    // using a large BRG to see it on the nScope, make it smaller after verifying that code works
    // look up TPGD in the datasheet
    I2C1BRG = 1000; // I2CBRG = [1/(2*Fsck) - TPGD]*Pblck - 2 (TPGD is the Pulse Gobbler Delay)
9d00b4e8:	3c02bf80 	lui	v0,0xbf80
9d00b4ec:	240303e8 	li	v1,1000
9d00b4f0:	ac435040 	sw	v1,20544(v0)
    I2C1CONbits.ON = 1; // turn on the I2C1 module
9d00b4f4:	3c02bf80 	lui	v0,0xbf80
9d00b4f8:	94435000 	lhu	v1,20480(v0)
9d00b4fc:	24040001 	li	a0,1
9d00b500:	7c837bc4 	ins	v1,a0,0xf,0x1
9d00b504:	a4435000 	sh	v1,20480(v0)
}
9d00b508:	03e00008 	jr	ra
9d00b50c:	00000000 	nop

9d00b510 <i2c_master_start>:

void i2c_master_start(void) {
    I2C1CONbits.SEN = 1; // send the start bit
9d00b510:	3c02bf80 	lui	v0,0xbf80
9d00b514:	94435000 	lhu	v1,20480(v0)
9d00b518:	24040001 	li	a0,1
9d00b51c:	7c830004 	ins	v1,a0,0x0,0x1
9d00b520:	a4435000 	sh	v1,20480(v0)
    while (I2C1CONbits.SEN) {
9d00b524:	00401825 	move	v1,v0
9d00b528:	8c625000 	lw	v0,20480(v1)
9d00b52c:	30420001 	andi	v0,v0,0x1
9d00b530:	1440fffd 	bnez	v0,9d00b528 <i2c_master_start+0x18>
9d00b534:	00000000 	nop
        ;
    } // wait for the start bit to be sent
}
9d00b538:	03e00008 	jr	ra
9d00b53c:	00000000 	nop

9d00b540 <i2c_master_restart>:

void i2c_master_restart(void) {
    I2C1CONbits.RSEN = 1; // send a restart 
9d00b540:	3c02bf80 	lui	v0,0xbf80
9d00b544:	94435000 	lhu	v1,20480(v0)
9d00b548:	24040001 	li	a0,1
9d00b54c:	7c830844 	ins	v1,a0,0x1,0x1
9d00b550:	a4435000 	sh	v1,20480(v0)
    while (I2C1CONbits.RSEN) {
9d00b554:	00401825 	move	v1,v0
9d00b558:	8c625000 	lw	v0,20480(v1)
9d00b55c:	7c420040 	ext	v0,v0,0x1,0x1
9d00b560:	1440fffd 	bnez	v0,9d00b558 <i2c_master_restart+0x18>
9d00b564:	00000000 	nop
        ;
    } // wait for the restart to clear
}
9d00b568:	03e00008 	jr	ra
9d00b56c:	00000000 	nop

9d00b570 <i2c_master_send>:

void i2c_master_send(unsigned char byte) { // send a byte to slave
    I2C1TRN = byte; // if an address, bit 0 = 0 for write, 1 for read
9d00b570:	3c02bf80 	lui	v0,0xbf80
9d00b574:	ac445050 	sw	a0,20560(v0)
    while (I2C1STATbits.TRSTAT) {
9d00b578:	3c03bf80 	lui	v1,0xbf80
9d00b57c:	8c625010 	lw	v0,20496(v1)
9d00b580:	7c420380 	ext	v0,v0,0xe,0x1
9d00b584:	1440fffd 	bnez	v0,9d00b57c <i2c_master_send+0xc>
9d00b588:	3c02bf80 	lui	v0,0xbf80
        ;
    } // wait for the transmission to finish
    if (I2C1STATbits.ACKSTAT) { // if this is high, slave has not acknowledged
9d00b58c:	8c425010 	lw	v0,20496(v0)
9d00b590:	7c4203c0 	ext	v0,v0,0xf,0x1
9d00b594:	10400003 	beqz	v0,9d00b5a4 <i2c_master_send+0x34>
9d00b598:	00000000 	nop
        // ("I2C1 Master: failed to receive ACK\r\n");
        while(1){} // get stuck here if the chip does not ACK back
9d00b59c:	1000ffff 	b	9d00b59c <i2c_master_send+0x2c>
9d00b5a0:	00000000 	nop
    }
}
9d00b5a4:	03e00008 	jr	ra
9d00b5a8:	00000000 	nop

9d00b5ac <i2c_master_recv>:

unsigned char i2c_master_recv(void) { // receive a byte from the slave
    I2C1CONbits.RCEN = 1; // start receiving data
9d00b5ac:	3c02bf80 	lui	v0,0xbf80
9d00b5b0:	94435000 	lhu	v1,20480(v0)
9d00b5b4:	24040001 	li	a0,1
9d00b5b8:	7c8318c4 	ins	v1,a0,0x3,0x1
9d00b5bc:	a4435000 	sh	v1,20480(v0)
    while (!I2C1STATbits.RBF) {
9d00b5c0:	3c03bf80 	lui	v1,0xbf80
9d00b5c4:	8c625010 	lw	v0,20496(v1)
9d00b5c8:	7c420040 	ext	v0,v0,0x1,0x1
9d00b5cc:	1040fffd 	beqz	v0,9d00b5c4 <i2c_master_recv+0x18>
9d00b5d0:	3c02bf80 	lui	v0,0xbf80
        ;
    } // wait to receive the data
    return I2C1RCV; // read and return the data
9d00b5d4:	8c425060 	lw	v0,20576(v0)
}
9d00b5d8:	03e00008 	jr	ra
9d00b5dc:	304200ff 	andi	v0,v0,0xff

9d00b5e0 <i2c_master_ack>:

void i2c_master_ack(int val) { // sends ACK = 0 (slave should send another byte)
    // or NACK = 1 (no more bytes requested from slave)
    I2C1CONbits.ACKDT = val; // store ACK/NACK in ACKDT
9d00b5e0:	3c02bf80 	lui	v0,0xbf80
9d00b5e4:	94435000 	lhu	v1,20480(v0)
9d00b5e8:	7c832944 	ins	v1,a0,0x5,0x1
9d00b5ec:	a4435000 	sh	v1,20480(v0)
    I2C1CONbits.ACKEN = 1; // send ACKDT
9d00b5f0:	94435000 	lhu	v1,20480(v0)
9d00b5f4:	24040001 	li	a0,1
9d00b5f8:	7c832104 	ins	v1,a0,0x4,0x1
9d00b5fc:	a4435000 	sh	v1,20480(v0)
    while (I2C1CONbits.ACKEN) {
9d00b600:	00401825 	move	v1,v0
9d00b604:	8c625000 	lw	v0,20480(v1)
9d00b608:	7c420100 	ext	v0,v0,0x4,0x1
9d00b60c:	1440fffd 	bnez	v0,9d00b604 <i2c_master_ack+0x24>
9d00b610:	00000000 	nop
        ;
    } // wait for ACK/NACK to be sent
}
9d00b614:	03e00008 	jr	ra
9d00b618:	00000000 	nop

9d00b61c <i2c_master_stop>:

void i2c_master_stop(void) { // send a STOP:
    I2C1CONbits.PEN = 1; // comm is complete and master relinquishes bus
9d00b61c:	3c02bf80 	lui	v0,0xbf80
9d00b620:	94435000 	lhu	v1,20480(v0)
9d00b624:	24040001 	li	a0,1
9d00b628:	7c831084 	ins	v1,a0,0x2,0x1
9d00b62c:	a4435000 	sh	v1,20480(v0)
    while (I2C1CONbits.PEN) {
9d00b630:	00401825 	move	v1,v0
9d00b634:	8c625000 	lw	v0,20480(v1)
9d00b638:	7c420080 	ext	v0,v0,0x2,0x1
9d00b63c:	1440fffd 	bnez	v0,9d00b634 <i2c_master_stop+0x18>
9d00b640:	00000000 	nop
        ;
    } // wait for STOP to complete
9d00b644:	03e00008 	jr	ra
9d00b648:	00000000 	nop

Disassembly of section .text.__fmt_d:

9d00b64c <__fmt_d>:
9d00b64c:	27bdffc0 	addiu	sp,sp,-64
9d00b650:	afb1002c 	sw	s1,44(sp)
9d00b654:	00808825 	move	s1,a0
9d00b658:	00c02025 	move	a0,a2
9d00b65c:	8c870004 	lw	a3,4(a0)
9d00b660:	8ca20000 	lw	v0,0(a1)
9d00b664:	afb40038 	sw	s4,56(sp)
9d00b668:	0007a7c2 	srl	s4,a3,0x1f
9d00b66c:	afb30034 	sw	s3,52(sp)
9d00b670:	afb20030 	sw	s2,48(sp)
9d00b674:	afb00028 	sw	s0,40(sp)
9d00b678:	afbf003c 	sw	ra,60(sp)
9d00b67c:	00a08025 	move	s0,a1
9d00b680:	8ca30004 	lw	v1,4(a1)
9d00b684:	8cb20008 	lw	s2,8(a1)
9d00b688:	afa20020 	sw	v0,32(sp)
9d00b68c:	8cb3000c 	lw	s3,12(a1)
9d00b690:	1280003e 	beqz	s4,9d00b78c <__fmt_d+0x140>
9d00b694:	8cc60000 	lw	a2,0(a2)
9d00b698:	00063023 	negu	a2,a2
9d00b69c:	0006202b 	sltu	a0,zero,a2
9d00b6a0:	00073823 	negu	a3,a3
9d00b6a4:	04600008 	bltz	v1,9d00b6c8 <__fmt_d+0x7c>
9d00b6a8:	00e43823 	subu	a3,a3,a0
9d00b6ac:	7c020844 	ins	v0,zero,0x1,0x1
9d00b6b0:	16800005 	bnez	s4,9d00b6c8 <__fmt_d+0x7c>
9d00b6b4:	afa20020 	sw	v0,32(sp)
9d00b6b8:	8fa20020 	lw	v0,32(sp)
9d00b6bc:	30430004 	andi	v1,v0,0x4
9d00b6c0:	1060002a 	beqz	v1,9d00b76c <__fmt_d+0x120>
9d00b6c4:	7c4200c0 	ext	v0,v0,0x3,0x1
9d00b6c8:	2642ffff 	addiu	v0,s2,-1
9d00b6cc:	27a30020 	addiu	v1,sp,32
9d00b6d0:	afa30018 	sw	v1,24(sp)
9d00b6d4:	2403000a 	li	v1,10
9d00b6d8:	afa30014 	sw	v1,20(sp)
9d00b6dc:	afa20010 	sw	v0,16(sp)
9d00b6e0:	0f402de7 	jal	9d00b79c <__cvt_u>
9d00b6e4:	02002025 	move	a0,s0
9d00b6e8:	16800006 	bnez	s4,9d00b704 <__fmt_d+0xb8>
9d00b6ec:	2403002d 	li	v1,45
9d00b6f0:	8fa30020 	lw	v1,32(sp)
9d00b6f4:	30640004 	andi	a0,v1,0x4
9d00b6f8:	1080001e 	beqz	a0,9d00b774 <__fmt_d+0x128>
9d00b6fc:	30630008 	andi	v1,v1,0x8
9d00b700:	2403002b 	li	v1,43
9d00b704:	2442ffff 	addiu	v0,v0,-1
9d00b708:	02622021 	addu	a0,s3,v0
9d00b70c:	a0830000 	sb	v1,0(a0)
9d00b710:	8e060010 	lw	a2,16(s0)
9d00b714:	8fa30020 	lw	v1,32(sp)
9d00b718:	02403825 	move	a3,s2
9d00b71c:	24c6ffff 	addiu	a2,a2,-1
9d00b720:	afa30010 	sw	v1,16(sp)
9d00b724:	00c23023 	subu	a2,a2,v0
9d00b728:	02622821 	addu	a1,s3,v0
9d00b72c:	0f402f0e 	jal	9d00bc38 <__pad>
9d00b730:	02202025 	move	a0,s1
9d00b734:	8e230004 	lw	v1,4(s1)
9d00b738:	30630100 	andi	v1,v1,0x100
9d00b73c:	10600004 	beqz	v1,9d00b750 <__fmt_d+0x104>
9d00b740:	8fbf003c 	lw	ra,60(sp)
9d00b744:	8e030004 	lw	v1,4(s0)
9d00b748:	0043202a 	slt	a0,v0,v1
9d00b74c:	0064100b 	movn	v0,v1,a0
9d00b750:	8fb40038 	lw	s4,56(sp)
9d00b754:	8fb30034 	lw	s3,52(sp)
9d00b758:	8fb20030 	lw	s2,48(sp)
9d00b75c:	8fb1002c 	lw	s1,44(sp)
9d00b760:	8fb00028 	lw	s0,40(sp)
9d00b764:	03e00008 	jr	ra
9d00b768:	27bd0040 	addiu	sp,sp,64
9d00b76c:	1000ffd7 	b	9d00b6cc <__fmt_d+0x80>
9d00b770:	02421023 	subu	v0,s2,v0
9d00b774:	1060ffe6 	beqz	v1,9d00b710 <__fmt_d+0xc4>
9d00b778:	24040020 	li	a0,32
9d00b77c:	2442ffff 	addiu	v0,v0,-1
9d00b780:	02621821 	addu	v1,s3,v0
9d00b784:	1000ffe2 	b	9d00b710 <__fmt_d+0xc4>
9d00b788:	a0640000 	sb	a0,0(v1)
9d00b78c:	0463ffc8 	bgezl	v1,9d00b6b0 <__fmt_d+0x64>
9d00b790:	7c020844 	ins	v0,zero,0x1,0x1
9d00b794:	1000ffc9 	b	9d00b6bc <__fmt_d+0x70>
9d00b798:	8fa20020 	lw	v0,32(sp)

Disassembly of section .text.__cvt_u:

9d00b79c <__cvt_u>:
9d00b79c:	8c820004 	lw	v0,4(a0)
9d00b7a0:	27bdffc0 	addiu	sp,sp,-64
9d00b7a4:	afbe0038 	sw	s8,56(sp)
9d00b7a8:	afb40028 	sw	s4,40(sp)
9d00b7ac:	afb20020 	sw	s2,32(sp)
9d00b7b0:	afb1001c 	sw	s1,28(sp)
9d00b7b4:	afbf003c 	sw	ra,60(sp)
9d00b7b8:	afb70034 	sw	s7,52(sp)
9d00b7bc:	afb60030 	sw	s6,48(sp)
9d00b7c0:	afb5002c 	sw	s5,44(sp)
9d00b7c4:	afb30024 	sw	s3,36(sp)
9d00b7c8:	afb00018 	sw	s0,24(sp)
9d00b7cc:	00c08825 	move	s1,a2
9d00b7d0:	00e09025 	move	s2,a3
9d00b7d4:	8fb40054 	lw	s4,84(sp)
9d00b7d8:	04410002 	bgez	v0,9d00b7e4 <__cvt_u+0x48>
9d00b7dc:	8fbe0058 	lw	s8,88(sp)
9d00b7e0:	24020001 	li	v0,1
9d00b7e4:	8c900010 	lw	s0,16(a0)
9d00b7e8:	8c95000c 	lw	s5,12(a0)
9d00b7ec:	8fd70000 	lw	s7,0(s8)
9d00b7f0:	8fb30050 	lw	s3,80(sp)
9d00b7f4:	2610ffff 	addiu	s0,s0,-1
9d00b7f8:	02b01821 	addu	v1,s5,s0
9d00b7fc:	a0600000 	sb	zero,0(v1)
9d00b800:	24090001 	li	t1,1
9d00b804:	00534023 	subu	t0,v0,s3
9d00b808:	32f70002 	andi	s7,s7,0x2
9d00b80c:	0014b7c3 	sra	s6,s4,0x1f
9d00b810:	1e000010 	bgtz	s0,9d00b854 <__cvt_u+0xb8>
9d00b814:	02321025 	or	v0,s1,s2
9d00b818:	5120002c 	beqzl	t1,9d00b8cc <__cvt_u+0x130>
9d00b81c:	8fc20000 	lw	v0,0(s8)
9d00b820:	8fbf003c 	lw	ra,60(sp)
9d00b824:	02001025 	move	v0,s0
9d00b828:	8fbe0038 	lw	s8,56(sp)
9d00b82c:	8fb70034 	lw	s7,52(sp)
9d00b830:	8fb60030 	lw	s6,48(sp)
9d00b834:	8fb5002c 	lw	s5,44(sp)
9d00b838:	8fb40028 	lw	s4,40(sp)
9d00b83c:	8fb30024 	lw	s3,36(sp)
9d00b840:	8fb20020 	lw	s2,32(sp)
9d00b844:	8fb1001c 	lw	s1,28(sp)
9d00b848:	8fb00018 	lw	s0,24(sp)
9d00b84c:	03e00008 	jr	ra
9d00b850:	27bd0040 	addiu	sp,sp,64
9d00b854:	14400007 	bnez	v0,9d00b874 <__cvt_u+0xd8>
9d00b858:	01131021 	addu	v0,t0,s3
9d00b85c:	1c400006 	bgtz	v0,9d00b878 <__cvt_u+0xdc>
9d00b860:	02202025 	move	a0,s1
9d00b864:	1a60ffec 	blez	s3,9d00b818 <__cvt_u+0x7c>
9d00b868:	00000000 	nop
9d00b86c:	12e0ffea 	beqz	s7,9d00b818 <__cvt_u+0x7c>
9d00b870:	00000000 	nop
9d00b874:	02202025 	move	a0,s1
9d00b878:	02402825 	move	a1,s2
9d00b87c:	02803025 	move	a2,s4
9d00b880:	02c03825 	move	a3,s6
9d00b884:	afa80014 	sw	t0,20(sp)
9d00b888:	0f40272f 	jal	9d009cbc <__umoddi3>
9d00b88c:	2610ffff 	addiu	s0,s0,-1
9d00b890:	afa20010 	sw	v0,16(sp)
9d00b894:	02b01821 	addu	v1,s5,s0
9d00b898:	24420030 	addiu	v0,v0,48
9d00b89c:	02202025 	move	a0,s1
9d00b8a0:	02402825 	move	a1,s2
9d00b8a4:	a0620000 	sb	v0,0(v1)
9d00b8a8:	02803025 	move	a2,s4
9d00b8ac:	0f402640 	jal	9d009900 <__udivdi3>
9d00b8b0:	02c03825 	move	a3,s6
9d00b8b4:	2673ffff 	addiu	s3,s3,-1
9d00b8b8:	00408825 	move	s1,v0
9d00b8bc:	00609025 	move	s2,v1
9d00b8c0:	8fa80014 	lw	t0,20(sp)
9d00b8c4:	1000ffd2 	b	9d00b810 <__cvt_u+0x74>
9d00b8c8:	8fa90010 	lw	t1,16(sp)
9d00b8cc:	7c022104 	ins	v0,zero,0x4,0x1
9d00b8d0:	1000ffd3 	b	9d00b820 <__cvt_u+0x84>
9d00b8d4:	afc20000 	sw	v0,0(s8)

Disassembly of section .text.dpcmp:

9d00b8d8 <__eqdf2>:
9d00b8d8:	2409fffe 00055040 00075840 01645825     ...$@P..@X..%Xd.
9d00b8e8:	01665825 014b5025 15400003 00000000     %Xf.%PK...@.....
9d00b8f8:	1000003c 24020000                       <......$

9d00b900 <i56>:
9d00b900:	10800002 	beqz	a0,9d00b90c <i57>
9d00b904:	00054040 	sll	t0,a1,0x1
9d00b908:	25080001 	addiu	t0,t0,1

9d00b90c <i57>:
9d00b90c:	3c01ffe0 	lui	at,0xffe0
9d00b910:	34210001 	ori	at,at,0x1
9d00b914:	0101082b 	sltu	at,t0,at
9d00b918:	10200037 	beqz	at,9d00b9f8 <Lnan>
9d00b91c:	00000000 	nop
9d00b920:	10c00002 	beqz	a2,9d00b92c <i58>
9d00b924:	00074040 	sll	t0,a3,0x1
9d00b928:	25080001 	addiu	t0,t0,1

9d00b92c <i58>:
9d00b92c:	3c01ffe0 	lui	at,0xffe0
9d00b930:	34210001 	ori	at,at,0x1
9d00b934:	0101082b 	sltu	at,t0,at
9d00b938:	1020002f 	beqz	at,9d00b9f8 <Lnan>
9d00b93c:	00000000 	nop
9d00b940:	04a10016 	bgez	a1,9d00b99c <i59>
9d00b944:	00000000 	nop
9d00b948:	04e00003 	bltz	a3,9d00b958 <i60>
9d00b94c:	00000000 	nop
9d00b950:	10000026 	b	9d00b9ec <L999>
9d00b954:	2402ffff 	li	v0,-1

9d00b958 <i60>:
9d00b958:	0086502b 	sltu	t2,a0,a2
9d00b95c:	00862023 	subu	a0,a0,a2
9d00b960:	00aa582b 	sltu	t3,a1,t2
9d00b964:	00aa2823 	subu	a1,a1,t2
9d00b968:	00a7502b 	sltu	t2,a1,a3
9d00b96c:	014b5025 	or	t2,t2,t3
9d00b970:	11400003 	beqz	t2,9d00b980 <i61>
9d00b974:	00a72823 	subu	a1,a1,a3
9d00b978:	1000001c 	b	9d00b9ec <L999>
9d00b97c:	24020001 	li	v0,1

9d00b980 <i61>:
9d00b980:	00a45025 	or	t2,a1,a0
9d00b984:	11400003 	beqz	t2,9d00b994 <i62>
9d00b988:	00000000 	nop
9d00b98c:	10000017 	b	9d00b9ec <L999>
9d00b990:	2402ffff 	li	v0,-1

9d00b994 <i62>:
9d00b994:	10000015 	b	9d00b9ec <L999>
9d00b998:	24020000 	li	v0,0

9d00b99c <i59>:
9d00b99c:	04e10003 	bgez	a3,9d00b9ac <i63>
9d00b9a0:	00000000 	nop
9d00b9a4:	10000011 	b	9d00b9ec <L999>
9d00b9a8:	24020001 	li	v0,1

9d00b9ac <i63>:
9d00b9ac:	0086502b 	sltu	t2,a0,a2
9d00b9b0:	00862023 	subu	a0,a0,a2
9d00b9b4:	00aa582b 	sltu	t3,a1,t2
9d00b9b8:	00aa2823 	subu	a1,a1,t2
9d00b9bc:	00a7502b 	sltu	t2,a1,a3
9d00b9c0:	014b5025 	or	t2,t2,t3
9d00b9c4:	11400003 	beqz	t2,9d00b9d4 <i64>
9d00b9c8:	00a72823 	subu	a1,a1,a3
9d00b9cc:	10000007 	b	9d00b9ec <L999>
9d00b9d0:	2402ffff 	li	v0,-1

9d00b9d4 <i64>:
9d00b9d4:	00a45025 	or	t2,a1,a0
9d00b9d8:	11400003 	beqz	t2,9d00b9e8 <i65>
9d00b9dc:	00000000 	nop
9d00b9e0:	10000002 	b	9d00b9ec <L999>
9d00b9e4:	24020001 	li	v0,1

9d00b9e8 <i65>:
9d00b9e8:	24020000 	li	v0,0

9d00b9ec <L999>:
9d00b9ec:	03e00008 	jr	ra
9d00b9f0:	00000000 	nop
9d00b9f4:	00000000 	nop

9d00b9f8 <Lnan>:
9d00b9f8:	1000fffc 	b	9d00b9ec <L999>
9d00b9fc:	00091025 	or	v0,zero,t1
9d00ba00:	00000000 	nop

Disassembly of section .text.dfcmplt:

9d00ba04 <dpcmplt>:
9d00ba04:	2409fffe 	li	t1,-2
9d00ba08:	00055040 	sll	t2,a1,0x1
9d00ba0c:	00075840 	sll	t3,a3,0x1
9d00ba10:	01645825 	or	t3,t3,a0
9d00ba14:	01665825 	or	t3,t3,a2
9d00ba18:	014b5025 	or	t2,t2,t3
9d00ba1c:	15400003 	bnez	t2,9d00ba2c <dpcmplt+0x28>
9d00ba20:	00000000 	nop
9d00ba24:	1000003c 	b	9d00bb18 <dpcmplt+0x114>
9d00ba28:	24020000 	li	v0,0
9d00ba2c:	10800002 	beqz	a0,9d00ba38 <dpcmplt+0x34>
9d00ba30:	00054040 	sll	t0,a1,0x1
9d00ba34:	25080001 	addiu	t0,t0,1
9d00ba38:	3c01ffe0 	lui	at,0xffe0
9d00ba3c:	34210001 	ori	at,at,0x1
9d00ba40:	0101082b 	sltu	at,t0,at
9d00ba44:	10200037 	beqz	at,9d00bb24 <dpcmplt+0x120>
9d00ba48:	00000000 	nop
9d00ba4c:	10c00002 	beqz	a2,9d00ba58 <dpcmplt+0x54>
9d00ba50:	00074040 	sll	t0,a3,0x1
9d00ba54:	25080001 	addiu	t0,t0,1
9d00ba58:	3c01ffe0 	lui	at,0xffe0
9d00ba5c:	34210001 	ori	at,at,0x1
9d00ba60:	0101082b 	sltu	at,t0,at
9d00ba64:	1020002f 	beqz	at,9d00bb24 <dpcmplt+0x120>
9d00ba68:	00000000 	nop
9d00ba6c:	04a10016 	bgez	a1,9d00bac8 <dpcmplt+0xc4>
9d00ba70:	00000000 	nop
9d00ba74:	04e00003 	bltz	a3,9d00ba84 <dpcmplt+0x80>
9d00ba78:	00000000 	nop
9d00ba7c:	10000026 	b	9d00bb18 <dpcmplt+0x114>
9d00ba80:	2402ffff 	li	v0,-1
9d00ba84:	0086502b 	sltu	t2,a0,a2
9d00ba88:	00862023 	subu	a0,a0,a2
9d00ba8c:	00aa582b 	sltu	t3,a1,t2
9d00ba90:	00aa2823 	subu	a1,a1,t2
9d00ba94:	00a7502b 	sltu	t2,a1,a3
9d00ba98:	014b5025 	or	t2,t2,t3
9d00ba9c:	11400003 	beqz	t2,9d00baac <dpcmplt+0xa8>
9d00baa0:	00a72823 	subu	a1,a1,a3
9d00baa4:	1000001c 	b	9d00bb18 <dpcmplt+0x114>
9d00baa8:	24020001 	li	v0,1
9d00baac:	00a45025 	or	t2,a1,a0
9d00bab0:	11400003 	beqz	t2,9d00bac0 <dpcmplt+0xbc>
9d00bab4:	00000000 	nop
9d00bab8:	10000017 	b	9d00bb18 <dpcmplt+0x114>
9d00babc:	2402ffff 	li	v0,-1
9d00bac0:	10000015 	b	9d00bb18 <dpcmplt+0x114>
9d00bac4:	24020000 	li	v0,0
9d00bac8:	04e10003 	bgez	a3,9d00bad8 <dpcmplt+0xd4>
9d00bacc:	00000000 	nop
9d00bad0:	10000011 	b	9d00bb18 <dpcmplt+0x114>
9d00bad4:	24020001 	li	v0,1
9d00bad8:	0086502b 	sltu	t2,a0,a2
9d00badc:	00862023 	subu	a0,a0,a2
9d00bae0:	00aa582b 	sltu	t3,a1,t2
9d00bae4:	00aa2823 	subu	a1,a1,t2
9d00bae8:	00a7502b 	sltu	t2,a1,a3
9d00baec:	014b5025 	or	t2,t2,t3
9d00baf0:	11400003 	beqz	t2,9d00bb00 <dpcmplt+0xfc>
9d00baf4:	00a72823 	subu	a1,a1,a3
9d00baf8:	10000007 	b	9d00bb18 <dpcmplt+0x114>
9d00bafc:	2402ffff 	li	v0,-1
9d00bb00:	00a45025 	or	t2,a1,a0
9d00bb04:	11400003 	beqz	t2,9d00bb14 <dpcmplt+0x110>
9d00bb08:	00000000 	nop
9d00bb0c:	10000002 	b	9d00bb18 <dpcmplt+0x114>
9d00bb10:	24020001 	li	v0,1
9d00bb14:	24020000 	li	v0,0
9d00bb18:	03e00008 	jr	ra
9d00bb1c:	00000000 	nop
9d00bb20:	00000000 	nop
9d00bb24:	1000fffc 	b	9d00bb18 <dpcmplt+0x114>
9d00bb28:	34020001 	li	v0,0x1
9d00bb2c:	00000000 	nop

Disassembly of section .text:

9d00bb30 <dpfloor>:
9d00bb30:	3c018000 00a13024 00053840 00073d42     ...<$0..@8..B=..
9d00bb40:	240107ff 10e1002b 00000000 24090433     ...$+.......3..$
9d00bb50:	01273823 2ce10035 1420000b 00000000     #8'.5..,.. .....
9d00bb60:	04e00020 00000000 10c0002d 00000000      .......-.......
9d00bb70:	00054840 01244825 15200026 00000000     @H..%H$.&. .....
9d00bb80:	10000027 00000000                       '.......

9d00bb88 <i1>:
9d00bb88:	10c00005 	beqz	a2,9d00bba0 <i3>
9d00bb8c:	00000000 	nop
9d00bb90:	0004482b 	sltu	t1,zero,a0
9d00bb94:	00042023 	negu	a0,a0
9d00bb98:	00052823 	negu	a1,a1
9d00bb9c:	00a92823 	subu	a1,a1,t1

9d00bba0 <i3>:
9d00bba0:	30e9001f 	andi	t1,a3,0x1f
9d00bba4:	24080001 	li	t0,1
9d00bba8:	01284004 	sllv	t0,t0,t1
9d00bbac:	00084023 	negu	t0,t0
9d00bbb0:	2ce10020 	sltiu	at,a3,32
9d00bbb4:	14200004 	bnez	at,9d00bbc8 <i4>
9d00bbb8:	00000000 	nop
9d00bbbc:	24040000 	li	a0,0
9d00bbc0:	10000002 	b	9d00bbcc <e4>
9d00bbc4:	00a82824 	and	a1,a1,t0

9d00bbc8 <i4>:
9d00bbc8:	00882024 	and	a0,a0,t0

9d00bbcc <e4>:
9d00bbcc:	10c00005 	beqz	a2,9d00bbe4 <Aret>
9d00bbd0:	00000000 	nop
9d00bbd4:	0004482b 	sltu	t1,zero,a0
9d00bbd8:	00042023 	negu	a0,a0
9d00bbdc:	00052823 	negu	a1,a1
9d00bbe0:	00a92823 	subu	a1,a1,t1

9d00bbe4 <Aret>:
9d00bbe4:	00041025 	or	v0,zero,a0
9d00bbe8:	00051825 	or	v1,zero,a1

9d00bbec <A999>:
9d00bbec:	03e00008 	jr	ra
9d00bbf0:	00000000 	nop

9d00bbf4 <Aspec>:
9d00bbf4:	3c01000f 	lui	at,0xf
9d00bbf8:	3421ffff 	ori	at,at,0xffff
9d00bbfc:	00a14824 	and	t1,a1,at
9d00bc00:	01244825 	or	t1,t1,a0
9d00bc04:	15200009 	bnez	t1,9d00bc2c <Anan>
9d00bc08:	00000000 	nop
9d00bc0c:	1000fff5 	b	9d00bbe4 <Aret>
9d00bc10:	00000000 	nop

9d00bc14 <Amin1>:
9d00bc14:	3c05bff0 	lui	a1,0xbff0
9d00bc18:	1000fff2 	b	9d00bbe4 <Aret>
9d00bc1c:	24040000 	li	a0,0

9d00bc20 <Azer>:
9d00bc20:	00062825 	or	a1,zero,a2
9d00bc24:	1000ffef 	b	9d00bbe4 <Aret>
9d00bc28:	24040000 	li	a0,0

9d00bc2c <Anan>:
9d00bc2c:	3c05fff8 	lui	a1,0xfff8
9d00bc30:	1000ffec 	b	9d00bbe4 <Aret>
9d00bc34:	24040000 	li	a0,0

Disassembly of section .text.__pad:

9d00bc38 <__pad>:
9d00bc38:	27bdffc0 	addiu	sp,sp,-64
9d00bc3c:	afb3002c 	sw	s3,44(sp)
9d00bc40:	8fb30050 	lw	s3,80(sp)
9d00bc44:	afb60038 	sw	s6,56(sp)
9d00bc48:	afb40030 	sw	s4,48(sp)
9d00bc4c:	32730001 	andi	s3,s3,0x1
9d00bc50:	afb20028 	sw	s2,40(sp)
9d00bc54:	afb10024 	sw	s1,36(sp)
9d00bc58:	afb00020 	sw	s0,32(sp)
9d00bc5c:	afbf003c 	sw	ra,60(sp)
9d00bc60:	afb50034 	sw	s5,52(sp)
9d00bc64:	00809025 	move	s2,a0
9d00bc68:	00a0b025 	move	s6,a1
9d00bc6c:	00c08025 	move	s0,a2
9d00bc70:	00e08825 	move	s1,a3
9d00bc74:	16600003 	bnez	s3,9d00bc84 <__pad+0x4c>
9d00bc78:	00c7a02b 	sltu	s4,a2,a3
9d00bc7c:	56800013 	bnezl	s4,9d00bccc <__pad+0x94>
9d00bc80:	0230a023 	subu	s4,s1,s0
9d00bc84:	02003025 	move	a2,s0
9d00bc88:	02c02825 	move	a1,s6
9d00bc8c:	0f403256 	jal	9d00c958 <__out>
9d00bc90:	02402025 	move	a0,s2
9d00bc94:	1680000d 	bnez	s4,9d00bccc <__pad+0x94>
9d00bc98:	0230a023 	subu	s4,s1,s0
9d00bc9c:	02008825 	move	s1,s0
9d00bca0:	8fbf003c 	lw	ra,60(sp)
9d00bca4:	02201025 	move	v0,s1
9d00bca8:	8fb60038 	lw	s6,56(sp)
9d00bcac:	8fb50034 	lw	s5,52(sp)
9d00bcb0:	8fb40030 	lw	s4,48(sp)
9d00bcb4:	8fb3002c 	lw	s3,44(sp)
9d00bcb8:	8fb20028 	lw	s2,40(sp)
9d00bcbc:	8fb10024 	lw	s1,36(sp)
9d00bcc0:	8fb00020 	lw	s0,32(sp)
9d00bcc4:	03e00008 	jr	ra
9d00bcc8:	27bd0040 	addiu	sp,sp,64
9d00bccc:	2e860011 	sltiu	a2,s4,17
9d00bcd0:	24020010 	li	v0,16
9d00bcd4:	0286100b 	movn	v0,s4,a2
9d00bcd8:	00403025 	move	a2,v0
9d00bcdc:	24050020 	li	a1,32
9d00bce0:	27a40010 	addiu	a0,sp,16
9d00bce4:	0f4030d1 	jal	9d00c344 <memset>
9d00bce8:	0280a825 	move	s5,s4
9d00bcec:	2ea20010 	sltiu	v0,s5,16
9d00bcf0:	1040000b 	beqz	v0,9d00bd20 <__pad+0xe8>
9d00bcf4:	3286000f 	andi	a2,s4,0xf
9d00bcf8:	27a50010 	addiu	a1,sp,16
9d00bcfc:	0f403256 	jal	9d00c958 <__out>
9d00bd00:	02402025 	move	a0,s2
9d00bd04:	1660ffe6 	bnez	s3,9d00bca0 <__pad+0x68>
9d00bd08:	02003025 	move	a2,s0
9d00bd0c:	02c02825 	move	a1,s6
9d00bd10:	0f403256 	jal	9d00c958 <__out>
9d00bd14:	02402025 	move	a0,s2
9d00bd18:	1000ffe2 	b	9d00bca4 <__pad+0x6c>
9d00bd1c:	8fbf003c 	lw	ra,60(sp)
9d00bd20:	24060010 	li	a2,16
9d00bd24:	27a50010 	addiu	a1,sp,16
9d00bd28:	0f403256 	jal	9d00c958 <__out>
9d00bd2c:	02402025 	move	a0,s2
9d00bd30:	1000ffee 	b	9d00bcec <__pad+0xb4>
9d00bd34:	26b5fff0 	addiu	s5,s5,-16

Disassembly of section .text.dptofp:

9d00bd38 <__truncdfsf2>:
9d00bd38:	00053ac0 00045d42 00eb3825 000432c0     .:..B]..%8...2..
9d00bd48:	3c018000 00e13825 3c018000 00a14824     ...<%8.....<$H..
9d00bd58:	00054040 00084542 2508fc80 250bffff     @@..BE.....%...%
9d00bd68:	2d6100fe 10200012 00000000              ..a-.. .....

9d00bd74 <Hlab1>:
9d00bd74:	10c00002 	beqz	a2,9d00bd80 <i45>
9d00bd78:	00000000 	nop
9d00bd7c:	34e70001 	ori	a3,a3,0x1

9d00bd80 <i45>:
9d00bd80:	24e70080 	addiu	a3,a3,128
9d00bd84:	2ceb0080 	sltiu	t3,a3,128
9d00bd88:	010b4021 	addu	t0,t0,t3
9d00bd8c:	00075a02 	srl	t3,a3,0x8
9d00bd90:	316b0001 	andi	t3,t3,0x1
9d00bd94:	00eb3823 	subu	a3,a3,t3
9d00bd98:	00073840 	sll	a3,a3,0x1
9d00bd9c:	00073a42 	srl	a3,a3,0x9
9d00bda0:	00085dc0 	sll	t3,t0,0x17
9d00bda4:	00eb3825 	or	a3,a3,t3
9d00bda8:	00e91025 	or	v0,a3,t1

9d00bdac <H999>:
9d00bdac:	03e00008 	jr	ra
9d00bdb0:	00000000 	nop
9d00bdb4:	00000000 	nop

9d00bdb8 <Hspec>:
9d00bdb8:	2401047f 	li	at,1151
9d00bdbc:	15010007 	bne	t0,at,9d00bddc <i46>
9d00bdc0:	00000000 	nop
9d00bdc4:	00075840 	sll	t3,a3,0x1
9d00bdc8:	01665825 	or	t3,t3,a2
9d00bdcc:	11600003 	beqz	t3,9d00bddc <i46>
9d00bdd0:	00000000 	nop
9d00bdd4:	1000fff5 	b	9d00bdac <H999>
9d00bdd8:	3c02ffc0 	lui	v0,0xffc0

9d00bddc <i46>:
9d00bddc:	290100ff 	slti	at,t0,255
9d00bde0:	14200004 	bnez	at,9d00bdf4 <i48>
9d00bde4:	00000000 	nop
9d00bde8:	3c017f80 	lui	at,0x7f80
9d00bdec:	1000ffef 	b	9d00bdac <H999>
9d00bdf0:	01211025 	or	v0,t1,at

9d00bdf4 <i48>:
9d00bdf4:	240a0001 	li	t2,1
9d00bdf8:	01485023 	subu	t2,t2,t0
9d00bdfc:	2d410020 	sltiu	at,t2,32
9d00be00:	14200003 	bnez	at,9d00be10 <i49>
9d00be04:	00000000 	nop
9d00be08:	1000ffe8 	b	9d00bdac <H999>
9d00be0c:	00091025 	or	v0,zero,t1

9d00be10 <i49>:
9d00be10:	240c0020 	li	t4,32
9d00be14:	018a6023 	subu	t4,t4,t2
9d00be18:	01875804 	sllv	t3,a3,t4
9d00be1c:	00cb3025 	or	a2,a2,t3
9d00be20:	01473806 	srlv	a3,a3,t2
9d00be24:	24080000 	li	t0,0
9d00be28:	3c018000 	lui	at,0x8000
9d00be2c:	1000ffd1 	b	9d00bd74 <Hlab1>
9d00be30:	00e13825 	or	a3,a3,at
9d00be34:	00000000 	nop

Disassembly of section .text.__fmt_o:

9d00be38 <__fmt_o>:
9d00be38:	8ca20000 	lw	v0,0(a1)
9d00be3c:	8ca30004 	lw	v1,4(a1)
9d00be40:	27bdffc0 	addiu	sp,sp,-64
9d00be44:	afb30038 	sw	s3,56(sp)
9d00be48:	afb20034 	sw	s2,52(sp)
9d00be4c:	afb10030 	sw	s1,48(sp)
9d00be50:	afb0002c 	sw	s0,44(sp)
9d00be54:	afbf003c 	sw	ra,60(sp)
9d00be58:	00809025 	move	s2,a0
9d00be5c:	00a08025 	move	s0,a1
9d00be60:	8cb30008 	lw	s3,8(a1)
9d00be64:	afa20020 	sw	v0,32(sp)
9d00be68:	04600003 	bltz	v1,9d00be78 <__fmt_o+0x40>
9d00be6c:	8cb1000c 	lw	s1,12(a1)
9d00be70:	7c020844 	ins	v0,zero,0x1,0x1
9d00be74:	afa20020 	sw	v0,32(sp)
9d00be78:	27a20020 	addiu	v0,sp,32
9d00be7c:	afa20018 	sw	v0,24(sp)
9d00be80:	24020008 	li	v0,8
9d00be84:	afa20014 	sw	v0,20(sp)
9d00be88:	afb30010 	sw	s3,16(sp)
9d00be8c:	8cc70004 	lw	a3,4(a2)
9d00be90:	8cc60000 	lw	a2,0(a2)
9d00be94:	0f402de7 	jal	9d00b79c <__cvt_u>
9d00be98:	02002025 	move	a0,s0
9d00be9c:	8fa30020 	lw	v1,32(sp)
9d00bea0:	30630010 	andi	v1,v1,0x10
9d00bea4:	10600004 	beqz	v1,9d00beb8 <__fmt_o+0x80>
9d00bea8:	24040030 	li	a0,48
9d00beac:	2442ffff 	addiu	v0,v0,-1
9d00beb0:	02221821 	addu	v1,s1,v0
9d00beb4:	a0640000 	sb	a0,0(v1)
9d00beb8:	8fa30020 	lw	v1,32(sp)
9d00bebc:	30630008 	andi	v1,v1,0x8
9d00bec0:	10600004 	beqz	v1,9d00bed4 <__fmt_o+0x9c>
9d00bec4:	24040020 	li	a0,32
9d00bec8:	2442ffff 	addiu	v0,v0,-1
9d00becc:	02221821 	addu	v1,s1,v0
9d00bed0:	a0640000 	sb	a0,0(v1)
9d00bed4:	8e060010 	lw	a2,16(s0)
9d00bed8:	8fa30020 	lw	v1,32(sp)
9d00bedc:	02603825 	move	a3,s3
9d00bee0:	24c6ffff 	addiu	a2,a2,-1
9d00bee4:	afa30010 	sw	v1,16(sp)
9d00bee8:	00c23023 	subu	a2,a2,v0
9d00beec:	02222821 	addu	a1,s1,v0
9d00bef0:	0f402f0e 	jal	9d00bc38 <__pad>
9d00bef4:	02402025 	move	a0,s2
9d00bef8:	8e430004 	lw	v1,4(s2)
9d00befc:	30630100 	andi	v1,v1,0x100
9d00bf00:	10600004 	beqz	v1,9d00bf14 <__fmt_o+0xdc>
9d00bf04:	8fbf003c 	lw	ra,60(sp)
9d00bf08:	8e030004 	lw	v1,4(s0)
9d00bf0c:	0043202a 	slt	a0,v0,v1
9d00bf10:	0064100b 	movn	v0,v1,a0
9d00bf14:	8fb30038 	lw	s3,56(sp)
9d00bf18:	8fb20034 	lw	s2,52(sp)
9d00bf1c:	8fb10030 	lw	s1,48(sp)
9d00bf20:	8fb0002c 	lw	s0,44(sp)
9d00bf24:	03e00008 	jr	ra
9d00bf28:	27bd0040 	addiu	sp,sp,64

Disassembly of section .text.scalbn:

9d00bf2c <scalbn>:
9d00bf2c:	27bdffe0 	addiu	sp,sp,-32
9d00bf30:	afb10014 	sw	s1,20(sp)
9d00bf34:	00c08825 	move	s1,a2
9d00bf38:	28c60400 	slti	a2,a2,1024
9d00bf3c:	afbf001c 	sw	ra,28(sp)
9d00bf40:	afb20018 	sw	s2,24(sp)
9d00bf44:	14c0001f 	bnez	a2,9d00bfc4 <scalbn+0x98>
9d00bf48:	afb00010 	sw	s0,16(sp)
9d00bf4c:	3c129d00 	lui	s2,0x9d00
9d00bf50:	8e467530 	lw	a2,30000(s2)
9d00bf54:	8e477534 	lw	a3,30004(s2)
9d00bf58:	0f402908 	jal	9d00a420 <__muldf3>
9d00bf5c:	2630fc01 	addiu	s0,s1,-1023
9d00bf60:	2a040400 	slti	a0,s0,1024
9d00bf64:	14800009 	bnez	a0,9d00bf8c <scalbn+0x60>
9d00bf68:	8e467530 	lw	a2,30000(s2)
9d00bf6c:	8e477534 	lw	a3,30004(s2)
9d00bf70:	00402025 	move	a0,v0
9d00bf74:	00602825 	move	a1,v1
9d00bf78:	0f402908 	jal	9d00a420 <__muldf3>
9d00bf7c:	2630f802 	addiu	s0,s1,-2046
9d00bf80:	2a050400 	slti	a1,s0,1024
9d00bf84:	240403ff 	li	a0,1023
9d00bf88:	0085800a 	movz	s0,a0,a1
9d00bf8c:	261003ff 	addiu	s0,s0,1023
9d00bf90:	00102500 	sll	a0,s0,0x14
9d00bf94:	00002825 	move	a1,zero
9d00bf98:	00a03025 	move	a2,a1
9d00bf9c:	00803825 	move	a3,a0
9d00bfa0:	00602825 	move	a1,v1
9d00bfa4:	0f402908 	jal	9d00a420 <__muldf3>
9d00bfa8:	00402025 	move	a0,v0
9d00bfac:	8fbf001c 	lw	ra,28(sp)
9d00bfb0:	8fb20018 	lw	s2,24(sp)
9d00bfb4:	8fb10014 	lw	s1,20(sp)
9d00bfb8:	8fb00010 	lw	s0,16(sp)
9d00bfbc:	03e00008 	jr	ra
9d00bfc0:	27bd0020 	addiu	sp,sp,32
9d00bfc4:	2a26fc02 	slti	a2,s1,-1022
9d00bfc8:	00801025 	move	v0,a0
9d00bfcc:	00a01825 	move	v1,a1
9d00bfd0:	10c0ffee 	beqz	a2,9d00bf8c <scalbn+0x60>
9d00bfd4:	02208025 	move	s0,s1
9d00bfd8:	3c129d00 	lui	s2,0x9d00
9d00bfdc:	8e467538 	lw	a2,30008(s2)
9d00bfe0:	8e47753c 	lw	a3,30012(s2)
9d00bfe4:	0f402908 	jal	9d00a420 <__muldf3>
9d00bfe8:	263003c9 	addiu	s0,s1,969
9d00bfec:	2a04fc02 	slti	a0,s0,-1022
9d00bff0:	1080ffe6 	beqz	a0,9d00bf8c <scalbn+0x60>
9d00bff4:	8e467538 	lw	a2,30008(s2)
9d00bff8:	8e47753c 	lw	a3,30012(s2)
9d00bffc:	00402025 	move	a0,v0
9d00c000:	00602825 	move	a1,v1
9d00c004:	0f402908 	jal	9d00a420 <__muldf3>
9d00c008:	26300792 	addiu	s0,s1,1938
9d00c00c:	2a05fc02 	slti	a1,s0,-1022
9d00c010:	2404fc02 	li	a0,-1022
9d00c014:	1000ffdd 	b	9d00bf8c <scalbn+0x60>
9d00c018:	0085800b 	movn	s0,a0,a1

Disassembly of section .text.__pop_ptr:

9d00c01c <__pop_ptr>:
9d00c01c:	24020084 	li	v0,132
9d00c020:	50a20022 	beql	a1,v0,9d00c0ac <__pop_ptr+0x90>
9d00c024:	8ce20000 	lw	v0,0(a3)
9d00c028:	28a20085 	slti	v0,a1,133
9d00c02c:	10400010 	beqz	v0,9d00c070 <__pop_ptr+0x54>
9d00c030:	24020081 	li	v0,129
9d00c034:	50a20008 	beql	a1,v0,9d00c058 <__pop_ptr+0x3c>
9d00c038:	8ce20000 	lw	v0,0(a3)
9d00c03c:	24020082 	li	v0,130
9d00c040:	50a20027 	beql	a1,v0,9d00c0e0 <__pop_ptr+0xc4>
9d00c044:	8ce20000 	lw	v0,0(a3)
9d00c048:	24020080 	li	v0,128
9d00c04c:	14a20010 	bne	a1,v0,9d00c090 <__pop_ptr+0x74>
9d00c050:	00000000 	nop
9d00c054:	8ce20000 	lw	v0,0(a3)
9d00c058:	24430004 	addiu	v1,v0,4
9d00c05c:	ace30000 	sw	v1,0(a3)
9d00c060:	8c420000 	lw	v0,0(v0)
9d00c064:	ac820000 	sw	v0,0(a0)
9d00c068:	10000015 	b	9d00c0c0 <__pop_ptr+0xa4>
9d00c06c:	ac460000 	sw	a2,0(v0)
9d00c070:	24020090 	li	v0,144
9d00c074:	50a2001a 	beql	a1,v0,9d00c0e0 <__pop_ptr+0xc4>
9d00c078:	8ce20000 	lw	v0,0(a3)
9d00c07c:	28a20091 	slti	v0,a1,145
9d00c080:	10400005 	beqz	v0,9d00c098 <__pop_ptr+0x7c>
9d00c084:	24020088 	li	v0,136
9d00c088:	50a2000f 	beql	a1,v0,9d00c0c8 <__pop_ptr+0xac>
9d00c08c:	8ce20000 	lw	v0,0(a3)
9d00c090:	03e00008 	jr	ra
9d00c094:	00001025 	move	v0,zero
9d00c098:	240200a0 	li	v0,160
9d00c09c:	50a2ffee 	beql	a1,v0,9d00c058 <__pop_ptr+0x3c>
9d00c0a0:	8ce20000 	lw	v0,0(a3)
9d00c0a4:	1000ffe9 	b	9d00c04c <__pop_ptr+0x30>
9d00c0a8:	240200c0 	li	v0,192
9d00c0ac:	24430004 	addiu	v1,v0,4
9d00c0b0:	ace30000 	sw	v1,0(a3)
9d00c0b4:	8c420000 	lw	v0,0(v0)
9d00c0b8:	ac820000 	sw	v0,0(a0)
9d00c0bc:	a4460000 	sh	a2,0(v0)
9d00c0c0:	03e00008 	jr	ra
9d00c0c4:	24020001 	li	v0,1
9d00c0c8:	24430004 	addiu	v1,v0,4
9d00c0cc:	ace30000 	sw	v1,0(a3)
9d00c0d0:	8c420000 	lw	v0,0(v0)
9d00c0d4:	ac820000 	sw	v0,0(a0)
9d00c0d8:	1000fff9 	b	9d00c0c0 <__pop_ptr+0xa4>
9d00c0dc:	a0460000 	sb	a2,0(v0)
9d00c0e0:	24430004 	addiu	v1,v0,4
9d00c0e4:	ace30000 	sw	v1,0(a3)
9d00c0e8:	8c420000 	lw	v0,0(v0)
9d00c0ec:	ac820000 	sw	v0,0(a0)
9d00c0f0:	ac460000 	sw	a2,0(v0)
9d00c0f4:	000637c3 	sra	a2,a2,0x1f
9d00c0f8:	1000fff1 	b	9d00c0c0 <__pop_ptr+0xa4>
9d00c0fc:	ac460004 	sw	a2,4(v0)

Disassembly of section .text.general_exception:

9d00c100 <_general_exception_context>:
9d00c100:	27bdffa8 	addiu	sp,sp,-88
9d00c104:	afa10004 	sw	at,4(sp)
9d00c108:	afa20008 	sw	v0,8(sp)
9d00c10c:	afa3000c 	sw	v1,12(sp)
9d00c110:	afa40010 	sw	a0,16(sp)
9d00c114:	afa50014 	sw	a1,20(sp)
9d00c118:	afa60018 	sw	a2,24(sp)
9d00c11c:	afa7001c 	sw	a3,28(sp)
9d00c120:	afa80020 	sw	t0,32(sp)
9d00c124:	afa90024 	sw	t1,36(sp)
9d00c128:	afaa0028 	sw	t2,40(sp)
9d00c12c:	afab002c 	sw	t3,44(sp)
9d00c130:	afac0030 	sw	t4,48(sp)
9d00c134:	afad0034 	sw	t5,52(sp)
9d00c138:	afae0038 	sw	t6,56(sp)
9d00c13c:	afaf003c 	sw	t7,60(sp)
9d00c140:	afb80040 	sw	t8,64(sp)
9d00c144:	afb90044 	sw	t9,68(sp)
9d00c148:	afbf0048 	sw	ra,72(sp)
9d00c14c:	00004012 	mflo	t0
9d00c150:	afa8004c 	sw	t0,76(sp)
9d00c154:	00004010 	mfhi	t0
9d00c158:	afa80050 	sw	t0,80(sp)
9d00c15c:	3c1a9d01 	lui	k0,0x9d01
9d00c160:	275acb40 	addiu	k0,k0,-13504
9d00c164:	00000000 	nop
9d00c168:	40046800 	mfc0	a0,c0_cause
9d00c16c:	40056000 	mfc0	a1,c0_status
9d00c170:	0340f809 	jalr	k0
9d00c174:	00000000 	nop
9d00c178:	8fa80050 	lw	t0,80(sp)
9d00c17c:	01000011 	mthi	t0
9d00c180:	8fa8004c 	lw	t0,76(sp)
9d00c184:	01000013 	mtlo	t0
9d00c188:	8fa10004 	lw	at,4(sp)
9d00c18c:	8fa20008 	lw	v0,8(sp)
9d00c190:	8fa3000c 	lw	v1,12(sp)
9d00c194:	8fa40010 	lw	a0,16(sp)
9d00c198:	8fa50014 	lw	a1,20(sp)
9d00c19c:	8fa60018 	lw	a2,24(sp)
9d00c1a0:	8fa7001c 	lw	a3,28(sp)
9d00c1a4:	8fa80020 	lw	t0,32(sp)
9d00c1a8:	8fa90024 	lw	t1,36(sp)
9d00c1ac:	8faa0028 	lw	t2,40(sp)
9d00c1b0:	8fab002c 	lw	t3,44(sp)
9d00c1b4:	8fac0030 	lw	t4,48(sp)
9d00c1b8:	8fad0034 	lw	t5,52(sp)
9d00c1bc:	8fae0038 	lw	t6,56(sp)
9d00c1c0:	8faf003c 	lw	t7,60(sp)
9d00c1c4:	8fb80040 	lw	t8,64(sp)
9d00c1c8:	8fb90044 	lw	t9,68(sp)
9d00c1cc:	8fbf0048 	lw	ra,72(sp)
9d00c1d0:	27bd0058 	addiu	sp,sp,88
9d00c1d4:	000000c0 	ehb
9d00c1d8:	42000018 	eret

Disassembly of section .text.__fmt_u:

9d00c1dc <__fmt_u>:
9d00c1dc:	8ca20000 	lw	v0,0(a1)
9d00c1e0:	8ca30004 	lw	v1,4(a1)
9d00c1e4:	27bdffc0 	addiu	sp,sp,-64
9d00c1e8:	afb30038 	sw	s3,56(sp)
9d00c1ec:	afb20034 	sw	s2,52(sp)
9d00c1f0:	afb10030 	sw	s1,48(sp)
9d00c1f4:	afb0002c 	sw	s0,44(sp)
9d00c1f8:	afbf003c 	sw	ra,60(sp)
9d00c1fc:	00808825 	move	s1,a0
9d00c200:	00a08025 	move	s0,a1
9d00c204:	8cb20008 	lw	s2,8(a1)
9d00c208:	afa20020 	sw	v0,32(sp)
9d00c20c:	04600003 	bltz	v1,9d00c21c <__fmt_u+0x40>
9d00c210:	8cb3000c 	lw	s3,12(a1)
9d00c214:	7c020844 	ins	v0,zero,0x1,0x1
9d00c218:	afa20020 	sw	v0,32(sp)
9d00c21c:	27a20020 	addiu	v0,sp,32
9d00c220:	afa20018 	sw	v0,24(sp)
9d00c224:	2402000a 	li	v0,10
9d00c228:	afa20014 	sw	v0,20(sp)
9d00c22c:	afb20010 	sw	s2,16(sp)
9d00c230:	8cc70004 	lw	a3,4(a2)
9d00c234:	8cc60000 	lw	a2,0(a2)
9d00c238:	0f402de7 	jal	9d00b79c <__cvt_u>
9d00c23c:	02002025 	move	a0,s0
9d00c240:	8e060010 	lw	a2,16(s0)
9d00c244:	8fa30020 	lw	v1,32(sp)
9d00c248:	02403825 	move	a3,s2
9d00c24c:	24c6ffff 	addiu	a2,a2,-1
9d00c250:	afa30010 	sw	v1,16(sp)
9d00c254:	00c23023 	subu	a2,a2,v0
9d00c258:	02622821 	addu	a1,s3,v0
9d00c25c:	0f402f0e 	jal	9d00bc38 <__pad>
9d00c260:	02202025 	move	a0,s1
9d00c264:	8e230004 	lw	v1,4(s1)
9d00c268:	30630100 	andi	v1,v1,0x100
9d00c26c:	10600004 	beqz	v1,9d00c280 <__fmt_u+0xa4>
9d00c270:	8fbf003c 	lw	ra,60(sp)
9d00c274:	8e030004 	lw	v1,4(s0)
9d00c278:	0043202a 	slt	a0,v0,v1
9d00c27c:	0064100b 	movn	v0,v1,a0
9d00c280:	8fb30038 	lw	s3,56(sp)
9d00c284:	8fb20034 	lw	s2,52(sp)
9d00c288:	8fb10030 	lw	s1,48(sp)
9d00c28c:	8fb0002c 	lw	s0,44(sp)
9d00c290:	03e00008 	jr	ra
9d00c294:	27bd0040 	addiu	sp,sp,64

Disassembly of section .text.fptodp:

9d00c298 <__extendsfdf2>:
9d00c298:	00043dc2 30e700ff 3c018000 00813024     .=.....0...<$0..
9d00c2a8:	24e9ffff 2d2100fe 1020000d 00000000     ...$..!-.. .....

9d00c2b8 <Glab1>:
9d00c2b8:	24e70380 	addiu	a3,a3,896
9d00c2bc:	00044a40 	sll	t1,a0,0x9
9d00c2c0:	00094b02 	srl	t1,t1,0xc
9d00c2c4:	00c93025 	or	a2,a2,t1
9d00c2c8:	00042f40 	sll	a1,a0,0x1d

9d00c2cc <Gret>:
9d00c2cc:	00074d00 	sll	t1,a3,0x14
9d00c2d0:	00c93025 	or	a2,a2,t1
9d00c2d4:	00051025 	or	v0,zero,a1
9d00c2d8:	00061825 	or	v1,zero,a2

9d00c2dc <G999>:
9d00c2dc:	03e00008 	jr	ra
9d00c2e0:	00000000 	nop
9d00c2e4:	00000000 	nop

9d00c2e8 <Gspec>:
9d00c2e8:	24050000 	li	a1,0
9d00c2ec:	00842021 	addu	a0,a0,a0
9d00c2f0:	1080fff6 	beqz	a0,9d00c2cc <Gret>
9d00c2f4:	00000000 	nop
9d00c2f8:	14e00009 	bnez	a3,9d00c320 <i42>
9d00c2fc:	00000000 	nop

9d00c300 <b43>:
9d00c300:	24e7ffff 	addiu	a3,a3,-1
9d00c304:	00842021 	addu	a0,a0,a0
9d00c308:	3c010080 	lui	at,0x80
9d00c30c:	0081082b 	sltu	at,a0,at
9d00c310:	1420fffb 	bnez	at,9d00c300 <b43>
9d00c314:	00000000 	nop
9d00c318:	1000ffe7 	b	9d00c2b8 <Glab1>
9d00c31c:	00000000 	nop

9d00c320 <i42>:
9d00c320:	240707ff 	li	a3,2047
9d00c324:	3c01ff00 	lui	at,0xff00
9d00c328:	34210001 	ori	at,at,0x1
9d00c32c:	0081082b 	sltu	at,a0,at
9d00c330:	1420ffe6 	bnez	at,9d00c2cc <Gret>
9d00c334:	00000000 	nop
9d00c338:	1000ffe4 	b	9d00c2cc <Gret>
9d00c33c:	3c06fff8 	lui	a2,0xfff8
9d00c340:	00000000 	nop

Disassembly of section .text:

9d00c344 <memset>:
9d00c344:	00801025 	move	v0,a0
9d00c348:	10c00026 	beqz	a2,9d00c3e4 <memset+0xa0>
9d00c34c:	2cca0010 	sltiu	t2,a2,16
9d00c350:	1540001f 	bnez	t2,9d00c3d0 <memset+0x8c>
9d00c354:	30a500ff 	andi	a1,a1,0xff
9d00c358:	00055200 	sll	t2,a1,0x8
9d00c35c:	00aa2825 	or	a1,a1,t2
9d00c360:	00055400 	sll	t2,a1,0x10
9d00c364:	00aa2825 	or	a1,a1,t2
9d00c368:	30830003 	andi	v1,a0,0x3
9d00c36c:	10600005 	beqz	v1,9d00c384 <memset+0x40>
9d00c370:	24070004 	li	a3,4
9d00c374:	00e33823 	subu	a3,a3,v1
9d00c378:	00c73023 	subu	a2,a2,a3
9d00c37c:	b8850000 	swr	a1,0(a0)
9d00c380:	00872021 	addu	a0,a0,a3
9d00c384:	30c3000f 	andi	v1,a2,0xf
9d00c388:	00c33823 	subu	a3,a2,v1
9d00c38c:	10e00008 	beqz	a3,9d00c3b0 <memset+0x6c>
9d00c390:	00603025 	move	a2,v1
9d00c394:	00e43821 	addu	a3,a3,a0
9d00c398:	ac850000 	sw	a1,0(a0)
9d00c39c:	ac850004 	sw	a1,4(a0)
9d00c3a0:	ac850008 	sw	a1,8(a0)
9d00c3a4:	24840010 	addiu	a0,a0,16
9d00c3a8:	1487fffb 	bne	a0,a3,9d00c398 <memset+0x54>
9d00c3ac:	ac85fffc 	sw	a1,-4(a0)
9d00c3b0:	30c30003 	andi	v1,a2,0x3
9d00c3b4:	00c33823 	subu	a3,a2,v1
9d00c3b8:	10e00005 	beqz	a3,9d00c3d0 <memset+0x8c>
9d00c3bc:	00603025 	move	a2,v1
9d00c3c0:	00e43821 	addu	a3,a3,a0
9d00c3c4:	24840004 	addiu	a0,a0,4
9d00c3c8:	1487fffe 	bne	a0,a3,9d00c3c4 <memset+0x80>
9d00c3cc:	ac85fffc 	sw	a1,-4(a0)
9d00c3d0:	10c00004 	beqz	a2,9d00c3e4 <memset+0xa0>
9d00c3d4:	00c43821 	addu	a3,a2,a0
9d00c3d8:	24840001 	addiu	a0,a0,1
9d00c3dc:	1487fffe 	bne	a0,a3,9d00c3d8 <memset+0x94>
9d00c3e0:	a085ffff 	sb	a1,-1(a0)
9d00c3e4:	03e00008 	jr	ra
9d00c3e8:	00000000 	nop

Disassembly of section .text.normalize:

9d00c3ec <normalize>:
9d00c3ec:	27bdffe0 	addiu	sp,sp,-32
9d00c3f0:	afb10018 	sw	s1,24(sp)
9d00c3f4:	00078d02 	srl	s1,a3,0x14
9d00c3f8:	322507ff 	andi	a1,s1,0x7ff
9d00c3fc:	afb00014 	sw	s0,20(sp)
9d00c400:	afbf001c 	sw	ra,28(sp)
9d00c404:	00808025 	move	s0,a0
9d00c408:	00c01025 	move	v0,a2
9d00c40c:	14a0000e 	bnez	a1,9d00c448 <normalize+0x5c>
9d00c410:	00e02025 	move	a0,a3
9d00c414:	3c029d00 	lui	v0,0x9d00
9d00c418:	00c04025 	move	t0,a2
9d00c41c:	00e01825 	move	v1,a3
9d00c420:	8c467510 	lw	a2,29968(v0)
9d00c424:	8c477514 	lw	a3,29972(v0)
9d00c428:	01002025 	move	a0,t0
9d00c42c:	0f402908 	jal	9d00a420 <__muldf3>
9d00c430:	00602825 	move	a1,v1
9d00c434:	00602025 	move	a0,v1
9d00c438:	7c635500 	ext	v1,v1,0x14,0xb
9d00c43c:	10600002 	beqz	v1,9d00c448 <normalize+0x5c>
9d00c440:	24050800 	li	a1,2048
9d00c444:	2465ffc1 	addiu	a1,v1,-63
9d00c448:	000237c2 	srl	a2,v0,0x1f
9d00c44c:	00041840 	sll	v1,a0,0x1
9d00c450:	00021040 	sll	v0,v0,0x1
9d00c454:	00c31825 	or	v1,a2,v1
9d00c458:	8fbf001c 	lw	ra,28(sp)
9d00c45c:	ae020000 	sw	v0,0(s0)
9d00c460:	7c63a000 	ext	v1,v1,0x0,0x15
9d00c464:	3c020020 	lui	v0,0x20
9d00c468:	00431825 	or	v1,v0,v1
9d00c46c:	32310800 	andi	s1,s1,0x800
9d00c470:	24a5fbcc 	addiu	a1,a1,-1076
9d00c474:	ae11000c 	sw	s1,12(s0)
9d00c478:	02001025 	move	v0,s0
9d00c47c:	ae030004 	sw	v1,4(s0)
9d00c480:	ae050008 	sw	a1,8(s0)
9d00c484:	8fb10018 	lw	s1,24(sp)
9d00c488:	8fb00014 	lw	s0,20(sp)
9d00c48c:	03e00008 	jr	ra
9d00c490:	27bd0020 	addiu	sp,sp,32

Disassembly of section .text.__fmt_s:

9d00c494 <__fmt_s>:
9d00c494:	3c036c75 	lui	v1,0x6c75
9d00c498:	27bdffc8 	addiu	sp,sp,-56
9d00c49c:	24636e28 	addiu	v1,v1,28200
9d00c4a0:	afa30018 	sw	v1,24(sp)
9d00c4a4:	2403296c 	li	v1,10604
9d00c4a8:	afb20028 	sw	s2,40(sp)
9d00c4ac:	afb00020 	sw	s0,32(sp)
9d00c4b0:	afbf0034 	sw	ra,52(sp)
9d00c4b4:	afb40030 	sw	s4,48(sp)
9d00c4b8:	afb3002c 	sw	s3,44(sp)
9d00c4bc:	afb10024 	sw	s1,36(sp)
9d00c4c0:	00809025 	move	s2,a0
9d00c4c4:	00e01025 	move	v0,a3
9d00c4c8:	a7a3001c 	sh	v1,28(sp)
9d00c4cc:	a3a0001e 	sb	zero,30(sp)
9d00c4d0:	10c00002 	beqz	a2,9d00c4dc <__fmt_s+0x48>
9d00c4d4:	27b00018 	addiu	s0,sp,24
9d00c4d8:	00c08025 	move	s0,a2
9d00c4dc:	8cb10004 	lw	s1,4(a1)
9d00c4e0:	8cb30008 	lw	s3,8(a1)
9d00c4e4:	14400003 	bnez	v0,9d00c4f4 <__fmt_s+0x60>
9d00c4e8:	8cb40000 	lw	s4,0(a1)
9d00c4ec:	0f4033b6 	jal	9d00ced8 <strlen>
9d00c4f0:	02002025 	move	a0,s0
9d00c4f4:	06200002 	bltz	s1,9d00c500 <__fmt_s+0x6c>
9d00c4f8:	0222182b 	sltu	v1,s1,v0
9d00c4fc:	0223100b 	movn	v0,s1,v1
9d00c500:	afb40010 	sw	s4,16(sp)
9d00c504:	02603825 	move	a3,s3
9d00c508:	02002825 	move	a1,s0
9d00c50c:	02402025 	move	a0,s2
9d00c510:	0f402f0e 	jal	9d00bc38 <__pad>
9d00c514:	00403025 	move	a2,v0
9d00c518:	8fbf0034 	lw	ra,52(sp)
9d00c51c:	8fb40030 	lw	s4,48(sp)
9d00c520:	8fb3002c 	lw	s3,44(sp)
9d00c524:	8fb20028 	lw	s2,40(sp)
9d00c528:	8fb10024 	lw	s1,36(sp)
9d00c52c:	8fb00020 	lw	s0,32(sp)
9d00c530:	03e00008 	jr	ra
9d00c534:	27bd0038 	addiu	sp,sp,56

Disassembly of section .text.dptoli:

9d00c538 <__fixdfsi>:
9d00c538:	00053ac0 00045542 00ea3825 3c018000     .:..BU..%8.....<
9d00c548:	00e13825 00055040 000a5542 2406041e     %8..@P..BU.....$
9d00c558:	00ca3023 18c0000c 00000000 2cc10020     #0.......... ..,
9d00c568:	14200002 00000000 34070000              .. ........4

9d00c574 <L42>:
9d00c574:	04a10002 	bgez	a1,9d00c580 <i50>
9d00c578:	00c73806 	srlv	a3,a3,a2
9d00c57c:	00073823 	negu	a3,a3

9d00c580 <i50>:
9d00c580:	00071025 	or	v0,zero,a3

9d00c584 <I999>:
9d00c584:	03e00008 	jr	ra
9d00c588:	00000000 	nop
9d00c58c:	00000000 	nop

9d00c590 <Inaninf>:
9d00c590:	10800002 	beqz	a0,9d00c59c <i51>
9d00c594:	00000000 	nop
9d00c598:	34a50001 	ori	a1,a1,0x1

9d00c59c <i51>:
9d00c59c:	3c017ff0 	lui	at,0x7ff0
9d00c5a0:	34210001 	ori	at,at,0x1
9d00c5a4:	00a1082b 	sltu	at,a1,at
9d00c5a8:	14200003 	bnez	at,9d00c5b8 <i52>
9d00c5ac:	00000000 	nop
9d00c5b0:	1000fff4 	b	9d00c584 <I999>
9d00c5b4:	3c028000 	lui	v0,0x8000

9d00c5b8 <i52>:
9d00c5b8:	3c027fff 	lui	v0,0x7fff
9d00c5bc:	1000fff1 	b	9d00c584 <I999>
9d00c5c0:	3442ffff 	ori	v0,v0,0xffff
9d00c5c4:	00000000 	nop

Disassembly of section .text.dinit.startup:

9d00c5c8 <__pic32_data_init_impl>:
9d00c5c8:	3c089d01 	lui	t0,0x9d01
9d00c5cc:	2508cd08 	addiu	t0,t0,-13048
9d00c5d0:	1100001b 	beqz	t0,9d00c640 <_dinit_end+0x18>
9d00c5d4:	00000000 	nop
9d00c5d8:	8d090000 	lw	t1,0(t0)
9d00c5dc:	11200018 	beqz	t1,9d00c640 <_dinit_end+0x18>
9d00c5e0:	25080004 	addiu	t0,t0,4
9d00c5e4:	8d0a0000 	lw	t2,0(t0)
9d00c5e8:	25080004 	addiu	t0,t0,4
9d00c5ec:	8d0b0000 	lw	t3,0(t0)
9d00c5f0:	11600009 	beqz	t3,9d00c618 <_dinit_clear>
9d00c5f4:	25080004 	addiu	t0,t0,4

9d00c5f8 <_dinit_copy>:
9d00c5f8:	910c0000 	lbu	t4,0(t0)
9d00c5fc:	254affff 	addiu	t2,t2,-1
9d00c600:	25080001 	addiu	t0,t0,1
9d00c604:	a12c0000 	sb	t4,0(t1)
9d00c608:	1540fffb 	bnez	t2,9d00c5f8 <_dinit_copy>
9d00c60c:	25290001 	addiu	t1,t1,1
9d00c610:	10000005 	b	9d00c628 <_dinit_end>
9d00c614:	00000000 	nop

9d00c618 <_dinit_clear>:
9d00c618:	a1200000 	sb	zero,0(t1)
9d00c61c:	254affff 	addiu	t2,t2,-1
9d00c620:	1540fffd 	bnez	t2,9d00c618 <_dinit_clear>
9d00c624:	25290001 	addiu	t1,t1,1

9d00c628 <_dinit_end>:
9d00c628:	25080003 	addiu	t0,t0,3
9d00c62c:	240afffc 	li	t2,-4
9d00c630:	01484024 	and	t0,t2,t0
9d00c634:	8d090000 	lw	t1,0(t0)
9d00c638:	1520ffe7 	bnez	t1,9d00c5d8 <__pic32_data_init_impl+0x10>
9d00c63c:	00000000 	nop
9d00c640:	03e00008 	jr	ra
9d00c644:	00000000 	nop

Disassembly of section .text.__vsnprintf:

9d00c648 <__vsnprintf>:
9d00c648:	27bdffc8 	addiu	sp,sp,-56
9d00c64c:	2403ffff 	li	v1,-1
9d00c650:	afa30010 	sw	v1,16(sp)
9d00c654:	24030102 	li	v1,258
9d00c658:	00a01025 	move	v0,a1
9d00c65c:	afbf0034 	sw	ra,52(sp)
9d00c660:	00c02825 	move	a1,a2
9d00c664:	afa30014 	sw	v1,20(sp)
9d00c668:	14800002 	bnez	a0,9d00c674 <__vsnprintf+0x2c>
9d00c66c:	00e03025 	move	a2,a3
9d00c670:	27a4002c 	addiu	a0,sp,44
9d00c674:	afa40018 	sw	a0,24(sp)
9d00c678:	afa2001c 	sw	v0,28(sp)
9d00c67c:	10400002 	beqz	v0,9d00c688 <__vsnprintf+0x40>
9d00c680:	00001825 	move	v1,zero
9d00c684:	2443ffff 	addiu	v1,v0,-1
9d00c688:	04410008 	bgez	v0,9d00c6ac <__vsnprintf+0x64>
9d00c68c:	afa30020 	sw	v1,32(sp)
9d00c690:	3c02a000 	lui	v0,0xa000
9d00c694:	2403004f 	li	v1,79
9d00c698:	ac430204 	sw	v1,516(v0)
9d00c69c:	2402ffff 	li	v0,-1
9d00c6a0:	8fbf0034 	lw	ra,52(sp)
9d00c6a4:	03e00008 	jr	ra
9d00c6a8:	27bd0038 	addiu	sp,sp,56
9d00c6ac:	afa40028 	sw	a0,40(sp)
9d00c6b0:	afa40024 	sw	a0,36(sp)
9d00c6b4:	a0800000 	sb	zero,0(a0)
9d00c6b8:	0f403315 	jal	9d00cc54 <__vfprintf>
9d00c6bc:	27a40010 	addiu	a0,sp,16
9d00c6c0:	1000fff8 	b	9d00c6a4 <__vsnprintf+0x5c>
9d00c6c4:	8fbf0034 	lw	ra,52(sp)

Disassembly of section .text.atoi:

9d00c6c8 <atoi>:
9d00c6c8:	24050020 	li	a1,32
9d00c6cc:	80820000 	lb	v0,0(a0)
9d00c6d0:	1045000d 	beq	v0,a1,9d00c708 <atoi+0x40>
9d00c6d4:	2443fff7 	addiu	v1,v0,-9
9d00c6d8:	2c630005 	sltiu	v1,v1,5
9d00c6dc:	1460000a 	bnez	v1,9d00c708 <atoi+0x40>
9d00c6e0:	2403002b 	li	v1,43
9d00c6e4:	1043000a 	beq	v0,v1,9d00c710 <atoi+0x48>
9d00c6e8:	2403002d 	li	v1,45
9d00c6ec:	14430003 	bne	v0,v1,9d00c6fc <atoi+0x34>
9d00c6f0:	00002825 	move	a1,zero
9d00c6f4:	24050001 	li	a1,1
9d00c6f8:	24840001 	addiu	a0,a0,1
9d00c6fc:	00001025 	move	v0,zero
9d00c700:	10000007 	b	9d00c720 <atoi+0x58>
9d00c704:	2407000a 	li	a3,10
9d00c708:	1000fff0 	b	9d00c6cc <atoi+0x4>
9d00c70c:	24840001 	addiu	a0,a0,1
9d00c710:	1000fff9 	b	9d00c6f8 <atoi+0x30>
9d00c714:	00002825 	move	a1,zero
9d00c718:	24840001 	addiu	a0,a0,1
9d00c71c:	00431023 	subu	v0,v0,v1
9d00c720:	80830000 	lb	v1,0(a0)
9d00c724:	2463ffd0 	addiu	v1,v1,-48
9d00c728:	2c66000a 	sltiu	a2,v1,10
9d00c72c:	54c0fffa 	bnezl	a2,9d00c718 <atoi+0x50>
9d00c730:	70471002 	mul	v0,v0,a3
9d00c734:	50a00001 	beqzl	a1,9d00c73c <atoi+0x74>
9d00c738:	00021023 	negu	v0,v0
9d00c73c:	03e00008 	jr	ra
9d00c740:	00000000 	nop

Disassembly of section .text.litodp:

9d00c744 <__floatsidf>:
9d00c744:	24050000 00054825 00053825 00043025     ...$%H..%8..%0..
9d00c754:	10c0000c 00000000 04c10006 00000000     ................
9d00c764:	3c098000 0005502b 00052823 00063023     ...<+P..#(..#0..
9d00c774:	00ca3023                                #0..

9d00c778 <i40>:
9d00c778:	2407041e 	li	a3,1054
9d00c77c:	70c84020 	clz	t0,a2
9d00c780:	00e83823 	subu	a3,a3,t0
9d00c784:	01063004 	sllv	a2,a2,t0

9d00c788 <i39>:
9d00c788:	000542c2 	srl	t0,a1,0xb
9d00c78c:	00065540 	sll	t2,a2,0x15
9d00c790:	010a4025 	or	t0,t0,t2
9d00c794:	00065040 	sll	t2,a2,0x1
9d00c798:	000a5302 	srl	t2,t2,0xc
9d00c79c:	012a4825 	or	t1,t1,t2
9d00c7a0:	00075500 	sll	t2,a3,0x14
9d00c7a4:	012a4825 	or	t1,t1,t2
9d00c7a8:	00081025 	or	v0,zero,t0
9d00c7ac:	00091825 	or	v1,zero,t1

9d00c7b0 <E999>:
9d00c7b0:	03e00008 	jr	ra
9d00c7b4:	00000000 	nop
9d00c7b8:	00000000 	nop

Disassembly of section .text:

9d00c7bc <__floatdidf>:
9d00c7bc:	27bdffe0 	addiu	sp,sp,-32
9d00c7c0:	afb20018 	sw	s2,24(sp)
9d00c7c4:	00809025 	move	s2,a0
9d00c7c8:	00a02025 	move	a0,a1
9d00c7cc:	afbf001c 	sw	ra,28(sp)
9d00c7d0:	afb10014 	sw	s1,20(sp)
9d00c7d4:	0f4031d1 	jal	9d00c744 <__floatsidf>
9d00c7d8:	afb00010 	sw	s0,16(sp)
9d00c7dc:	3c049d00 	lui	a0,0x9d00
9d00c7e0:	8c867540 	lw	a2,30016(a0)
9d00c7e4:	8c877544 	lw	a3,30020(a0)
9d00c7e8:	00602825 	move	a1,v1
9d00c7ec:	0f402908 	jal	9d00a420 <__muldf3>
9d00c7f0:	00402025 	move	a0,v0
9d00c7f4:	02402025 	move	a0,s2
9d00c7f8:	00408025 	move	s0,v0
9d00c7fc:	0f403305 	jal	9d00cc14 <__floatunsidf>
9d00c800:	00608825 	move	s1,v1
9d00c804:	00402025 	move	a0,v0
9d00c808:	02003025 	move	a2,s0
9d00c80c:	02203825 	move	a3,s1
9d00c810:	0f402536 	jal	9d0094d8 <__adddf3>
9d00c814:	00602825 	move	a1,v1
9d00c818:	8fbf001c 	lw	ra,28(sp)
9d00c81c:	8fb20018 	lw	s2,24(sp)
9d00c820:	8fb10014 	lw	s1,20(sp)
9d00c824:	8fb00010 	lw	s0,16(sp)
9d00c828:	03e00008 	jr	ra
9d00c82c:	27bd0020 	addiu	sp,sp,32

Disassembly of section .text.a_clz_64:

9d00c830 <a_clz_64>:
9d00c830:	24030020 	li	v1,32
9d00c834:	00a5200b 	movn	a0,a1,a1
9d00c838:	0005180b 	movn	v1,zero,a1
9d00c83c:	00042c02 	srl	a1,a0,0x10
9d00c840:	14a00004 	bnez	a1,9d00c854 <a_clz_64+0x24>
9d00c844:	00051202 	srl	v0,a1,0x8
9d00c848:	34630010 	ori	v1,v1,0x10
9d00c84c:	00802825 	move	a1,a0
9d00c850:	00051202 	srl	v0,a1,0x8
9d00c854:	14400004 	bnez	v0,9d00c868 <a_clz_64+0x38>
9d00c858:	00022102 	srl	a0,v0,0x4
9d00c85c:	34630008 	ori	v1,v1,0x8
9d00c860:	00a01025 	move	v0,a1
9d00c864:	00022102 	srl	a0,v0,0x4
9d00c868:	54800004 	bnezl	a0,9d00c87c <a_clz_64+0x4c>
9d00c86c:	00041082 	srl	v0,a0,0x2
9d00c870:	34630004 	ori	v1,v1,0x4
9d00c874:	00402025 	move	a0,v0
9d00c878:	00041082 	srl	v0,a0,0x2
9d00c87c:	54400004 	bnezl	v0,9d00c890 <a_clz_64+0x60>
9d00c880:	00021042 	srl	v0,v0,0x1
9d00c884:	34630002 	ori	v1,v1,0x2
9d00c888:	00801025 	move	v0,a0
9d00c88c:	00021042 	srl	v0,v0,0x1
9d00c890:	38420001 	xori	v0,v0,0x1
9d00c894:	03e00008 	jr	ra
9d00c898:	00431025 	or	v0,v0,v1

Disassembly of section .text.sitofp:

9d00c89c <__floatsisf>:
9d00c89c:	3c018000 10800012 00813024 04810002     ...<....$0......
9d00c8ac:	00000000 00042023                       ....# ..

9d00c8b4 <i40>:
9d00c8b4:	2405009e 	li	a1,158
9d00c8b8:	70873820 	clz	a3,a0
9d00c8bc:	00a72823 	subu	a1,a1,a3
9d00c8c0:	00e42004 	sllv	a0,a0,a3
9d00c8c4:	24840080 	addiu	a0,a0,128
9d00c8c8:	2c880080 	sltiu	t0,a0,128
9d00c8cc:	00a82821 	addu	a1,a1,t0
9d00c8d0:	00044203 	sra	t0,a0,0x8
9d00c8d4:	31080001 	andi	t0,t0,0x1
9d00c8d8:	00882023 	subu	a0,a0,t0
9d00c8dc:	00042040 	sll	a0,a0,0x1
9d00c8e0:	00042242 	srl	a0,a0,0x9
9d00c8e4:	000545c0 	sll	t0,a1,0x17
9d00c8e8:	00882025 	or	a0,a0,t0

9d00c8ec <i39>:
9d00c8ec:	00861025 	or	v0,a0,a2

9d00c8f0 <E999>:
9d00c8f0:	03e00008 	jr	ra
9d00c8f4:	00000000 	nop
9d00c8f8:	00000000 	nop

Disassembly of section .text.__sio_sprintf_dfoux:

9d00c8fc <__sio_sprintf_dfoux>:
9d00c8fc:	27bdffe8 	addiu	sp,sp,-24
9d00c900:	afbf0014 	sw	ra,20(sp)
9d00c904:	0f402d93 	jal	9d00b64c <__fmt_d>
9d00c908:	00000000 	nop
9d00c90c:	0f401d54 	jal	9d007550 <__fmt_fp>
9d00c910:	00000000 	nop
9d00c914:	0f402f8e 	jal	9d00be38 <__fmt_o>
9d00c918:	00000000 	nop
9d00c91c:	0f403077 	jal	9d00c1dc <__fmt_u>
9d00c920:	00000000 	nop
9d00c924:	0f402afd 	jal	9d00abf4 <__fmt_x>
9d00c928:	00000000 	nop
9d00c92c:	0f403125 	jal	9d00c494 <__fmt_s>
9d00c930:	00000000 	nop
9d00c934:	0f403298 	jal	9d00ca60 <__pop_float>
9d00c938:	00000000 	nop
9d00c93c:	0f403007 	jal	9d00c01c <__pop_ptr>
9d00c940:	00000000 	nop
9d00c944:	0f402cd8 	jal	9d00b360 <__pop_int>
9d00c948:	00000000 	nop
9d00c94c:	8fbf0014 	lw	ra,20(sp)
9d00c950:	03e00008 	jr	ra
9d00c954:	27bd0018 	addiu	sp,sp,24

Disassembly of section .text.__string_out:

9d00c958 <__out>:
9d00c958:	8c820010 	lw	v0,16(a0)
9d00c95c:	27bdffe0 	addiu	sp,sp,-32
9d00c960:	afb00014 	sw	s0,20(sp)
9d00c964:	00808025 	move	s0,a0
9d00c968:	8c840014 	lw	a0,20(a0)
9d00c96c:	afb10018 	sw	s1,24(sp)
9d00c970:	00c2882b 	sltu	s1,a2,v0
9d00c974:	0051300a 	movz	a2,v0,s1
9d00c978:	afbf001c 	sw	ra,28(sp)
9d00c97c:	0f40334e 	jal	9d00cd38 <memcpy>
9d00c980:	00c08825 	move	s1,a2
9d00c984:	8e020014 	lw	v0,20(s0)
9d00c988:	8e060010 	lw	a2,16(s0)
9d00c98c:	00511021 	addu	v0,v0,s1
9d00c990:	00d18823 	subu	s1,a2,s1
9d00c994:	ae110010 	sw	s1,16(s0)
9d00c998:	ae020014 	sw	v0,20(s0)
9d00c99c:	a0400000 	sb	zero,0(v0)
9d00c9a0:	8fbf001c 	lw	ra,28(sp)
9d00c9a4:	8fb10018 	lw	s1,24(sp)
9d00c9a8:	8fb00014 	lw	s0,20(sp)
9d00c9ac:	03e00008 	jr	ra
9d00c9b0:	27bd0020 	addiu	sp,sp,32

Disassembly of section .text.__fmt_state:

9d00c9b4 <__fmt_state>:
9d00c9b4:	3c069d01 	lui	a2,0x9d01
9d00c9b8:	00001025 	move	v0,zero
9d00c9bc:	24c6cec0 	addiu	a2,a2,-12608
9d00c9c0:	00021840 	sll	v1,v0,0x1
9d00c9c4:	00661821 	addu	v1,v1,a2
9d00c9c8:	80670000 	lb	a3,0(v1)
9d00c9cc:	54e00003 	bnezl	a3,9d00c9dc <__fmt_state+0x28>
9d00c9d0:	8c850000 	lw	a1,0(a0)
9d00c9d4:	03e00008 	jr	ra
9d00c9d8:	90620001 	lbu	v0,1(v1)
9d00c9dc:	24420001 	addiu	v0,v0,1
9d00c9e0:	80a80000 	lb	t0,0(a1)
9d00c9e4:	15070004 	bne	t0,a3,9d00c9f8 <__fmt_state+0x44>
9d00c9e8:	304200ff 	andi	v0,v0,0xff
9d00c9ec:	90620001 	lbu	v0,1(v1)
9d00c9f0:	24a50001 	addiu	a1,a1,1
9d00c9f4:	ac850000 	sw	a1,0(a0)
9d00c9f8:	2c43000b 	sltiu	v1,v0,11
9d00c9fc:	1460fff1 	bnez	v1,9d00c9c4 <__fmt_state+0x10>
9d00ca00:	00021840 	sll	v1,v0,0x1
9d00ca04:	03e00008 	jr	ra
9d00ca08:	00000000 	nop

Disassembly of section .text.main_entry:

9d00ca0c <_main_entry>:
9d00ca0c:	3c040000 	lui	a0,0x0
9d00ca10:	27bdffe8 	addiu	sp,sp,-24
9d00ca14:	24840000 	addiu	a0,a0,0
9d00ca18:	10800003 	beqz	a0,9d00ca28 <_main_entry+0x1c>
9d00ca1c:	afbf0014 	sw	ra,20(sp)
9d00ca20:	0080f809 	jalr	a0
9d00ca24:	00000000 	nop
9d00ca28:	30840000 	andi	a0,a0,0x0
9d00ca2c:	30a50000 	andi	a1,a1,0x0
9d00ca30:	3c089d01 	lui	t0,0x9d01
9d00ca34:	2508afdc 	addiu	t0,t0,-20516
9d00ca38:	0100f809 	jalr	t0
9d00ca3c:	00000000 	nop

9d00ca40 <__crt0_exit>:
9d00ca40:	3c020000 24420000 10400003 00000000     ...<..B$..@.....
9d00ca50:	0040f809 00000000 1000fff9 00000000     ..@.............

Disassembly of section .text.__pop_float:

9d00ca60 <__pop_float>:
9d00ca60:	28a30080 	slti	v1,a1,128
9d00ca64:	14600010 	bnez	v1,9d00caa8 <__pop_float+0x48>
9d00ca68:	00001025 	move	v0,zero
9d00ca6c:	28a30082 	slti	v1,a1,130
9d00ca70:	14600003 	bnez	v1,9d00ca80 <__pop_float+0x20>
9d00ca74:	24030083 	li	v1,131
9d00ca78:	14a3000b 	bne	a1,v1,9d00caa8 <__pop_float+0x48>
9d00ca7c:	00000000 	nop
9d00ca80:	8cc20000 	lw	v0,0(a2)
9d00ca84:	24420007 	addiu	v0,v0,7
9d00ca88:	7c021004 	ins	v0,zero,0x0,0x3
9d00ca8c:	24430008 	addiu	v1,v0,8
9d00ca90:	acc30000 	sw	v1,0(a2)
9d00ca94:	8c430004 	lw	v1,4(v0)
9d00ca98:	8c420000 	lw	v0,0(v0)
9d00ca9c:	ac830004 	sw	v1,4(a0)
9d00caa0:	ac820000 	sw	v0,0(a0)
9d00caa4:	24020001 	li	v0,1
9d00caa8:	03e00008 	jr	ra
9d00caac:	00000000 	nop

Disassembly of section .text:

9d00cab0 <__floatunsisf>:
9d00cab0:	27bdffe8 	addiu	sp,sp,-24
9d00cab4:	0481000c 	bgez	a0,9d00cae8 <__floatunsisf+0x38>
9d00cab8:	afbf0014 	sw	ra,20(sp)
9d00cabc:	00801025 	move	v0,a0
9d00cac0:	00021042 	srl	v0,v0,0x1
9d00cac4:	30840001 	andi	a0,a0,0x1
9d00cac8:	0f403227 	jal	9d00c89c <__floatsisf>
9d00cacc:	00822025 	or	a0,a0,v0
9d00cad0:	00402825 	move	a1,v0
9d00cad4:	0f4029d5 	jal	9d00a754 <__addsf3>
9d00cad8:	00402025 	move	a0,v0
9d00cadc:	8fbf0014 	lw	ra,20(sp)
9d00cae0:	03e00008 	jr	ra
9d00cae4:	27bd0018 	addiu	sp,sp,24
9d00cae8:	0f403227 	jal	9d00c89c <__floatsisf>
9d00caec:	00000000 	nop
9d00caf0:	1000fffb 	b	9d00cae0 <__floatunsisf+0x30>
9d00caf4:	8fbf0014 	lw	ra,20(sp)

Disassembly of section .text._bootstrap_exception_handler:

9d00caf8 <_bootstrap_exception_handler>:
9d00caf8:	3c020000 	lui	v0,0x0
9d00cafc:	24420000 	addiu	v0,v0,0
9d00cb00:	10400005 	beqz	v0,9d00cb18 <_bootstrap_exception_handler+0x20>
9d00cb04:	3c020000 	lui	v0,0x0
9d00cb08:	24420000 	addiu	v0,v0,0
9d00cb0c:	10400003 	beqz	v0,9d00cb1c <_bootstrap_exception_handler+0x24>
9d00cb10:	3c029d01 	lui	v0,0x9d01
9d00cb14:	7000003f 	sdbbp
9d00cb18:	3c029d01 	lui	v0,0x9d01
9d00cb1c:	2442cbd0 	addiu	v0,v0,-13360
9d00cb20:	10400005 	beqz	v0,9d00cb38 <_bootstrap_exception_handler+0x40>
9d00cb24:	00000000 	nop
9d00cb28:	27bdffe8 	addiu	sp,sp,-24
9d00cb2c:	afbf0014 	sw	ra,20(sp)
9d00cb30:	0040f809 	jalr	v0
9d00cb34:	00000000 	nop
9d00cb38:	1000ffff 	b	9d00cb38 <_bootstrap_exception_handler+0x40>
9d00cb3c:	00000000 	nop

Disassembly of section .text._general_exception_handler:

9d00cb40 <_general_exception_handler>:
9d00cb40:	3c020000 	lui	v0,0x0
9d00cb44:	24420000 	addiu	v0,v0,0
9d00cb48:	10400005 	beqz	v0,9d00cb60 <_general_exception_handler+0x20>
9d00cb4c:	3c020000 	lui	v0,0x0
9d00cb50:	24420000 	addiu	v0,v0,0
9d00cb54:	10400003 	beqz	v0,9d00cb64 <_general_exception_handler+0x24>
9d00cb58:	3c029d01 	lui	v0,0x9d01
9d00cb5c:	7000003f 	sdbbp
9d00cb60:	3c029d01 	lui	v0,0x9d01
9d00cb64:	2442cbd0 	addiu	v0,v0,-13360
9d00cb68:	10400005 	beqz	v0,9d00cb80 <_general_exception_handler+0x40>
9d00cb6c:	00000000 	nop
9d00cb70:	27bdffe8 	addiu	sp,sp,-24
9d00cb74:	afbf0014 	sw	ra,20(sp)
9d00cb78:	0040f809 	jalr	v0
9d00cb7c:	00000000 	nop
9d00cb80:	1000ffff 	b	9d00cb80 <_general_exception_handler+0x40>
9d00cb84:	00000000 	nop

Disassembly of section .vector_default:

9d00cb88 <_DefaultInterrupt>:
9d00cb88:	3c020000 	lui	v0,0x0
9d00cb8c:	24420000 	addiu	v0,v0,0
9d00cb90:	10400007 	beqz	v0,9d00cbb0 <_DefaultInterrupt+0x28>
9d00cb94:	3c020000 	lui	v0,0x0
9d00cb98:	24420000 	addiu	v0,v0,0
9d00cb9c:	50400005 	beqzl	v0,9d00cbb4 <_DefaultInterrupt+0x2c>
9d00cba0:	3c029d01 	lui	v0,0x9d01
9d00cba4:	7000003f 	sdbbp
9d00cba8:	03e00008 	jr	ra
9d00cbac:	00000000 	nop
9d00cbb0:	3c029d01 	lui	v0,0x9d01
9d00cbb4:	2442cbd0 	addiu	v0,v0,-13360
9d00cbb8:	10400003 	beqz	v0,9d00cbc8 <_DefaultInterrupt+0x40>
9d00cbbc:	00000000 	nop
9d00cbc0:	0040f809 	jalr	v0
9d00cbc4:	00000000 	nop
9d00cbc8:	03e00008 	jr	ra
9d00cbcc:	00000000 	nop

Disassembly of section .text:

9d00cbd0 <__pic32_software_reset>:
9d00cbd0:	41606000 	di
9d00cbd4:	000000c0 	ehb
9d00cbd8:	3c03aa99 	lui	v1,0xaa99
9d00cbdc:	3c02bf81 	lui	v0,0xbf81
9d00cbe0:	24636655 	addiu	v1,v1,26197
9d00cbe4:	ac40f230 	sw	zero,-3536(v0)
9d00cbe8:	ac43f230 	sw	v1,-3536(v0)
9d00cbec:	3c035566 	lui	v1,0x5566
9d00cbf0:	346399aa 	ori	v1,v1,0x99aa
9d00cbf4:	ac43f230 	sw	v1,-3536(v0)
9d00cbf8:	3c02bf81 	lui	v0,0xbf81
9d00cbfc:	24030001 	li	v1,1
9d00cc00:	ac43f618 	sw	v1,-2536(v0)
9d00cc04:	3c02bf81 	lui	v0,0xbf81
9d00cc08:	8c42f610 	lw	v0,-2544(v0)
9d00cc0c:	0b4032f6 	j	9d00cbd8 <__pic32_software_reset+0x8>
9d00cc10:	00000000 	nop

9d00cc14 <__floatunsidf>:
9d00cc14:	27bdffe8 	addiu	sp,sp,-24
9d00cc18:	afb00010 	sw	s0,16(sp)
9d00cc1c:	afbf0014 	sw	ra,20(sp)
9d00cc20:	0f4031d1 	jal	9d00c744 <__floatsidf>
9d00cc24:	00808025 	move	s0,a0
9d00cc28:	06010006 	bgez	s0,9d00cc44 <__floatunsidf+0x30>
9d00cc2c:	00602825 	move	a1,v1
9d00cc30:	3c049d00 	lui	a0,0x9d00
9d00cc34:	8c867548 	lw	a2,30024(a0)
9d00cc38:	8c87754c 	lw	a3,30028(a0)
9d00cc3c:	0f402536 	jal	9d0094d8 <__adddf3>
9d00cc40:	00402025 	move	a0,v0
9d00cc44:	8fbf0014 	lw	ra,20(sp)
9d00cc48:	8fb00010 	lw	s0,16(sp)
9d00cc4c:	03e00008 	jr	ra
9d00cc50:	27bd0018 	addiu	sp,sp,24

Disassembly of section .text.__vfprintf:

9d00cc54 <__vfprintf>:
9d00cc54:	27bdffe0 	addiu	sp,sp,-32
9d00cc58:	afb00018 	sw	s0,24(sp)
9d00cc5c:	afa60010 	sw	a2,16(sp)
9d00cc60:	00808025 	move	s0,a0
9d00cc64:	afbf001c 	sw	ra,28(sp)
9d00cc68:	0f40215a 	jal	9d008568 <__printf_core>
9d00cc6c:	27a60010 	addiu	a2,sp,16
9d00cc70:	8e030004 	lw	v1,4(s0)
9d00cc74:	8fbf001c 	lw	ra,28(sp)
9d00cc78:	2404ffff 	li	a0,-1
9d00cc7c:	30630010 	andi	v1,v1,0x10
9d00cc80:	0083100b 	movn	v0,a0,v1
9d00cc84:	8fb00018 	lw	s0,24(sp)
9d00cc88:	03e00008 	jr	ra
9d00cc8c:	27bd0020 	addiu	sp,sp,32

Disassembly of section .text:

9d00cc90 <__lshrdi3>:
9d00cc90:	10c00008 	beqz	a2,9d00ccb4 <__lshrdi3+0x24>
9d00cc94:	00801025 	move	v0,a0
9d00cc98:	24030020 	li	v1,32
9d00cc9c:	00661823 	subu	v1,v1,a2
9d00cca0:	1c600006 	bgtz	v1,9d00ccbc <__lshrdi3+0x2c>
9d00cca4:	00c52006 	srlv	a0,a1,a2
9d00cca8:	00002025 	move	a0,zero
9d00ccac:	00c51006 	srlv	v0,a1,a2
9d00ccb0:	00802825 	move	a1,a0
9d00ccb4:	03e00008 	jr	ra
9d00ccb8:	00a01825 	move	v1,a1
9d00ccbc:	00c21006 	srlv	v0,v0,a2
9d00ccc0:	00652804 	sllv	a1,a1,v1
9d00ccc4:	1000fffa 	b	9d00ccb0 <__lshrdi3+0x20>
9d00ccc8:	00451025 	or	v0,v0,a1

9d00cccc <__ashldi3>:
9d00cccc:	10c00008 	beqz	a2,9d00ccf0 <__ashldi3+0x24>
9d00ccd0:	00801025 	move	v0,a0
9d00ccd4:	24040020 	li	a0,32
9d00ccd8:	00862023 	subu	a0,a0,a2
9d00ccdc:	5c800006 	bgtzl	a0,9d00ccf8 <__ashldi3+0x2c>
9d00cce0:	00c21804 	sllv	v1,v0,a2
9d00cce4:	00001825 	move	v1,zero
9d00cce8:	00c22804 	sllv	a1,v0,a2
9d00ccec:	00601025 	move	v0,v1
9d00ccf0:	03e00008 	jr	ra
9d00ccf4:	00a01825 	move	v1,a1
9d00ccf8:	00c52804 	sllv	a1,a1,a2
9d00ccfc:	00821006 	srlv	v0,v0,a0
9d00cd00:	1000fffa 	b	9d00ccec <__ashldi3+0x20>
9d00cd04:	00a22825 	or	a1,a1,v0

Disassembly of section .dinit:

9d00cd08 <.dinit>:
9d00cd08:	a0000000 	sb	zero,0(zero)
9d00cd0c:	00000002 	srl	zero,zero,0x0
9d00cd10:	00000001 	movf	zero,zero,$fcc0
9d00cd14:	00007879 	0x7879
9d00cd18:	a0000004 	sb	zero,4(zero)
9d00cd1c:	00000200 	sll	zero,zero,0x8
9d00cd20:	00000000 	nop
9d00cd24:	a0000204 	sb	zero,516(zero)
9d00cd28:	00000004 	sllv	zero,zero,zero
	...
9d00cd34:	44444444 	0x44444444

Disassembly of section .text.memcpy:

9d00cd38 <memcpy>:
9d00cd38:	00801025 	move	v0,a0
9d00cd3c:	00001825 	move	v1,zero
9d00cd40:	14c30003 	bne	a2,v1,9d00cd50 <memcpy+0x18>
9d00cd44:	00a33821 	addu	a3,a1,v1
9d00cd48:	03e00008 	jr	ra
9d00cd4c:	00000000 	nop
9d00cd50:	90e70000 	lbu	a3,0(a3)
9d00cd54:	00432021 	addu	a0,v0,v1
9d00cd58:	24630001 	addiu	v1,v1,1
9d00cd5c:	1000fff8 	b	9d00cd40 <memcpy+0x8>
9d00cd60:	a0870000 	sb	a3,0(a0)

Disassembly of section .text.__wrap_sprintf:

9d00cd64 <_dsprintf_cdeEfFgGnopuxX>:
9d00cd64:	27bdffe0 	addiu	sp,sp,-32
9d00cd68:	afa60028 	sw	a2,40(sp)
9d00cd6c:	27a60028 	addiu	a2,sp,40
9d00cd70:	afbf001c 	sw	ra,28(sp)
9d00cd74:	afa7002c 	sw	a3,44(sp)
9d00cd78:	0f40336d 	jal	9d00cdb4 <__vsprintf>
9d00cd7c:	afa60010 	sw	a2,16(sp)
9d00cd80:	8fbf001c 	lw	ra,28(sp)
9d00cd84:	03e00008 	jr	ra
9d00cd88:	27bd0020 	addiu	sp,sp,32

Disassembly of section .text.strcpy:

9d00cd8c <strcpy>:
9d00cd8c:	27bdffe8 	addiu	sp,sp,-24
9d00cd90:	afb00010 	sw	s0,16(sp)
9d00cd94:	afbf0014 	sw	ra,20(sp)
9d00cd98:	0f40337f 	jal	9d00cdfc <stpcpy>
9d00cd9c:	00808025 	move	s0,a0
9d00cda0:	8fbf0014 	lw	ra,20(sp)
9d00cda4:	02001025 	move	v0,s0
9d00cda8:	8fb00010 	lw	s0,16(sp)
9d00cdac:	03e00008 	jr	ra
9d00cdb0:	27bd0018 	addiu	sp,sp,24

Disassembly of section .text.__vsprintf:

9d00cdb4 <__vsprintf>:
9d00cdb4:	00c03825 	move	a3,a2
9d00cdb8:	00a03025 	move	a2,a1
9d00cdbc:	3c057fff 	lui	a1,0x7fff
9d00cdc0:	27bdffe8 	addiu	sp,sp,-24
9d00cdc4:	afbf0014 	sw	ra,20(sp)
9d00cdc8:	0f403192 	jal	9d00c648 <__vsnprintf>
9d00cdcc:	34a5ffff 	ori	a1,a1,0xffff
9d00cdd0:	8fbf0014 	lw	ra,20(sp)
9d00cdd4:	03e00008 	jr	ra
9d00cdd8:	27bd0018 	addiu	sp,sp,24

Disassembly of section .text.dinit.startup:

9d00cddc <__pic32_data_init>:
9d00cddc:	03e01825 	move	v1,ra
9d00cde0:	3c089d01 	lui	t0,0x9d01
9d00cde4:	2508c5c8 	addiu	t0,t0,-14904
9d00cde8:	0100f809 	jalr	t0
9d00cdec:	00000000 	nop
9d00cdf0:	0060f825 	move	ra,v1
9d00cdf4:	03e00008 	jr	ra
9d00cdf8:	00000000 	nop

Disassembly of section .text.stpcpy:

9d00cdfc <stpcpy>:
9d00cdfc:	24a50001 	addiu	a1,a1,1
9d00ce00:	80a3ffff 	lb	v1,-1(a1)
9d00ce04:	00801025 	move	v0,a0
9d00ce08:	24840001 	addiu	a0,a0,1
9d00ce0c:	1460fffb 	bnez	v1,9d00cdfc <stpcpy>
9d00ce10:	a083ffff 	sb	v1,-1(a0)
9d00ce14:	03e00008 	jr	ra
9d00ce18:	00000000 	nop

Disassembly of section .text.tolower:

9d00ce1c <tolower>:
9d00ce1c:	2483ffbf 	addiu	v1,a0,-65
9d00ce20:	2c63001a 	sltiu	v1,v1,26
9d00ce24:	10600002 	beqz	v1,9d00ce30 <tolower+0x14>
9d00ce28:	00801025 	move	v0,a0
9d00ce2c:	34820020 	ori	v0,a0,0x20
9d00ce30:	03e00008 	jr	ra
9d00ce34:	00000000 	nop

Disassembly of section .text.__tolower_l:

9d00ce38 <__tolower_l>:
9d00ce38:	27bdffe8 	addiu	sp,sp,-24
9d00ce3c:	afbf0014 	sw	ra,20(sp)
9d00ce40:	0f403387 	jal	9d00ce1c <tolower>
9d00ce44:	00000000 	nop
9d00ce48:	8fbf0014 	lw	ra,20(sp)
9d00ce4c:	03e00008 	jr	ra
9d00ce50:	27bd0018 	addiu	sp,sp,24

Disassembly of section .text.toupper:

9d00ce54 <toupper>:
9d00ce54:	2483ff9f 	addiu	v1,a0,-97
9d00ce58:	2c63001a 	sltiu	v1,v1,26
9d00ce5c:	10600002 	beqz	v1,9d00ce68 <toupper+0x14>
9d00ce60:	00801025 	move	v0,a0
9d00ce64:	3082005f 	andi	v0,a0,0x5f
9d00ce68:	03e00008 	jr	ra
9d00ce6c:	00000000 	nop

Disassembly of section .text.__toupper_l:

9d00ce70 <__toupper_l>:
9d00ce70:	27bdffe8 	addiu	sp,sp,-24
9d00ce74:	afbf0014 	sw	ra,20(sp)
9d00ce78:	0f403395 	jal	9d00ce54 <toupper>
9d00ce7c:	00000000 	nop
9d00ce80:	8fbf0014 	lw	ra,20(sp)
9d00ce84:	03e00008 	jr	ra
9d00ce88:	27bd0018 	addiu	sp,sp,24

Disassembly of section .text:

9d00cea8 <_nmi_handler>:
9d00cea8:	401a6000 	mfc0	k0,c0_status
9d00ceac:	3c1bffbf 	lui	k1,0xffbf
9d00ceb0:	377bffff 	ori	k1,k1,0xffff
9d00ceb4:	035bd024 	and	k0,k0,k1
9d00ceb8:	409a6000 	mtc0	k0,c0_status
9d00cebc:	42000018 	eret

Disassembly of section .rodata:

9d00cec0 <state_table>:
9d00cec0:	096c0768 906a834c c07aa074 88688000     h.l.L.j.t.z...h.
9d00ced0:	826c8400 00008100                       ..l.....

Disassembly of section .text.strlen:

9d00ced8 <strlen>:
9d00ced8:	00801025 	move	v0,a0
9d00cedc:	80430000 	lb	v1,0(v0)
9d00cee0:	5460fffe 	bnezl	v1,9d00cedc <strlen+0x4>
9d00cee4:	24420001 	addiu	v0,v0,1
9d00cee8:	03e00008 	jr	ra
9d00ceec:	00441023 	subu	v0,v0,a0

Disassembly of section .text._on_reset:

9d00cef0 <_on_reset>:
9d00cef0:	03e00008 	jr	ra
9d00cef4:	00000000 	nop

Disassembly of section .text._on_bootstrap:

9d00cef8 <_on_bootstrap>:
9d00cef8:	03e00008 	jr	ra
9d00cefc:	00000000 	nop

Disassembly of section .text.__dummy_fmt3:

9d00cf00 <__dummy_fmt3>:
9d00cf00:	03e00008 	jr	ra
9d00cf04:	00001025 	move	v0,zero

Disassembly of section .text.__dummy_fmt4:

9d00cf08 <__fmt_a>:
9d00cf08:	03e00008 	jr	ra
9d00cf0c:	00001025 	move	v0,zero

Disassembly of section .text.__dummy_fmts:

9d00cf10 <__dummy_fmts>:
9d00cf10:	03e00008 	jr	ra
9d00cf14:	00001025 	move	v0,zero
