
out.elf:     file format elf32-tradlittlemips


Disassembly of section .reset:

bd007000 <_reset>:
bd007000:	0f401c02 	jal	bd007008 <_startup>
bd007004:	00000000 	nop

bd007008 <_startup>:
bd007008:	401a6000 	mfc0	k0,c0_status
bd00700c:	7f5a04c0 	ext	k0,k0,0x13,0x1
bd007010:	13400005 	beqz	k0,bd007028 <_no_nmi>
bd007014:	00000000 	nop
bd007018:	3c1a9d01 	lui	k0,0x9d01
bd00701c:	275ac218 	addiu	k0,k0,-15848
bd007020:	03400008 	jr	k0
bd007024:	00000000 	nop

bd007028 <_no_nmi>:
bd007028:	3c1da001 	lui	sp,0xa001
bd00702c:	27bdfff8 	addiu	sp,sp,-8
bd007030:	3c1ca000 	lui	gp,0xa000
bd007034:	279c7ff0 	addiu	gp,gp,32752
bd007038:	3c089d01 	lui	t0,0x9d01
bd00703c:	2508c260 	addiu	t0,t0,-15776
bd007040:	0100f809 	jalr	t0
bd007044:	00000000 	nop

bd007048 <_start_bss_init>:
bd007048:	3c08a000 	lui	t0,0xa000
bd00704c:	25080004 	addiu	t0,t0,4
bd007050:	3c09a000 	lui	t1,0xa000
bd007054:	25290004 	addiu	t1,t1,4
bd007058:	10000003 	b	bd007068 <_bss_check>
bd00705c:	00000000 	nop

bd007060 <_bss_init>:
bd007060:	ad000000 	sw	zero,0(t0)
bd007064:	25080004 	addiu	t0,t0,4

bd007068 <_bss_check>:
bd007068:	0109082b 	sltu	at,t0,t1
bd00706c:	1420fffc 	bnez	at,bd007060 <_bss_init>
bd007070:	00000000 	nop
bd007074:	3c089d01 	lui	t0,0x9d01
bd007078:	2508c088 	addiu	t0,t0,-16248
bd00707c:	0100f809 	jalr	t0
bd007080:	00000000 	nop
bd007084:	3c090000 	lui	t1,0x0
bd007088:	25290000 	addiu	t1,t1,0
bd00708c:	11200010 	beqz	t1,bd0070d0 <_ramfunc_done>
bd007090:	00000000 	nop
bd007094:	3c090001 	lui	t1,0x1
bd007098:	25290000 	addiu	t1,t1,0
bd00709c:	3c0abf88 	lui	t2,0xbf88
bd0070a0:	254a2010 	addiu	t2,t2,8208
bd0070a4:	ad490000 	sw	t1,0(t2)
bd0070a8:	3c090001 	lui	t1,0x1
bd0070ac:	25290000 	addiu	t1,t1,0
bd0070b0:	3c0abf88 	lui	t2,0xbf88
bd0070b4:	254a2020 	addiu	t2,t2,8224
bd0070b8:	ad490000 	sw	t1,0(t2)
bd0070bc:	3c090001 	lui	t1,0x1
bd0070c0:	25290000 	addiu	t1,t1,0
bd0070c4:	3c0abf88 	lui	t2,0xbf88
bd0070c8:	254a2030 	addiu	t2,t2,8240
bd0070cc:	ad490000 	sw	t1,0(t2)

bd0070d0 <_ramfunc_done>:
bd0070d0:	40804800 	mtc0	zero,c0_count
bd0070d4:	240affff 	li	t2,-1
bd0070d8:	408a5800 	mtc0	t2,c0_compare
bd0070dc:	3c080040 	lui	t0,0x40
bd0070e0:	400a6000 	mfc0	t2,c0_status
bd0070e4:	010a5025 	or	t2,t0,t2
bd0070e8:	408a6000 	mtc0	t2,c0_status
bd0070ec:	3c099d00 	lui	t1,0x9d00
bd0070f0:	25296000 	addiu	t1,t1,24576
bd0070f4:	000000c0 	ehb
bd0070f8:	40897801 	mtc0	t1,c0_ebase
bd0070fc:	3c090000 	lui	t1,0x0
bd007100:	25290001 	addiu	t1,t1,1
bd007104:	240a0000 	li	t2,0
bd007108:	7d2a4944 	ins	t2,t1,0x5,0x5
bd00710c:	408a6001 	mtc0	t2,c0_intctl
bd007110:	3c090080 	lui	t1,0x80
bd007114:	40896800 	mtc0	t1,c0_cause
bd007118:	40088000 	mfc0	t0,c0_config
bd00711c:	7d090580 	ext	t1,t0,0x16,0x1
bd007120:	00094c40 	sll	t1,t1,0x11
bd007124:	40086000 	mfc0	t0,c0_status
bd007128:	3c010058 	lui	at,0x58
bd00712c:	01014024 	and	t0,t0,at
bd007130:	01284025 	or	t0,t1,t0
bd007134:	40886000 	mtc0	t0,c0_status
bd007138:	000000c0 	ehb
bd00713c:	3c089d01 	lui	t0,0x9d01
bd007140:	2508c268 	addiu	t0,t0,-15768
bd007144:	0100f809 	jalr	t0
bd007148:	00000000 	nop
bd00714c:	40086000 	mfc0	t0,c0_status
bd007150:	3c01ffbf 	lui	at,0xffbf
bd007154:	3421ffff 	ori	at,at,0xffff
bd007158:	01014024 	and	t0,t0,at
bd00715c:	40886000 	mtc0	t0,c0_status
bd007160:	30840000 	andi	a0,a0,0x0
bd007164:	30a50000 	andi	a1,a1,0x0
bd007168:	3c089d01 	lui	t0,0x9d01
bd00716c:	2508b884 	addiu	t0,t0,-18300
bd007170:	01000008 	jr	t0
bd007174:	00000000 	nop

Disassembly of section .bev_excpt:

bfc07380 <_bev_exception>:
bfc07380:	3c1a9d01 	lui	k0,0x9d01
bfc07384:	275aba64 	addiu	k0,k0,-17820
bfc07388:	03400008 	jr	k0
bfc0738c:	00000000 	nop

Disassembly of section .app_excpt:

9d006180 <_gen_exception>:
9d006180:	3c1a9d01 	lui	k0,0x9d01
9d006184:	275aa538 	addiu	k0,k0,-23240
9d006188:	03400008 	jr	k0
9d00618c:	00000000 	nop

Disassembly of section .vector_0:

9d006200 <__vector_dispatch_0>:
9d006200:	0b402ebd 	j	9d00baf4 <_DefaultInterrupt>
9d006204:	00000000 	nop

Disassembly of section .vector_1:

9d006220 <__vector_dispatch_1>:
9d006220:	0b402ebd 	j	9d00baf4 <_DefaultInterrupt>
9d006224:	00000000 	nop

Disassembly of section .vector_2:

9d006240 <__vector_dispatch_2>:
9d006240:	0b402ebd 	j	9d00baf4 <_DefaultInterrupt>
9d006244:	00000000 	nop

Disassembly of section .vector_3:

9d006260 <__vector_dispatch_3>:
9d006260:	0b402ebd 	j	9d00baf4 <_DefaultInterrupt>
9d006264:	00000000 	nop

Disassembly of section .vector_4:

9d006280 <__vector_dispatch_4>:
9d006280:	0b402ebd 	j	9d00baf4 <_DefaultInterrupt>
9d006284:	00000000 	nop

Disassembly of section .vector_5:

9d0062a0 <__vector_dispatch_5>:
9d0062a0:	0b402ebd 	j	9d00baf4 <_DefaultInterrupt>
9d0062a4:	00000000 	nop

Disassembly of section .vector_6:

9d0062c0 <__vector_dispatch_6>:
9d0062c0:	0b402ebd 	j	9d00baf4 <_DefaultInterrupt>
9d0062c4:	00000000 	nop

Disassembly of section .vector_7:

9d0062e0 <__vector_dispatch_7>:
9d0062e0:	0b402ebd 	j	9d00baf4 <_DefaultInterrupt>
9d0062e4:	00000000 	nop

Disassembly of section .vector_8:

9d006300 <__vector_dispatch_8>:
9d006300:	0b402ebd 	j	9d00baf4 <_DefaultInterrupt>
9d006304:	00000000 	nop

Disassembly of section .vector_9:

9d006320 <__vector_dispatch_9>:
9d006320:	0b402ebd 	j	9d00baf4 <_DefaultInterrupt>
9d006324:	00000000 	nop

Disassembly of section .vector_10:

9d006340 <__vector_dispatch_10>:
9d006340:	0b402ebd 	j	9d00baf4 <_DefaultInterrupt>
9d006344:	00000000 	nop

Disassembly of section .vector_11:

9d006360 <__vector_dispatch_11>:
9d006360:	0b402ebd 	j	9d00baf4 <_DefaultInterrupt>
9d006364:	00000000 	nop

Disassembly of section .vector_12:

9d006380 <__vector_dispatch_12>:
9d006380:	0b402ebd 	j	9d00baf4 <_DefaultInterrupt>
9d006384:	00000000 	nop

Disassembly of section .vector_13:

9d0063a0 <__vector_dispatch_13>:
9d0063a0:	0b402ebd 	j	9d00baf4 <_DefaultInterrupt>
9d0063a4:	00000000 	nop

Disassembly of section .vector_14:

9d0063c0 <__vector_dispatch_14>:
9d0063c0:	0b402ebd 	j	9d00baf4 <_DefaultInterrupt>
9d0063c4:	00000000 	nop

Disassembly of section .vector_15:

9d0063e0 <__vector_dispatch_15>:
9d0063e0:	0b402ebd 	j	9d00baf4 <_DefaultInterrupt>
9d0063e4:	00000000 	nop

Disassembly of section .vector_16:

9d006400 <__vector_dispatch_16>:
9d006400:	0b402ebd 	j	9d00baf4 <_DefaultInterrupt>
9d006404:	00000000 	nop

Disassembly of section .vector_17:

9d006420 <__vector_dispatch_17>:
9d006420:	0b402ebd 	j	9d00baf4 <_DefaultInterrupt>
9d006424:	00000000 	nop

Disassembly of section .vector_18:

9d006440 <__vector_dispatch_18>:
9d006440:	0b402ebd 	j	9d00baf4 <_DefaultInterrupt>
9d006444:	00000000 	nop

Disassembly of section .vector_19:

9d006460 <__vector_dispatch_19>:
9d006460:	0b402ebd 	j	9d00baf4 <_DefaultInterrupt>
9d006464:	00000000 	nop

Disassembly of section .vector_20:

9d006480 <__vector_dispatch_20>:
9d006480:	0b402ebd 	j	9d00baf4 <_DefaultInterrupt>
9d006484:	00000000 	nop

Disassembly of section .vector_21:

9d0064a0 <__vector_dispatch_21>:
9d0064a0:	0b402ebd 	j	9d00baf4 <_DefaultInterrupt>
9d0064a4:	00000000 	nop

Disassembly of section .vector_22:

9d0064c0 <__vector_dispatch_22>:
9d0064c0:	0b402ebd 	j	9d00baf4 <_DefaultInterrupt>
9d0064c4:	00000000 	nop

Disassembly of section .vector_23:

9d0064e0 <__vector_dispatch_23>:
9d0064e0:	0b402ebd 	j	9d00baf4 <_DefaultInterrupt>
9d0064e4:	00000000 	nop

Disassembly of section .vector_24:

9d006500 <__vector_dispatch_24>:
9d006500:	0b402ebd 	j	9d00baf4 <_DefaultInterrupt>
9d006504:	00000000 	nop

Disassembly of section .vector_25:

9d006520 <__vector_dispatch_25>:
9d006520:	0b402ebd 	j	9d00baf4 <_DefaultInterrupt>
9d006524:	00000000 	nop

Disassembly of section .vector_26:

9d006540 <__vector_dispatch_26>:
9d006540:	0b402ebd 	j	9d00baf4 <_DefaultInterrupt>
9d006544:	00000000 	nop

Disassembly of section .vector_27:

9d006560 <__vector_dispatch_27>:
9d006560:	0b402ebd 	j	9d00baf4 <_DefaultInterrupt>
9d006564:	00000000 	nop

Disassembly of section .vector_28:

9d006580 <__vector_dispatch_28>:
9d006580:	0b402ebd 	j	9d00baf4 <_DefaultInterrupt>
9d006584:	00000000 	nop

Disassembly of section .vector_29:

9d0065a0 <__vector_dispatch_29>:
9d0065a0:	0b402ebd 	j	9d00baf4 <_DefaultInterrupt>
9d0065a4:	00000000 	nop

Disassembly of section .vector_30:

9d0065c0 <__vector_dispatch_30>:
9d0065c0:	0b402ebd 	j	9d00baf4 <_DefaultInterrupt>
9d0065c4:	00000000 	nop

Disassembly of section .vector_31:

9d0065e0 <__vector_dispatch_31>:
9d0065e0:	0b402ebd 	j	9d00baf4 <_DefaultInterrupt>
9d0065e4:	00000000 	nop

Disassembly of section .vector_32:

9d006600 <__vector_dispatch_32>:
9d006600:	0b402ebd 	j	9d00baf4 <_DefaultInterrupt>
9d006604:	00000000 	nop

Disassembly of section .vector_33:

9d006620 <__vector_dispatch_33>:
9d006620:	0b402ebd 	j	9d00baf4 <_DefaultInterrupt>
9d006624:	00000000 	nop

Disassembly of section .vector_34:

9d006640 <__vector_dispatch_34>:
9d006640:	0b402ebd 	j	9d00baf4 <_DefaultInterrupt>
9d006644:	00000000 	nop

Disassembly of section .vector_35:

9d006660 <__vector_dispatch_35>:
9d006660:	0b402ebd 	j	9d00baf4 <_DefaultInterrupt>
9d006664:	00000000 	nop

Disassembly of section .vector_36:

9d006680 <__vector_dispatch_36>:
9d006680:	0b402ebd 	j	9d00baf4 <_DefaultInterrupt>
9d006684:	00000000 	nop

Disassembly of section .vector_37:

9d0066a0 <__vector_dispatch_37>:
9d0066a0:	0b402ebd 	j	9d00baf4 <_DefaultInterrupt>
9d0066a4:	00000000 	nop

Disassembly of section .vector_38:

9d0066c0 <__vector_dispatch_38>:
9d0066c0:	0b402ebd 	j	9d00baf4 <_DefaultInterrupt>
9d0066c4:	00000000 	nop

Disassembly of section .vector_39:

9d0066e0 <__vector_dispatch_39>:
9d0066e0:	0b402ebd 	j	9d00baf4 <_DefaultInterrupt>
9d0066e4:	00000000 	nop

Disassembly of section .vector_40:

9d006700 <__vector_dispatch_40>:
9d006700:	0b402ebd 	j	9d00baf4 <_DefaultInterrupt>
9d006704:	00000000 	nop

Disassembly of section .vector_41:

9d006720 <__vector_dispatch_41>:
9d006720:	0b402ebd 	j	9d00baf4 <_DefaultInterrupt>
9d006724:	00000000 	nop

Disassembly of section .vector_42:

9d006740 <__vector_dispatch_42>:
9d006740:	0b402ebd 	j	9d00baf4 <_DefaultInterrupt>
9d006744:	00000000 	nop

Disassembly of section .vector_43:

9d006760 <__vector_dispatch_43>:
9d006760:	0b402ebd 	j	9d00baf4 <_DefaultInterrupt>
9d006764:	00000000 	nop

Disassembly of section .rodata:

9d007490 <.rodata>:
9d007490:	00000a0d 	break	0x0,0x28
9d007494:	25206425 	addiu	zero,t1,25637
9d007498:	00000064 	0x64
9d00749c:	6c696e28 	0x6c696e28
9d0074a0:	00000029 	0x29

Disassembly of section ._debug_exception:

bfc00480 <__DbgExecReturn>:
bfc00480:	409bf800 	mtc0	k1,c0_desave
bfc00484:	000000c0 	ehb
bfc00488:	3c1b9d01 	lui	k1,0x9d01
bfc0048c:	277bbbcc 	addiu	k1,k1,-17460
bfc00490:	13600002 	beqz	k1,bfc0049c <__DbgExecReturn+0x1c>
bfc00494:	00000000 	nop
bfc00498:	409bc000 	mtc0	k1,c0_depc
bfc0049c:	401bf800 	mfc0	k1,c0_desave
bfc004a0:	000000c0 	ehb
bfc004a4:	4200001f 	deret
bfc004a8:	00000000 	nop

Disassembly of section .text.__scanf_core:

9d0074a4 <__scanf_core>:
9d0074a4:	27bdfe20 	addiu	sp,sp,-480
9d0074a8:	afb701d4 	sw	s7,468(sp)
9d0074ac:	afb601d0 	sw	s6,464(sp)
9d0074b0:	afb501cc 	sw	s5,460(sp)
9d0074b4:	afb201c0 	sw	s2,448(sp)
9d0074b8:	afb001b8 	sw	s0,440(sp)
9d0074bc:	afbf01dc 	sw	ra,476(sp)
9d0074c0:	afbe01d8 	sw	s8,472(sp)
9d0074c4:	afb401c8 	sw	s4,456(sp)
9d0074c8:	afb301c4 	sw	s3,452(sp)
9d0074cc:	afb101bc 	sw	s1,444(sp)
9d0074d0:	00808025 	move	s0,a0
9d0074d4:	00c09025 	move	s2,a2
9d0074d8:	afa501b4 	sw	a1,436(sp)
9d0074dc:	afa001b0 	sw	zero,432(sp)
9d0074e0:	0000a825 	move	s5,zero
9d0074e4:	27b7011c 	addiu	s7,sp,284
9d0074e8:	24160001 	li	s6,1
9d0074ec:	8fa201b4 	lw	v0,436(sp)
9d0074f0:	80420000 	lb	v0,0(v0)
9d0074f4:	1040005c 	beqz	v0,9d007668 <__scanf_core+0x1c4>
9d0074f8:	24020080 	li	v0,128
9d0074fc:	27a501b4 	addiu	a1,sp,436
9d007500:	02002025 	move	a0,s0
9d007504:	afa0019c 	sw	zero,412(sp)
9d007508:	afa001a0 	sw	zero,416(sp)
9d00750c:	afa001a4 	sw	zero,420(sp)
9d007510:	afb701a8 	sw	s7,424(sp)
9d007514:	0f402cfa 	jal	9d00b3e8 <__consumews>
9d007518:	afa201ac 	sw	v0,428(sp)
9d00751c:	0040f025 	move	s8,v0
9d007520:	24110025 	li	s1,37
9d007524:	2414ffff 	li	s4,-1
9d007528:	8fa301b4 	lw	v1,436(sp)
9d00752c:	80620000 	lb	v0,0(v1)
9d007530:	50400003 	beqzl	v0,9d007540 <__scanf_core+0x9c>
9d007534:	8fa201b0 	lw	v0,432(sp)
9d007538:	1451003a 	bne	v0,s1,9d007624 <__scanf_core+0x180>
9d00753c:	8fa201b0 	lw	v0,432(sp)
9d007540:	005e1021 	addu	v0,v0,s8
9d007544:	afa201b0 	sw	v0,432(sp)
9d007548:	80640000 	lb	a0,0(v1)
9d00754c:	24020025 	li	v0,37
9d007550:	1482002d 	bne	a0,v0,9d007608 <__scanf_core+0x164>
9d007554:	24620001 	addiu	v0,v1,1
9d007558:	afa201b4 	sw	v0,436(sp)
9d00755c:	afa001a4 	sw	zero,420(sp)
9d007560:	80640001 	lb	a0,1(v1)
9d007564:	2402002a 	li	v0,42
9d007568:	14820004 	bne	a0,v0,9d00757c <__scanf_core+0xd8>
9d00756c:	00008825 	move	s1,zero
9d007570:	24630002 	addiu	v1,v1,2
9d007574:	afa301b4 	sw	v1,436(sp)
9d007578:	24110001 	li	s1,1
9d00757c:	0f402c67 	jal	9d00b19c <atoi>
9d007580:	8fa401b4 	lw	a0,436(sp)
9d007584:	00402825 	move	a1,v0
9d007588:	02002025 	move	a0,s0
9d00758c:	0f402fcf 	jal	9d00bf3c <__shlim>
9d007590:	afa201a4 	sw	v0,420(sp)
9d007594:	8fa301b4 	lw	v1,436(sp)
9d007598:	80620000 	lb	v0,0(v1)
9d00759c:	2442ffd0 	addiu	v0,v0,-48
9d0075a0:	2c42000a 	sltiu	v0,v0,10
9d0075a4:	1440004c 	bnez	v0,9d0076d8 <__scanf_core+0x234>
9d0075a8:	24630001 	addiu	v1,v1,1
9d0075ac:	0f402ddf 	jal	9d00b77c <__fmt_state>
9d0075b0:	27a401b4 	addiu	a0,sp,436
9d0075b4:	0040a025 	move	s4,v0
9d0075b8:	8fa201b4 	lw	v0,436(sp)
9d0075bc:	0f40304f 	jal	9d00c13c <tolower>
9d0075c0:	80440000 	lb	a0,0(v0)
9d0075c4:	28430068 	slti	v1,v0,104
9d0075c8:	10600060 	beqz	v1,9d00774c <__scanf_core+0x2a8>
9d0075cc:	28430065 	slti	v1,v0,101
9d0075d0:	106000be 	beqz	v1,9d0078cc <__scanf_core+0x428>
9d0075d4:	24030061 	li	v1,97
9d0075d8:	104300bc 	beq	v0,v1,9d0078cc <__scanf_core+0x428>
9d0075dc:	28430062 	slti	v1,v0,98
9d0075e0:	1060003f 	beqz	v1,9d0076e0 <__scanf_core+0x23c>
9d0075e4:	24040025 	li	a0,37
9d0075e8:	104400e1 	beq	v0,a0,9d007970 <__scanf_core+0x4cc>
9d0075ec:	8fa301b4 	lw	v1,436(sp)
9d0075f0:	2404005b 	li	a0,91
9d0075f4:	104400fd 	beq	v0,a0,9d0079ec <__scanf_core+0x548>
9d0075f8:	24020080 	li	v0,128
9d0075fc:	8fa201b4 	lw	v0,436(sp)
9d007600:	24420001 	addiu	v0,v0,1
9d007604:	afa201b4 	sw	v0,436(sp)
9d007608:	2402ffff 	li	v0,-1
9d00760c:	166200ad 	bne	s3,v0,9d0078c4 <__scanf_core+0x420>
9d007610:	00008825 	move	s1,zero
9d007614:	52a00014 	beqzl	s5,9d007668 <__scanf_core+0x1c4>
9d007618:	2415ffff 	li	s5,-1
9d00761c:	10000013 	b	9d00766c <__scanf_core+0x1c8>
9d007620:	8fbf01dc 	lw	ra,476(sp)
9d007624:	8e02003c 	lw	v0,60(s0)
9d007628:	8e03004c 	lw	v1,76(s0)
9d00762c:	0043182b 	sltu	v1,v0,v1
9d007630:	1060001a 	beqz	v1,9d00769c <__scanf_core+0x1f8>
9d007634:	24430001 	addiu	v1,v0,1
9d007638:	ae03003c 	sw	v1,60(s0)
9d00763c:	90530000 	lbu	s3,0(v0)
9d007640:	8fa201b4 	lw	v0,436(sp)
9d007644:	80420000 	lb	v0,0(v0)
9d007648:	10530019 	beq	v0,s3,9d0076b0 <__scanf_core+0x20c>
9d00764c:	8fa201b0 	lw	v0,432(sp)
9d007650:	8e02004c 	lw	v0,76(s0)
9d007654:	10400005 	beqz	v0,9d00766c <__scanf_core+0x1c8>
9d007658:	8fbf01dc 	lw	ra,476(sp)
9d00765c:	8e02003c 	lw	v0,60(s0)
9d007660:	2442ffff 	addiu	v0,v0,-1
9d007664:	ae02003c 	sw	v0,60(s0)
9d007668:	8fbf01dc 	lw	ra,476(sp)
9d00766c:	02a01025 	move	v0,s5
9d007670:	8fbe01d8 	lw	s8,472(sp)
9d007674:	8fb701d4 	lw	s7,468(sp)
9d007678:	8fb601d0 	lw	s6,464(sp)
9d00767c:	8fb501cc 	lw	s5,460(sp)
9d007680:	8fb401c8 	lw	s4,456(sp)
9d007684:	8fb301c4 	lw	s3,452(sp)
9d007688:	8fb201c0 	lw	s2,448(sp)
9d00768c:	8fb101bc 	lw	s1,444(sp)
9d007690:	8fb001b8 	lw	s0,440(sp)
9d007694:	03e00008 	jr	ra
9d007698:	27bd01e0 	addiu	sp,sp,480
9d00769c:	0f402a47 	jal	9d00a91c <__shgetc>
9d0076a0:	02002025 	move	a0,s0
9d0076a4:	1454ffe6 	bne	v0,s4,9d007640 <__scanf_core+0x19c>
9d0076a8:	00409825 	move	s3,v0
9d0076ac:	8fa201b0 	lw	v0,432(sp)
9d0076b0:	27a501b4 	addiu	a1,sp,436
9d0076b4:	02002025 	move	a0,s0
9d0076b8:	24420001 	addiu	v0,v0,1
9d0076bc:	afa201b0 	sw	v0,432(sp)
9d0076c0:	8fa201b4 	lw	v0,436(sp)
9d0076c4:	24420001 	addiu	v0,v0,1
9d0076c8:	0f402cfa 	jal	9d00b3e8 <__consumews>
9d0076cc:	afa201b4 	sw	v0,436(sp)
9d0076d0:	1000ff95 	b	9d007528 <__scanf_core+0x84>
9d0076d4:	03c2f021 	addu	s8,s8,v0
9d0076d8:	1000ffae 	b	9d007594 <__scanf_core+0xf0>
9d0076dc:	afa301b4 	sw	v1,436(sp)
9d0076e0:	24030063 	li	v1,99
9d0076e4:	1043008a 	beq	v0,v1,9d007910 <__scanf_core+0x46c>
9d0076e8:	24030064 	li	v1,100
9d0076ec:	1443ffc3 	bne	v0,v1,9d0075fc <__scanf_core+0x158>
9d0076f0:	27a701b0 	addiu	a3,sp,432
9d0076f4:	27a6019c 	addiu	a2,sp,412
9d0076f8:	27a50018 	addiu	a1,sp,24
9d0076fc:	0f402cc2 	jal	9d00b308 <__scan_d>
9d007700:	02002025 	move	a0,s0
9d007704:	0442000c 	bltzl	v0,9d007738 <__scanf_core+0x294>
9d007708:	00408825 	move	s1,v0
9d00770c:	8fa201b4 	lw	v0,436(sp)
9d007710:	24420001 	addiu	v0,v0,1
9d007714:	162000a8 	bnez	s1,9d0079b8 <__scanf_core+0x514>
9d007718:	afa201b4 	sw	v0,436(sp)
9d00771c:	02403825 	move	a3,s2
9d007720:	24060001 	li	a2,1
9d007724:	02802825 	move	a1,s4
9d007728:	0f402528 	jal	9d0094a0 <__push_int>
9d00772c:	27a40018 	addiu	a0,sp,24
9d007730:	04410064 	bgez	v0,9d0078c4 <__scanf_core+0x420>
9d007734:	00408825 	move	s1,v0
9d007738:	2402ffff 	li	v0,-1
9d00773c:	1222ffb5 	beq	s1,v0,9d007614 <__scanf_core+0x170>
9d007740:	8fbf01dc 	lw	ra,476(sp)
9d007744:	1000ffca 	b	9d007670 <__scanf_core+0x1cc>
9d007748:	02a01025 	move	v0,s5
9d00774c:	24030070 	li	v1,112
9d007750:	10430040 	beq	v0,v1,9d007854 <__scanf_core+0x3b0>
9d007754:	28430071 	slti	v1,v0,113
9d007758:	1060000d 	beqz	v1,9d007790 <__scanf_core+0x2ec>
9d00775c:	2403006e 	li	v1,110
9d007760:	1043004b 	beq	v0,v1,9d007890 <__scanf_core+0x3ec>
9d007764:	2843006f 	slti	v1,v0,111
9d007768:	1060002c 	beqz	v1,9d00781c <__scanf_core+0x378>
9d00776c:	24030069 	li	v1,105
9d007770:	1443ffa2 	bne	v0,v1,9d0075fc <__scanf_core+0x158>
9d007774:	27a701b0 	addiu	a3,sp,432
9d007778:	27a6019c 	addiu	a2,sp,412
9d00777c:	27a50018 	addiu	a1,sp,24
9d007780:	0f402223 	jal	9d00888c <__scan_i>
9d007784:	02002025 	move	a0,s0
9d007788:	1000ffde 	b	9d007704 <__scanf_core+0x260>
9d00778c:	00000000 	nop
9d007790:	24030075 	li	v1,117
9d007794:	10430013 	beq	v0,v1,9d0077e4 <__scanf_core+0x340>
9d007798:	24030078 	li	v1,120
9d00779c:	10430026 	beq	v0,v1,9d007838 <__scanf_core+0x394>
9d0077a0:	24030073 	li	v1,115
9d0077a4:	1443ff95 	bne	v0,v1,9d0075fc <__scanf_core+0x158>
9d0077a8:	24020080 	li	v0,128
9d0077ac:	1682ff93 	bne	s4,v0,9d0075fc <__scanf_core+0x158>
9d0077b0:	8fa201b4 	lw	v0,436(sp)
9d0077b4:	24420001 	addiu	v0,v0,1
9d0077b8:	afa201b4 	sw	v0,436(sp)
9d0077bc:	16200005 	bnez	s1,9d0077d4 <__scanf_core+0x330>
9d0077c0:	00001025 	move	v0,zero
9d0077c4:	8e420000 	lw	v0,0(s2)
9d0077c8:	24430004 	addiu	v1,v0,4
9d0077cc:	ae430000 	sw	v1,0(s2)
9d0077d0:	8c420000 	lw	v0,0(v0)
9d0077d4:	afa20010 	sw	v0,16(sp)
9d0077d8:	27a701b0 	addiu	a3,sp,432
9d0077dc:	1000005f 	b	9d00795c <__scanf_core+0x4b8>
9d0077e0:	24060001 	li	a2,1
9d0077e4:	27a701b0 	addiu	a3,sp,432
9d0077e8:	27a6019c 	addiu	a2,sp,412
9d0077ec:	27a50018 	addiu	a1,sp,24
9d0077f0:	0f402cde 	jal	9d00b378 <__scan_u>
9d0077f4:	02002025 	move	a0,s0
9d0077f8:	0442ffcf 	bltzl	v0,9d007738 <__scanf_core+0x294>
9d0077fc:	00408825 	move	s1,v0
9d007800:	8fa201b4 	lw	v0,436(sp)
9d007804:	24420001 	addiu	v0,v0,1
9d007808:	1620006b 	bnez	s1,9d0079b8 <__scanf_core+0x514>
9d00780c:	afa201b4 	sw	v0,436(sp)
9d007810:	02403825 	move	a3,s2
9d007814:	1000ffc3 	b	9d007724 <__scanf_core+0x280>
9d007818:	00003025 	move	a2,zero
9d00781c:	27a701b0 	addiu	a3,sp,432
9d007820:	27a6019c 	addiu	a2,sp,412
9d007824:	27a50018 	addiu	a1,sp,24
9d007828:	0f4025da 	jal	9d009768 <__scan_o>
9d00782c:	02002025 	move	a0,s0
9d007830:	1000fff1 	b	9d0077f8 <__scanf_core+0x354>
9d007834:	00000000 	nop
9d007838:	27a701b0 	addiu	a3,sp,432
9d00783c:	27a6019c 	addiu	a2,sp,412
9d007840:	27a50018 	addiu	a1,sp,24
9d007844:	0f402374 	jal	9d008dd0 <__scan_x>
9d007848:	02002025 	move	a0,s0
9d00784c:	1000ffea 	b	9d0077f8 <__scanf_core+0x354>
9d007850:	00000000 	nop
9d007854:	27a701b0 	addiu	a3,sp,432
9d007858:	27a6019c 	addiu	a2,sp,412
9d00785c:	27a50018 	addiu	a1,sp,24
9d007860:	0f402374 	jal	9d008dd0 <__scan_x>
9d007864:	02002025 	move	a0,s0
9d007868:	0442ffb3 	bltzl	v0,9d007738 <__scanf_core+0x294>
9d00786c:	00408825 	move	s1,v0
9d007870:	8fa201b4 	lw	v0,436(sp)
9d007874:	24420001 	addiu	v0,v0,1
9d007878:	1620004f 	bnez	s1,9d0079b8 <__scanf_core+0x514>
9d00787c:	afa201b4 	sw	v0,436(sp)
9d007880:	02403825 	move	a3,s2
9d007884:	00003025 	move	a2,zero
9d007888:	1000ffa7 	b	9d007728 <__scanf_core+0x284>
9d00788c:	240500f0 	li	a1,240
9d007890:	8fa201b4 	lw	v0,436(sp)
9d007894:	24420001 	addiu	v0,v0,1
9d007898:	afa201b4 	sw	v0,436(sp)
9d00789c:	8fa201b0 	lw	v0,432(sp)
9d0078a0:	afa20018 	sw	v0,24(sp)
9d0078a4:	000217c3 	sra	v0,v0,0x1f
9d0078a8:	16200043 	bnez	s1,9d0079b8 <__scanf_core+0x514>
9d0078ac:	afa2001c 	sw	v0,28(sp)
9d0078b0:	02403825 	move	a3,s2
9d0078b4:	00003025 	move	a2,zero
9d0078b8:	02802825 	move	a1,s4
9d0078bc:	0f402528 	jal	9d0094a0 <__push_int>
9d0078c0:	27a40018 	addiu	a0,sp,24
9d0078c4:	1000ff09 	b	9d0074ec <__scanf_core+0x48>
9d0078c8:	02b1a821 	addu	s5,s5,s1
9d0078cc:	27a701b0 	addiu	a3,sp,432
9d0078d0:	27a6019c 	addiu	a2,sp,412
9d0078d4:	27a50018 	addiu	a1,sp,24
9d0078d8:	0f40309c 	jal	9d00c270 <__scan_a>
9d0078dc:	02002025 	move	a0,s0
9d0078e0:	0442ff95 	bltzl	v0,9d007738 <__scanf_core+0x294>
9d0078e4:	00408825 	move	s1,v0
9d0078e8:	8fa201b4 	lw	v0,436(sp)
9d0078ec:	24420001 	addiu	v0,v0,1
9d0078f0:	16200031 	bnez	s1,9d0079b8 <__scanf_core+0x514>
9d0078f4:	afa201b4 	sw	v0,436(sp)
9d0078f8:	02403025 	move	a2,s2
9d0078fc:	02802825 	move	a1,s4
9d007900:	0f402af7 	jal	9d00abdc <__push_float>
9d007904:	27a40018 	addiu	a0,sp,24
9d007908:	1000ff89 	b	9d007730 <__scanf_core+0x28c>
9d00790c:	00000000 	nop
9d007910:	24020080 	li	v0,128
9d007914:	1682ff39 	bne	s4,v0,9d0075fc <__scanf_core+0x158>
9d007918:	8fa201a4 	lw	v0,420(sp)
9d00791c:	54400004 	bnezl	v0,9d007930 <__scanf_core+0x48c>
9d007920:	8fa201b4 	lw	v0,436(sp)
9d007924:	24020001 	li	v0,1
9d007928:	afa201a4 	sw	v0,420(sp)
9d00792c:	8fa201b4 	lw	v0,436(sp)
9d007930:	24420001 	addiu	v0,v0,1
9d007934:	afa201b4 	sw	v0,436(sp)
9d007938:	16200005 	bnez	s1,9d007950 <__scanf_core+0x4ac>
9d00793c:	00001025 	move	v0,zero
9d007940:	8e420000 	lw	v0,0(s2)
9d007944:	24430004 	addiu	v1,v0,4
9d007948:	ae430000 	sw	v1,0(s2)
9d00794c:	8c420000 	lw	v0,0(v0)
9d007950:	afa20010 	sw	v0,16(sp)
9d007954:	27a701b0 	addiu	a3,sp,432
9d007958:	00003025 	move	a2,zero
9d00795c:	27a5019c 	addiu	a1,sp,412
9d007960:	0f402584 	jal	9d009610 <__scan_s>
9d007964:	02002025 	move	a0,s0
9d007968:	1000ff71 	b	9d007730 <__scanf_core+0x28c>
9d00796c:	00000000 	nop
9d007970:	24020080 	li	v0,128
9d007974:	1682ff22 	bne	s4,v0,9d007600 <__scanf_core+0x15c>
9d007978:	8fa201b4 	lw	v0,436(sp)
9d00797c:	24630001 	addiu	v1,v1,1
9d007980:	afa301b4 	sw	v1,436(sp)
9d007984:	8e02003c 	lw	v0,60(s0)
9d007988:	8e03004c 	lw	v1,76(s0)
9d00798c:	0043182b 	sltu	v1,v0,v1
9d007990:	1060000b 	beqz	v1,9d0079c0 <__scanf_core+0x51c>
9d007994:	00000000 	nop
9d007998:	24430001 	addiu	v1,v0,1
9d00799c:	ae03003c 	sw	v1,60(s0)
9d0079a0:	90420000 	lbu	v0,0(v0)
9d0079a4:	24030025 	li	v1,37
9d0079a8:	14430009 	bne	v0,v1,9d0079d0 <__scanf_core+0x52c>
9d0079ac:	8fa201b0 	lw	v0,432(sp)
9d0079b0:	24420001 	addiu	v0,v0,1
9d0079b4:	afa201b0 	sw	v0,432(sp)
9d0079b8:	1000ffc2 	b	9d0078c4 <__scanf_core+0x420>
9d0079bc:	00008825 	move	s1,zero
9d0079c0:	0f402a47 	jal	9d00a91c <__shgetc>
9d0079c4:	02002025 	move	a0,s0
9d0079c8:	1000fff7 	b	9d0079a8 <__scanf_core+0x504>
9d0079cc:	24030025 	li	v1,37
9d0079d0:	8e02004c 	lw	v0,76(s0)
9d0079d4:	5040ffbb 	beqzl	v0,9d0078c4 <__scanf_core+0x420>
9d0079d8:	00008825 	move	s1,zero
9d0079dc:	8e02003c 	lw	v0,60(s0)
9d0079e0:	2442ffff 	addiu	v0,v0,-1
9d0079e4:	1000fff4 	b	9d0079b8 <__scanf_core+0x514>
9d0079e8:	ae02003c 	sw	v0,60(s0)
9d0079ec:	1682ff04 	bne	s4,v0,9d007600 <__scanf_core+0x15c>
9d0079f0:	8fa201b4 	lw	v0,436(sp)
9d0079f4:	16200005 	bnez	s1,9d007a0c <__scanf_core+0x568>
9d0079f8:	0000a025 	move	s4,zero
9d0079fc:	8e420000 	lw	v0,0(s2)
9d007a00:	24440004 	addiu	a0,v0,4
9d007a04:	ae440000 	sw	a0,0(s2)
9d007a08:	8c540000 	lw	s4,0(v0)
9d007a0c:	24620001 	addiu	v0,v1,1
9d007a10:	afa201b4 	sw	v0,436(sp)
9d007a14:	80640001 	lb	a0,1(v1)
9d007a18:	2402005e 	li	v0,94
9d007a1c:	14820004 	bne	a0,v0,9d007a30 <__scanf_core+0x58c>
9d007a20:	00008825 	move	s1,zero
9d007a24:	24630002 	addiu	v1,v1,2
9d007a28:	afa301b4 	sw	v1,436(sp)
9d007a2c:	24110001 	li	s1,1
9d007a30:	27a40018 	addiu	a0,sp,24
9d007a34:	24060101 	li	a2,257
9d007a38:	0f403010 	jal	9d00c040 <memset>
9d007a3c:	02202825 	move	a1,s1
9d007a40:	8fa201b4 	lw	v0,436(sp)
9d007a44:	a3a00018 	sb	zero,24(sp)
9d007a48:	2404002d 	li	a0,45
9d007a4c:	80430000 	lb	v1,0(v0)
9d007a50:	1464001c 	bne	v1,a0,9d007ac4 <__scanf_core+0x620>
9d007a54:	2404005d 	li	a0,93
9d007a58:	24420001 	addiu	v0,v0,1
9d007a5c:	afa201b4 	sw	v0,436(sp)
9d007a60:	02d11023 	subu	v0,s6,s1
9d007a64:	a3a20046 	sb	v0,70(sp)
9d007a68:	2405005d 	li	a1,93
9d007a6c:	2406002d 	li	a2,45
9d007a70:	02d18823 	subu	s1,s6,s1
9d007a74:	8fa301b4 	lw	v1,436(sp)
9d007a78:	80620000 	lb	v0,0(v1)
9d007a7c:	14450017 	bne	v0,a1,9d007adc <__scanf_core+0x638>
9d007a80:	00000000 	nop
9d007a84:	56800036 	bnezl	s4,9d007b60 <__scanf_core+0x6bc>
9d007a88:	00008825 	move	s1,zero
9d007a8c:	8e02003c 	lw	v0,60(s0)
9d007a90:	8e03004c 	lw	v1,76(s0)
9d007a94:	0043182b 	sltu	v1,v0,v1
9d007a98:	10600053 	beqz	v1,9d007be8 <__scanf_core+0x744>
9d007a9c:	24430001 	addiu	v1,v0,1
9d007aa0:	ae03003c 	sw	v1,60(s0)
9d007aa4:	90530000 	lbu	s3,0(v0)
9d007aa8:	27a20018 	addiu	v0,sp,24
9d007aac:	00531021 	addu	v0,v0,s3
9d007ab0:	90420001 	lbu	v0,1(v0)
9d007ab4:	14400048 	bnez	v0,9d007bd8 <__scanf_core+0x734>
9d007ab8:	0000f025 	move	s8,zero
9d007abc:	10000036 	b	9d007b98 <__scanf_core+0x6f4>
9d007ac0:	8e02004c 	lw	v0,76(s0)
9d007ac4:	1464ffe8 	bne	v1,a0,9d007a68 <__scanf_core+0x5c4>
9d007ac8:	24420001 	addiu	v0,v0,1
9d007acc:	afa201b4 	sw	v0,436(sp)
9d007ad0:	02d11023 	subu	v0,s6,s1
9d007ad4:	1000ffe4 	b	9d007a68 <__scanf_core+0x5c4>
9d007ad8:	a3a20076 	sb	v0,118(sp)
9d007adc:	1040ffe9 	beqz	v0,9d007a84 <__scanf_core+0x5e0>
9d007ae0:	00000000 	nop
9d007ae4:	10460009 	beq	v0,a2,9d007b0c <__scanf_core+0x668>
9d007ae8:	8fa201b8 	lw	v0,440(sp)
9d007aec:	8fa201b4 	lw	v0,436(sp)
9d007af0:	27a40018 	addiu	a0,sp,24
9d007af4:	80430000 	lb	v1,0(v0)
9d007af8:	24420001 	addiu	v0,v0,1
9d007afc:	afa201b4 	sw	v0,436(sp)
9d007b00:	00831821 	addu	v1,a0,v1
9d007b04:	1000ffdb 	b	9d007a74 <__scanf_core+0x5d0>
9d007b08:	a0710001 	sb	s1,1(v1)
9d007b0c:	80420000 	lb	v0,0(v0)
9d007b10:	5040fff7 	beqzl	v0,9d007af0 <__scanf_core+0x64c>
9d007b14:	8fa201b4 	lw	v0,436(sp)
9d007b18:	1045fff4 	beq	v0,a1,9d007aec <__scanf_core+0x648>
9d007b1c:	24620001 	addiu	v0,v1,1
9d007b20:	afa201b4 	sw	v0,436(sp)
9d007b24:	8fa201b0 	lw	v0,432(sp)
9d007b28:	80420000 	lb	v0,0(v0)
9d007b2c:	80640001 	lb	a0,1(v1)
9d007b30:	0044202a 	slt	a0,v0,a0
9d007b34:	1080ffed 	beqz	a0,9d007aec <__scanf_core+0x648>
9d007b38:	24420001 	addiu	v0,v0,1
9d007b3c:	27a40018 	addiu	a0,sp,24
9d007b40:	00822021 	addu	a0,a0,v0
9d007b44:	1000fff9 	b	9d007b2c <__scanf_core+0x688>
9d007b48:	a0910000 	sb	s1,0(a0)
9d007b4c:	a0530000 	sb	s3,0(v0)
9d007b50:	8fa201b0 	lw	v0,432(sp)
9d007b54:	26310001 	addiu	s1,s1,1
9d007b58:	24420001 	addiu	v0,v0,1
9d007b5c:	afa201b0 	sw	v0,432(sp)
9d007b60:	8e02003c 	lw	v0,60(s0)
9d007b64:	8e03004c 	lw	v1,76(s0)
9d007b68:	0043182b 	sltu	v1,v0,v1
9d007b6c:	10600016 	beqz	v1,9d007bc8 <__scanf_core+0x724>
9d007b70:	0220f025 	move	s8,s1
9d007b74:	24430001 	addiu	v1,v0,1
9d007b78:	ae03003c 	sw	v1,60(s0)
9d007b7c:	90530000 	lbu	s3,0(v0)
9d007b80:	27a20018 	addiu	v0,sp,24
9d007b84:	00531021 	addu	v0,v0,s3
9d007b88:	90420001 	lbu	v0,1(v0)
9d007b8c:	1440ffef 	bnez	v0,9d007b4c <__scanf_core+0x6a8>
9d007b90:	02911021 	addu	v0,s4,s1
9d007b94:	8e02004c 	lw	v0,76(s0)
9d007b98:	10400004 	beqz	v0,9d007bac <__scanf_core+0x708>
9d007b9c:	00000000 	nop
9d007ba0:	8e02003c 	lw	v0,60(s0)
9d007ba4:	2442ffff 	addiu	v0,v0,-1
9d007ba8:	ae02003c 	sw	v0,60(s0)
9d007bac:	13c0fe94 	beqz	s8,9d007600 <__scanf_core+0x15c>
9d007bb0:	8fa201b4 	lw	v0,436(sp)
9d007bb4:	1280fe93 	beqz	s4,9d007604 <__scanf_core+0x160>
9d007bb8:	24420001 	addiu	v0,v0,1
9d007bbc:	029ea021 	addu	s4,s4,s8
9d007bc0:	1000fe8e 	b	9d0075fc <__scanf_core+0x158>
9d007bc4:	a2800000 	sb	zero,0(s4)
9d007bc8:	0f402a47 	jal	9d00a91c <__shgetc>
9d007bcc:	02002025 	move	a0,s0
9d007bd0:	1000ffeb 	b	9d007b80 <__scanf_core+0x6dc>
9d007bd4:	00409825 	move	s3,v0
9d007bd8:	8fa201b0 	lw	v0,432(sp)
9d007bdc:	24420001 	addiu	v0,v0,1
9d007be0:	1000ffaa 	b	9d007a8c <__scanf_core+0x5e8>
9d007be4:	afa201b0 	sw	v0,432(sp)
9d007be8:	0f402a47 	jal	9d00a91c <__shgetc>
9d007bec:	02002025 	move	a0,s0
9d007bf0:	1000ffad 	b	9d007aa8 <__scanf_core+0x604>
9d007bf4:	00409825 	move	s3,v0

Disassembly of section .text.__intscan:

9d007bf8 <__intscan>:
9d007bf8:	27bdffb8 	addiu	sp,sp,-72
9d007bfc:	8fa2005c 	lw	v0,92(sp)
9d007c00:	afb20028 	sw	s2,40(sp)
9d007c04:	afbf0044 	sw	ra,68(sp)
9d007c08:	afa20010 	sw	v0,16(sp)
9d007c0c:	2ca20025 	sltiu	v0,a1,37
9d007c10:	afbe0040 	sw	s8,64(sp)
9d007c14:	afb7003c 	sw	s7,60(sp)
9d007c18:	afb60038 	sw	s6,56(sp)
9d007c1c:	afb50034 	sw	s5,52(sp)
9d007c20:	afb40030 	sw	s4,48(sp)
9d007c24:	afb3002c 	sw	s3,44(sp)
9d007c28:	afb10024 	sw	s1,36(sp)
9d007c2c:	afb00020 	sw	s0,32(sp)
9d007c30:	10400033 	beqz	v0,9d007d00 <__intscan+0x108>
9d007c34:	8fb20058 	lw	s2,88(sp)
9d007c38:	24020001 	li	v0,1
9d007c3c:	10a20030 	beq	a1,v0,9d007d00 <__intscan+0x108>
9d007c40:	00808025 	move	s0,a0
9d007c44:	00a08825 	move	s1,a1
9d007c48:	00c09825 	move	s3,a2
9d007c4c:	24140020 	li	s4,32
9d007c50:	8e02003c 	lw	v0,60(s0)
9d007c54:	8e03004c 	lw	v1,76(s0)
9d007c58:	0043182b 	sltu	v1,v0,v1
9d007c5c:	1060002c 	beqz	v1,9d007d10 <__intscan+0x118>
9d007c60:	24430001 	addiu	v1,v0,1
9d007c64:	ae03003c 	sw	v1,60(s0)
9d007c68:	90490000 	lbu	t1,0(v0)
9d007c6c:	1134fff8 	beq	t1,s4,9d007c50 <__intscan+0x58>
9d007c70:	2522fff7 	addiu	v0,t1,-9
9d007c74:	2c420005 	sltiu	v0,v0,5
9d007c78:	1440fff5 	bnez	v0,9d007c50 <__intscan+0x58>
9d007c7c:	2522ffd5 	addiu	v0,t1,-43
9d007c80:	7c020844 	ins	v0,zero,0x1,0x1
9d007c84:	1440000b 	bnez	v0,9d007cb4 <__intscan+0xbc>
9d007c88:	0000a025 	move	s4,zero
9d007c8c:	8e02003c 	lw	v0,60(s0)
9d007c90:	8e03004c 	lw	v1,76(s0)
9d007c94:	3934002d 	xori	s4,t1,0x2d
9d007c98:	2e940001 	sltiu	s4,s4,1
9d007c9c:	0043182b 	sltu	v1,v0,v1
9d007ca0:	1060001f 	beqz	v1,9d007d20 <__intscan+0x128>
9d007ca4:	0014a023 	negu	s4,s4
9d007ca8:	24430001 	addiu	v1,v0,1
9d007cac:	ae03003c 	sw	v1,60(s0)
9d007cb0:	90490000 	lbu	t1,0(v0)
9d007cb4:	1220001e 	beqz	s1,9d007d30 <__intscan+0x138>
9d007cb8:	8e03004c 	lw	v1,76(s0)
9d007cbc:	24020010 	li	v0,16
9d007cc0:	1222018e 	beq	s1,v0,9d0082fc <__intscan+0x704>
9d007cc4:	24020030 	li	v0,48
9d007cc8:	3c029d01 	lui	v0,0x9d01
9d007ccc:	2442a151 	addiu	v0,v0,-24239
9d007cd0:	01221021 	addu	v0,t1,v0
9d007cd4:	90420000 	lbu	v0,0(v0)
9d007cd8:	0051102b 	sltu	v0,v0,s1
9d007cdc:	14400057 	bnez	v0,9d007e3c <__intscan+0x244>
9d007ce0:	2402000a 	li	v0,10
9d007ce4:	10600004 	beqz	v1,9d007cf8 <__intscan+0x100>
9d007ce8:	00002825 	move	a1,zero
9d007cec:	8e02003c 	lw	v0,60(s0)
9d007cf0:	2442ffff 	addiu	v0,v0,-1
9d007cf4:	ae02003c 	sw	v0,60(s0)
9d007cf8:	0f402fcf 	jal	9d00bf3c <__shlim>
9d007cfc:	02002025 	move	a0,s0
9d007d00:	3c02a000 	lui	v0,0xa000
9d007d04:	24030016 	li	v1,22
9d007d08:	1000002b 	b	9d007db8 <__intscan+0x1c0>
9d007d0c:	ac43034c 	sw	v1,844(v0)
9d007d10:	0f402a47 	jal	9d00a91c <__shgetc>
9d007d14:	02002025 	move	a0,s0
9d007d18:	1000ffd4 	b	9d007c6c <__intscan+0x74>
9d007d1c:	00404825 	move	t1,v0
9d007d20:	0f402a47 	jal	9d00a91c <__shgetc>
9d007d24:	02002025 	move	a0,s0
9d007d28:	1000ffe2 	b	9d007cb4 <__intscan+0xbc>
9d007d2c:	00404825 	move	t1,v0
9d007d30:	24020030 	li	v0,48
9d007d34:	5522ffe4 	bnel	t1,v0,9d007cc8 <__intscan+0xd0>
9d007d38:	2411000a 	li	s1,10
9d007d3c:	8e02003c 	lw	v0,60(s0)
9d007d40:	0043182b 	sltu	v1,v0,v1
9d007d44:	1060002c 	beqz	v1,9d007df8 <__intscan+0x200>
9d007d48:	24430001 	addiu	v1,v0,1
9d007d4c:	ae03003c 	sw	v1,60(s0)
9d007d50:	90490000 	lbu	t1,0(v0)
9d007d54:	35220020 	ori	v0,t1,0x20
9d007d58:	24030078 	li	v1,120
9d007d5c:	14430035 	bne	v0,v1,9d007e34 <__intscan+0x23c>
9d007d60:	00000000 	nop
9d007d64:	8e02003c 	lw	v0,60(s0)
9d007d68:	8e03004c 	lw	v1,76(s0)
9d007d6c:	0043182b 	sltu	v1,v0,v1
9d007d70:	10600025 	beqz	v1,9d007e08 <__intscan+0x210>
9d007d74:	24430001 	addiu	v1,v0,1
9d007d78:	ae03003c 	sw	v1,60(s0)
9d007d7c:	90490000 	lbu	t1,0(v0)
9d007d80:	3c029d01 	lui	v0,0x9d01
9d007d84:	2442a151 	addiu	v0,v0,-24239
9d007d88:	01221021 	addu	v0,t1,v0
9d007d8c:	90420000 	lbu	v0,0(v0)
9d007d90:	2c420010 	sltiu	v0,v0,16
9d007d94:	5440002b 	bnezl	v0,9d007e44 <__intscan+0x24c>
9d007d98:	24110010 	li	s1,16
9d007d9c:	8e02004c 	lw	v0,76(s0)
9d007da0:	10400152 	beqz	v0,9d0082ec <__intscan+0x6f4>
9d007da4:	00003825 	move	a3,zero
9d007da8:	1260001b 	beqz	s3,9d007e18 <__intscan+0x220>
9d007dac:	8e02003c 	lw	v0,60(s0)
9d007db0:	2442fffe 	addiu	v0,v0,-2
9d007db4:	ae02003c 	sw	v0,60(s0)
9d007db8:	00003825 	move	a3,zero
9d007dbc:	00004025 	move	t0,zero
9d007dc0:	8fbf0044 	lw	ra,68(sp)
9d007dc4:	00e01025 	move	v0,a3
9d007dc8:	01001825 	move	v1,t0
9d007dcc:	8fbe0040 	lw	s8,64(sp)
9d007dd0:	8fb7003c 	lw	s7,60(sp)
9d007dd4:	8fb60038 	lw	s6,56(sp)
9d007dd8:	8fb50034 	lw	s5,52(sp)
9d007ddc:	8fb40030 	lw	s4,48(sp)
9d007de0:	8fb3002c 	lw	s3,44(sp)
9d007de4:	8fb20028 	lw	s2,40(sp)
9d007de8:	8fb10024 	lw	s1,36(sp)
9d007dec:	8fb00020 	lw	s0,32(sp)
9d007df0:	03e00008 	jr	ra
9d007df4:	27bd0048 	addiu	sp,sp,72
9d007df8:	0f402a47 	jal	9d00a91c <__shgetc>
9d007dfc:	02002025 	move	a0,s0
9d007e00:	1000ffd4 	b	9d007d54 <__intscan+0x15c>
9d007e04:	00404825 	move	t1,v0
9d007e08:	0f402a47 	jal	9d00a91c <__shgetc>
9d007e0c:	02002025 	move	a0,s0
9d007e10:	1000ffdb 	b	9d007d80 <__intscan+0x188>
9d007e14:	00404825 	move	t1,v0
9d007e18:	2442ffff 	addiu	v0,v0,-1
9d007e1c:	ae02003c 	sw	v0,60(s0)
9d007e20:	00002825 	move	a1,zero
9d007e24:	0f402fcf 	jal	9d00bf3c <__shlim>
9d007e28:	02002025 	move	a0,s0
9d007e2c:	1000ffe3 	b	9d007dbc <__intscan+0x1c4>
9d007e30:	00003825 	move	a3,zero
9d007e34:	12200087 	beqz	s1,9d008054 <__intscan+0x45c>
9d007e38:	2402000a 	li	v0,10
9d007e3c:	1222007b 	beq	s1,v0,9d00802c <__intscan+0x434>
9d007e40:	3c151999 	lui	s5,0x1999
9d007e44:	2627ffff 	addiu	a3,s1,-1
9d007e48:	3c139d01 	lui	s3,0x9d01
9d007e4c:	00f1a824 	and	s5,a3,s1
9d007e50:	16a000f9 	bnez	s5,9d008238 <__intscan+0x640>
9d007e54:	2673a151 	addiu	s3,s3,-24239
9d007e58:	24020017 	li	v0,23
9d007e5c:	72221002 	mul	v0,s1,v0
9d007e60:	3c039d01 	lui	v1,0x9d01
9d007e64:	2463a144 	addiu	v1,v1,-24252
9d007e68:	3c1e0800 	lui	s8,0x800
9d007e6c:	7c421140 	ext	v0,v0,0x5,0x3
9d007e70:	00431021 	addu	v0,v0,v1
9d007e74:	80560000 	lb	s6,0(v0)
9d007e78:	02691021 	addu	v0,s3,t1
9d007e7c:	90570000 	lbu	s7,0(v0)
9d007e80:	02f1102b 	sltu	v0,s7,s1
9d007e84:	10400003 	beqz	v0,9d007e94 <__intscan+0x29c>
9d007e88:	02be102b 	sltu	v0,s5,s8
9d007e8c:	54400073 	bnezl	v0,9d00805c <__intscan+0x464>
9d007e90:	8e02003c 	lw	v0,60(s0)
9d007e94:	00004025 	move	t0,zero
9d007e98:	02c03025 	move	a2,s6
9d007e9c:	2404ffff 	li	a0,-1
9d007ea0:	2405ffff 	li	a1,-1
9d007ea4:	afa9001c 	sw	t1,28(sp)
9d007ea8:	afb50018 	sw	s5,24(sp)
9d007eac:	0f402f51 	jal	9d00bd44 <__lshrdi3>
9d007eb0:	afa80014 	sw	t0,20(sp)
9d007eb4:	8fa80014 	lw	t0,20(sp)
9d007eb8:	8fa70018 	lw	a3,24(sp)
9d007ebc:	8fa9001c 	lw	t1,28(sp)
9d007ec0:	0040b825 	move	s7,v0
9d007ec4:	0060a825 	move	s5,v1
9d007ec8:	02691021 	addu	v0,s3,t1
9d007ecc:	905e0000 	lbu	s8,0(v0)
9d007ed0:	03d1102b 	sltu	v0,s8,s1
9d007ed4:	104000a0 	beqz	v0,9d008158 <__intscan+0x560>
9d007ed8:	02a8102b 	sltu	v0,s5,t0
9d007edc:	5440009f 	bnezl	v0,9d00815c <__intscan+0x564>
9d007ee0:	3c139d01 	lui	s3,0x9d01
9d007ee4:	15150003 	bne	t0,s5,9d007ef4 <__intscan+0x2fc>
9d007ee8:	02e7102b 	sltu	v0,s7,a3
9d007eec:	5440009b 	bnezl	v0,9d00815c <__intscan+0x564>
9d007ef0:	3c139d01 	lui	s3,0x9d01
9d007ef4:	8e02003c 	lw	v0,60(s0)
9d007ef8:	8e03004c 	lw	v1,76(s0)
9d007efc:	0043182b 	sltu	v1,v0,v1
9d007f00:	10600063 	beqz	v1,9d008090 <__intscan+0x498>
9d007f04:	24430001 	addiu	v1,v0,1
9d007f08:	ae03003c 	sw	v1,60(s0)
9d007f0c:	90490000 	lbu	t1,0(v0)
9d007f10:	00e02025 	move	a0,a3
9d007f14:	01002825 	move	a1,t0
9d007f18:	02c03025 	move	a2,s6
9d007f1c:	0f402f60 	jal	9d00bd80 <__ashldi3>
9d007f20:	afa90014 	sw	t1,20(sp)
9d007f24:	03c23825 	or	a3,s8,v0
9d007f28:	00604025 	move	t0,v1
9d007f2c:	1000ffe6 	b	9d007ec8 <__intscan+0x2d0>
9d007f30:	8fa90014 	lw	t1,20(sp)
9d007f34:	8e03004c 	lw	v1,76(s0)
9d007f38:	0043182b 	sltu	v1,v0,v1
9d007f3c:	10600036 	beqz	v1,9d008018 <__intscan+0x420>
9d007f40:	24430001 	addiu	v1,v0,1
9d007f44:	ae03003c 	sw	v1,60(s0)
9d007f48:	90420000 	lbu	v0,0(v0)
9d007f4c:	72761802 	mul	v1,s3,s6
9d007f50:	00693821 	addu	a3,v1,t1
9d007f54:	24f3ffd0 	addiu	s3,a3,-48
9d007f58:	00404825 	move	t1,v0
9d007f5c:	2522ffd0 	addiu	v0,t1,-48
9d007f60:	2c42000a 	sltiu	v0,v0,10
9d007f64:	10400003 	beqz	v0,9d007f74 <__intscan+0x37c>
9d007f68:	0275102b 	sltu	v0,s3,s5
9d007f6c:	5440fff1 	bnezl	v0,9d007f34 <__intscan+0x33c>
9d007f70:	8e02003c 	lw	v0,60(s0)
9d007f74:	3c151999 	lui	s5,0x1999
9d007f78:	36b5999a 	ori	s5,s5,0x999a
9d007f7c:	3c1e9999 	lui	s8,0x9999
9d007f80:	02603825 	move	a3,s3
9d007f84:	00004025 	move	t0,zero
9d007f88:	26a5ffff 	addiu	a1,s5,-1
9d007f8c:	37de999a 	ori	s8,s8,0x999a
9d007f90:	2533ffd0 	addiu	s3,t1,-48
9d007f94:	2e62000a 	sltiu	v0,s3,10
9d007f98:	10400088 	beqz	v0,9d0081bc <__intscan+0x5c4>
9d007f9c:	0115102b 	sltu	v0,t0,s5
9d007fa0:	5040006e 	beqzl	v0,9d00815c <__intscan+0x564>
9d007fa4:	3c139d01 	lui	s3,0x9d01
9d007fa8:	15050004 	bne	t0,a1,9d007fbc <__intscan+0x3c4>
9d007fac:	2402000a 	li	v0,10
9d007fb0:	00fe102b 	sltu	v0,a3,s8
9d007fb4:	10400068 	beqz	v0,9d008158 <__intscan+0x560>
9d007fb8:	2402000a 	li	v0,10
9d007fbc:	00470019 	multu	v0,a3
9d007fc0:	0000b810 	mfhi	s7
9d007fc4:	0000b012 	mflo	s6
9d007fc8:	70481802 	mul	v1,v0,t0
9d007fcc:	0077b821 	addu	s7,v1,s7
9d007fd0:	2403ffff 	li	v1,-1
9d007fd4:	16e30004 	bne	s7,v1,9d007fe8 <__intscan+0x3f0>
9d007fd8:	00131027 	nor	v0,zero,s3
9d007fdc:	0056102b 	sltu	v0,v0,s6
9d007fe0:	5440005e 	bnezl	v0,9d00815c <__intscan+0x564>
9d007fe4:	3c139d01 	lui	s3,0x9d01
9d007fe8:	8e02003c 	lw	v0,60(s0)
9d007fec:	8e03004c 	lw	v1,76(s0)
9d007ff0:	0043182b 	sltu	v1,v0,v1
9d007ff4:	10600011 	beqz	v1,9d00803c <__intscan+0x444>
9d007ff8:	00000000 	nop
9d007ffc:	24430001 	addiu	v1,v0,1
9d008000:	ae03003c 	sw	v1,60(s0)
9d008004:	90490000 	lbu	t1,0(v0)
9d008008:	02763821 	addu	a3,s3,s6
9d00800c:	00f6402b 	sltu	t0,a3,s6
9d008010:	1000ffdf 	b	9d007f90 <__intscan+0x398>
9d008014:	01174021 	addu	t0,t0,s7
9d008018:	02002025 	move	a0,s0
9d00801c:	0f402a47 	jal	9d00a91c <__shgetc>
9d008020:	afa90014 	sw	t1,20(sp)
9d008024:	1000ffc9 	b	9d007f4c <__intscan+0x354>
9d008028:	8fa90014 	lw	t1,20(sp)
9d00802c:	00009825 	move	s3,zero
9d008030:	36b59999 	ori	s5,s5,0x9999
9d008034:	1000ffc9 	b	9d007f5c <__intscan+0x364>
9d008038:	2416000a 	li	s6,10
9d00803c:	0f402a47 	jal	9d00a91c <__shgetc>
9d008040:	02002025 	move	a0,s0
9d008044:	00404825 	move	t1,v0
9d008048:	3c021999 	lui	v0,0x1999
9d00804c:	1000ffee 	b	9d008008 <__intscan+0x410>
9d008050:	34459999 	ori	a1,v0,0x9999
9d008054:	1000ff7b 	b	9d007e44 <__intscan+0x24c>
9d008058:	24110008 	li	s1,8
9d00805c:	8e03004c 	lw	v1,76(s0)
9d008060:	0043182b 	sltu	v1,v0,v1
9d008064:	10600006 	beqz	v1,9d008080 <__intscan+0x488>
9d008068:	24430001 	addiu	v1,v0,1
9d00806c:	ae03003c 	sw	v1,60(s0)
9d008070:	90490000 	lbu	t1,0(v0)
9d008074:	02d53804 	sllv	a3,s5,s6
9d008078:	1000ff7f 	b	9d007e78 <__intscan+0x280>
9d00807c:	00f7a825 	or	s5,a3,s7
9d008080:	0f402a47 	jal	9d00a91c <__shgetc>
9d008084:	02002025 	move	a0,s0
9d008088:	1000fffa 	b	9d008074 <__intscan+0x47c>
9d00808c:	00404825 	move	t1,v0
9d008090:	02002025 	move	a0,s0
9d008094:	afa80018 	sw	t0,24(sp)
9d008098:	0f402a47 	jal	9d00a91c <__shgetc>
9d00809c:	afa70014 	sw	a3,20(sp)
9d0080a0:	00404825 	move	t1,v0
9d0080a4:	8fa80018 	lw	t0,24(sp)
9d0080a8:	1000ff99 	b	9d007f10 <__intscan+0x318>
9d0080ac:	8fa70014 	lw	a3,20(sp)
9d0080b0:	8e03004c 	lw	v1,76(s0)
9d0080b4:	0043182b 	sltu	v1,v0,v1
9d0080b8:	1060005b 	beqz	v1,9d008228 <__intscan+0x630>
9d0080bc:	24430001 	addiu	v1,v0,1
9d0080c0:	ae03003c 	sw	v1,60(s0)
9d0080c4:	90490000 	lbu	t1,0(v0)
9d0080c8:	72351002 	mul	v0,s1,s5
9d0080cc:	0057a821 	addu	s5,v0,s7
9d0080d0:	02691021 	addu	v0,s3,t1
9d0080d4:	90570000 	lbu	s7,0(v0)
9d0080d8:	02f1102b 	sltu	v0,s7,s1
9d0080dc:	10400003 	beqz	v0,9d0080ec <__intscan+0x4f4>
9d0080e0:	02b6102b 	sltu	v0,s5,s6
9d0080e4:	5440fff2 	bnezl	v0,9d0080b0 <__intscan+0x4b8>
9d0080e8:	8e02003c 	lw	v0,60(s0)
9d0080ec:	02a03825 	move	a3,s5
9d0080f0:	00004025 	move	t0,zero
9d0080f4:	241effff 	li	s8,-1
9d0080f8:	02691021 	addu	v0,s3,t1
9d0080fc:	90550000 	lbu	s5,0(v0)
9d008100:	02b1102b 	sltu	v0,s5,s1
9d008104:	10400014 	beqz	v0,9d008158 <__intscan+0x560>
9d008108:	00f10019 	multu	a3,s1
9d00810c:	00002012 	mflo	a0
9d008110:	11000009 	beqz	t0,9d008138 <__intscan+0x540>
9d008114:	00002810 	mfhi	a1
9d008118:	02280019 	multu	s1,t0
9d00811c:	00006012 	mflo	t4
9d008120:	00ac1021 	addu	v0,a1,t4
9d008124:	004c102b 	sltu	v0,v0,t4
9d008128:	00006810 	mfhi	t5
9d00812c:	004d1021 	addu	v0,v0,t5
9d008130:	5440000a 	bnezl	v0,9d00815c <__intscan+0x564>
9d008134:	3c139d01 	lui	s3,0x9d01
9d008138:	71111002 	mul	v0,t0,s1
9d00813c:	0080b025 	move	s6,a0
9d008140:	0045b821 	addu	s7,v0,a1
9d008144:	16fe0040 	bne	s7,s8,9d008248 <__intscan+0x650>
9d008148:	00151027 	nor	v0,zero,s5
9d00814c:	0044102b 	sltu	v0,v0,a0
9d008150:	5040003e 	beqzl	v0,9d00824c <__intscan+0x654>
9d008154:	8e02003c 	lw	v0,60(s0)
9d008158:	3c139d01 	lui	s3,0x9d01
9d00815c:	2673a151 	addiu	s3,s3,-24239
9d008160:	01334821 	addu	t1,t1,s3
9d008164:	91220000 	lbu	v0,0(t1)
9d008168:	0051102b 	sltu	v0,v0,s1
9d00816c:	50400014 	beqzl	v0,9d0081c0 <__intscan+0x5c8>
9d008170:	8e02004c 	lw	v0,76(s0)
9d008174:	8e02003c 	lw	v0,60(s0)
9d008178:	8e03004c 	lw	v1,76(s0)
9d00817c:	0043182b 	sltu	v1,v0,v1
9d008180:	10600040 	beqz	v1,9d008284 <__intscan+0x68c>
9d008184:	24430001 	addiu	v1,v0,1
9d008188:	ae03003c 	sw	v1,60(s0)
9d00818c:	90420000 	lbu	v0,0(v0)
9d008190:	02621021 	addu	v0,s3,v0
9d008194:	90420000 	lbu	v0,0(v0)
9d008198:	0051102b 	sltu	v0,v0,s1
9d00819c:	1440fff5 	bnez	v0,9d008174 <__intscan+0x57c>
9d0081a0:	3c02a000 	lui	v0,0xa000
9d0081a4:	24030022 	li	v1,34
9d0081a8:	8fa80010 	lw	t0,16(sp)
9d0081ac:	ac43034c 	sw	v1,844(v0)
9d0081b0:	32420001 	andi	v0,s2,0x1
9d0081b4:	02403825 	move	a3,s2
9d0081b8:	0002a00b 	movn	s4,zero,v0
9d0081bc:	8e02004c 	lw	v0,76(s0)
9d0081c0:	10400005 	beqz	v0,9d0081d8 <__intscan+0x5e0>
9d0081c4:	8fa20010 	lw	v0,16(sp)
9d0081c8:	8e02003c 	lw	v0,60(s0)
9d0081cc:	2442ffff 	addiu	v0,v0,-1
9d0081d0:	ae02003c 	sw	v0,60(s0)
9d0081d4:	8fa20010 	lw	v0,16(sp)
9d0081d8:	0102102b 	sltu	v0,t0,v0
9d0081dc:	1440003b 	bnez	v0,9d0082cc <__intscan+0x6d4>
9d0081e0:	8fa20010 	lw	v0,16(sp)
9d0081e4:	14480003 	bne	v0,t0,9d0081f4 <__intscan+0x5fc>
9d0081e8:	00f2102b 	sltu	v0,a3,s2
9d0081ec:	14400038 	bnez	v0,9d0082d0 <__intscan+0x6d8>
9d0081f0:	2402ffff 	li	v0,-1
9d0081f4:	32420001 	andi	v0,s2,0x1
9d0081f8:	14400027 	bnez	v0,9d008298 <__intscan+0x6a0>
9d0081fc:	8fa20010 	lw	v0,16(sp)
9d008200:	16800024 	bnez	s4,9d008294 <__intscan+0x69c>
9d008204:	3c02a000 	lui	v0,0xa000
9d008208:	24030022 	li	v1,34
9d00820c:	ac43034c 	sw	v1,844(v0)
9d008210:	8fa20010 	lw	v0,16(sp)
9d008214:	2647ffff 	addiu	a3,s2,-1
9d008218:	00f2902b 	sltu	s2,a3,s2
9d00821c:	2451ffff 	addiu	s1,v0,-1
9d008220:	1000fee7 	b	9d007dc0 <__intscan+0x1c8>
9d008224:	02514021 	addu	t0,s2,s1
9d008228:	0f402a47 	jal	9d00a91c <__shgetc>
9d00822c:	02002025 	move	a0,s0
9d008230:	1000ffa5 	b	9d0080c8 <__intscan+0x4d0>
9d008234:	00404825 	move	t1,v0
9d008238:	3c16071c 	lui	s6,0x71c
9d00823c:	0000a825 	move	s5,zero
9d008240:	1000ffa3 	b	9d0080d0 <__intscan+0x4d8>
9d008244:	26d671c7 	addiu	s6,s6,29127
9d008248:	8e02003c 	lw	v0,60(s0)
9d00824c:	8e03004c 	lw	v1,76(s0)
9d008250:	0043182b 	sltu	v1,v0,v1
9d008254:	10600007 	beqz	v1,9d008274 <__intscan+0x67c>
9d008258:	24430001 	addiu	v1,v0,1
9d00825c:	ae03003c 	sw	v1,60(s0)
9d008260:	90490000 	lbu	t1,0(v0)
9d008264:	02b63821 	addu	a3,s5,s6
9d008268:	00f6402b 	sltu	t0,a3,s6
9d00826c:	1000ffa2 	b	9d0080f8 <__intscan+0x500>
9d008270:	01174021 	addu	t0,t0,s7
9d008274:	0f402a47 	jal	9d00a91c <__shgetc>
9d008278:	02002025 	move	a0,s0
9d00827c:	1000fff9 	b	9d008264 <__intscan+0x66c>
9d008280:	00404825 	move	t1,v0
9d008284:	0f402a47 	jal	9d00a91c <__shgetc>
9d008288:	02002025 	move	a0,s0
9d00828c:	1000ffc1 	b	9d008194 <__intscan+0x59c>
9d008290:	02621021 	addu	v0,s3,v0
9d008294:	8fa20010 	lw	v0,16(sp)
9d008298:	0048102b 	sltu	v0,v0,t0
9d00829c:	14400005 	bnez	v0,9d0082b4 <__intscan+0x6bc>
9d0082a0:	8fa20010 	lw	v0,16(sp)
9d0082a4:	15020009 	bne	t0,v0,9d0082cc <__intscan+0x6d4>
9d0082a8:	0247102b 	sltu	v0,s2,a3
9d0082ac:	10400008 	beqz	v0,9d0082d0 <__intscan+0x6d8>
9d0082b0:	2402ffff 	li	v0,-1
9d0082b4:	3c02a000 	lui	v0,0xa000
9d0082b8:	24030022 	li	v1,34
9d0082bc:	ac43034c 	sw	v1,844(v0)
9d0082c0:	02403825 	move	a3,s2
9d0082c4:	1000febe 	b	9d007dc0 <__intscan+0x1c8>
9d0082c8:	8fa80010 	lw	t0,16(sp)
9d0082cc:	2402ffff 	li	v0,-1
9d0082d0:	1682febc 	bne	s4,v0,9d007dc4 <__intscan+0x1cc>
9d0082d4:	8fbf0044 	lw	ra,68(sp)
9d0082d8:	00073823 	negu	a3,a3
9d0082dc:	0007102b 	sltu	v0,zero,a3
9d0082e0:	00084023 	negu	t0,t0
9d0082e4:	1000feb7 	b	9d007dc4 <__intscan+0x1cc>
9d0082e8:	01024023 	subu	t0,t0,v0
9d0082ec:	1660feb4 	bnez	s3,9d007dc0 <__intscan+0x1c8>
9d0082f0:	00004025 	move	t0,zero
9d0082f4:	1000fecb 	b	9d007e24 <__intscan+0x22c>
9d0082f8:	00002825 	move	a1,zero
9d0082fc:	1122fe8f 	beq	t1,v0,9d007d3c <__intscan+0x144>
9d008300:	3c029d01 	lui	v0,0x9d01
9d008304:	1000fe72 	b	9d007cd0 <__intscan+0xd8>
9d008308:	2442a151 	addiu	v0,v0,-24239

Disassembly of section .text.__printf_core:

9d00830c <__printf_core>:
9d00830c:	27bdff18 	addiu	sp,sp,-232
9d008310:	afb500d8 	sw	s5,216(sp)
9d008314:	3c159d00 	lui	s5,0x9d00
9d008318:	afb600dc 	sw	s6,220(sp)
9d00831c:	afb400d4 	sw	s4,212(sp)
9d008320:	afb300d0 	sw	s3,208(sp)
9d008324:	afb200cc 	sw	s2,204(sp)
9d008328:	afb100c8 	sw	s1,200(sp)
9d00832c:	afbf00e4 	sw	ra,228(sp)
9d008330:	afb700e0 	sw	s7,224(sp)
9d008334:	afb000c4 	sw	s0,196(sp)
9d008338:	00809025 	move	s2,a0
9d00833c:	00c08825 	move	s1,a2
9d008340:	afa500b0 	sw	a1,176(sp)
9d008344:	00009825 	move	s3,zero
9d008348:	27b60010 	addiu	s6,sp,16
9d00834c:	24140025 	li	s4,37
9d008350:	26b5749c 	addiu	s5,s5,29852
9d008354:	8fa500b0 	lw	a1,176(sp)
9d008358:	80a20000 	lb	v0,0(a1)
9d00835c:	104000e0 	beqz	v0,9d0086e0 <__printf_core+0x3d4>
9d008360:	2402ffff 	li	v0,-1
9d008364:	afa20094 	sw	v0,148(sp)
9d008368:	24020080 	li	v0,128
9d00836c:	afa00090 	sw	zero,144(sp)
9d008370:	afa00098 	sw	zero,152(sp)
9d008374:	afb6009c 	sw	s6,156(sp)
9d008378:	afa200a0 	sw	v0,160(sp)
9d00837c:	00008025 	move	s0,zero
9d008380:	00b01021 	addu	v0,a1,s0
9d008384:	80420000 	lb	v0,0(v0)
9d008388:	10400003 	beqz	v0,9d008398 <__printf_core+0x8c>
9d00838c:	00000000 	nop
9d008390:	5454fffb 	bnel	v0,s4,9d008380 <__printf_core+0x74>
9d008394:	26100001 	addiu	s0,s0,1
9d008398:	12000006 	beqz	s0,9d0083b4 <__printf_core+0xa8>
9d00839c:	02003025 	move	a2,s0
9d0083a0:	0f402be0 	jal	9d00af80 <__out>
9d0083a4:	02402025 	move	a0,s2
9d0083a8:	8fa200b0 	lw	v0,176(sp)
9d0083ac:	00501021 	addu	v0,v0,s0
9d0083b0:	afa200b0 	sw	v0,176(sp)
9d0083b4:	8fb700b0 	lw	s7,176(sp)
9d0083b8:	82e20000 	lb	v0,0(s7)
9d0083bc:	145400c1 	bne	v0,s4,9d0086c4 <__printf_core+0x3b8>
9d0083c0:	26f70001 	addiu	s7,s7,1
9d0083c4:	afb700b0 	sw	s7,176(sp)
9d0083c8:	2405002b 	li	a1,43
9d0083cc:	2406002d 	li	a2,45
9d0083d0:	24030030 	li	v1,48
9d0083d4:	24070020 	li	a3,32
9d0083d8:	24080023 	li	t0,35
9d0083dc:	8fa400b0 	lw	a0,176(sp)
9d0083e0:	80820000 	lb	v0,0(a0)
9d0083e4:	5045001b 	beql	v0,a1,9d008454 <__printf_core+0x148>
9d0083e8:	8fa20090 	lw	v0,144(sp)
9d0083ec:	2849002c 	slti	t1,v0,44
9d0083f0:	1120001e 	beqz	t1,9d00846c <__printf_core+0x160>
9d0083f4:	00000000 	nop
9d0083f8:	50470018 	beql	v0,a3,9d00845c <__printf_core+0x150>
9d0083fc:	8fa20090 	lw	v0,144(sp)
9d008400:	50480018 	beql	v0,t0,9d008464 <__printf_core+0x158>
9d008404:	8fa20090 	lw	v0,144(sp)
9d008408:	2403002a 	li	v1,42
9d00840c:	5043001e 	beql	v0,v1,9d008488 <__printf_core+0x17c>
9d008410:	8e220000 	lw	v0,0(s1)
9d008414:	0f402c67 	jal	9d00b19c <atoi>
9d008418:	00000000 	nop
9d00841c:	afa20098 	sw	v0,152(sp)
9d008420:	8fa300b0 	lw	v1,176(sp)
9d008424:	80620000 	lb	v0,0(v1)
9d008428:	2442ffd0 	addiu	v0,v0,-48
9d00842c:	2c42000a 	sltiu	v0,v0,10
9d008430:	10400021 	beqz	v0,9d0084b8 <__printf_core+0x1ac>
9d008434:	24630001 	addiu	v1,v1,1
9d008438:	1000fff9 	b	9d008420 <__printf_core+0x114>
9d00843c:	afa300b0 	sw	v1,176(sp)
9d008440:	34420001 	ori	v0,v0,0x1
9d008444:	24840001 	addiu	a0,a0,1
9d008448:	afa20090 	sw	v0,144(sp)
9d00844c:	1000ffe3 	b	9d0083dc <__printf_core+0xd0>
9d008450:	afa400b0 	sw	a0,176(sp)
9d008454:	1000fffb 	b	9d008444 <__printf_core+0x138>
9d008458:	34420004 	ori	v0,v0,0x4
9d00845c:	1000fff9 	b	9d008444 <__printf_core+0x138>
9d008460:	34420008 	ori	v0,v0,0x8
9d008464:	1000fff7 	b	9d008444 <__printf_core+0x138>
9d008468:	34420010 	ori	v0,v0,0x10
9d00846c:	5046fff4 	beql	v0,a2,9d008440 <__printf_core+0x134>
9d008470:	8fa20090 	lw	v0,144(sp)
9d008474:	5443ffe5 	bnel	v0,v1,9d00840c <__printf_core+0x100>
9d008478:	2403002a 	li	v1,42
9d00847c:	8fa20090 	lw	v0,144(sp)
9d008480:	1000fff0 	b	9d008444 <__printf_core+0x138>
9d008484:	34420002 	ori	v0,v0,0x2
9d008488:	24840001 	addiu	a0,a0,1
9d00848c:	afa400b0 	sw	a0,176(sp)
9d008490:	24430004 	addiu	v1,v0,4
9d008494:	8c420000 	lw	v0,0(v0)
9d008498:	ae230000 	sw	v1,0(s1)
9d00849c:	04410006 	bgez	v0,9d0084b8 <__printf_core+0x1ac>
9d0084a0:	afa20098 	sw	v0,152(sp)
9d0084a4:	8fa30090 	lw	v1,144(sp)
9d0084a8:	00021023 	negu	v0,v0
9d0084ac:	afa20098 	sw	v0,152(sp)
9d0084b0:	38630001 	xori	v1,v1,0x1
9d0084b4:	afa30090 	sw	v1,144(sp)
9d0084b8:	8fa20090 	lw	v0,144(sp)
9d0084bc:	30430001 	andi	v1,v0,0x1
9d0084c0:	10600002 	beqz	v1,9d0084cc <__printf_core+0x1c0>
9d0084c4:	7c020844 	ins	v0,zero,0x1,0x1
9d0084c8:	afa20090 	sw	v0,144(sp)
9d0084cc:	8fa200b0 	lw	v0,176(sp)
9d0084d0:	2403002e 	li	v1,46
9d0084d4:	80440000 	lb	a0,0(v0)
9d0084d8:	1483000d 	bne	a0,v1,9d008510 <__printf_core+0x204>
9d0084dc:	24440001 	addiu	a0,v0,1
9d0084e0:	afa00094 	sw	zero,148(sp)
9d0084e4:	afa400b0 	sw	a0,176(sp)
9d0084e8:	80450001 	lb	a1,1(v0)
9d0084ec:	2403002a 	li	v1,42
9d0084f0:	14a30023 	bne	a1,v1,9d008580 <__printf_core+0x274>
9d0084f4:	24420002 	addiu	v0,v0,2
9d0084f8:	afa200b0 	sw	v0,176(sp)
9d0084fc:	8e220000 	lw	v0,0(s1)
9d008500:	24430004 	addiu	v1,v0,4
9d008504:	8c420000 	lw	v0,0(v0)
9d008508:	ae230000 	sw	v1,0(s1)
9d00850c:	afa20094 	sw	v0,148(sp)
9d008510:	0f402ddf 	jal	9d00b77c <__fmt_state>
9d008514:	27a400b0 	addiu	a0,sp,176
9d008518:	afa200b8 	sw	v0,184(sp)
9d00851c:	8fa200b0 	lw	v0,176(sp)
9d008520:	0f40304f 	jal	9d00c13c <tolower>
9d008524:	80440000 	lb	a0,0(v0)
9d008528:	24030069 	li	v1,105
9d00852c:	10430078 	beq	v0,v1,9d008710 <__printf_core+0x404>
9d008530:	8fa500b8 	lw	a1,184(sp)
9d008534:	2843006a 	slti	v1,v0,106
9d008538:	1060002e 	beqz	v1,9d0085f4 <__printf_core+0x2e8>
9d00853c:	24030063 	li	v1,99
9d008540:	104300bc 	beq	v0,v1,9d008834 <__printf_core+0x528>
9d008544:	28430064 	slti	v1,v0,100
9d008548:	10600018 	beqz	v1,9d0085ac <__printf_core+0x2a0>
9d00854c:	24030064 	li	v1,100
9d008550:	105400c5 	beq	v0,s4,9d008868 <__printf_core+0x55c>
9d008554:	24030061 	li	v1,97
9d008558:	5043004e 	beql	v0,v1,9d008694 <__printf_core+0x388>
9d00855c:	02203025 	move	a2,s1
9d008560:	24020025 	li	v0,37
9d008564:	a3a200a8 	sb	v0,168(sp)
9d008568:	2402ffff 	li	v0,-1
9d00856c:	afb700b0 	sw	s7,176(sp)
9d008570:	afa00090 	sw	zero,144(sp)
9d008574:	afa00098 	sw	zero,152(sp)
9d008578:	100000b8 	b	9d00885c <__printf_core+0x550>
9d00857c:	afa20094 	sw	v0,148(sp)
9d008580:	0f402c67 	jal	9d00b19c <atoi>
9d008584:	00000000 	nop
9d008588:	afa20094 	sw	v0,148(sp)
9d00858c:	8fa300b0 	lw	v1,176(sp)
9d008590:	80620000 	lb	v0,0(v1)
9d008594:	2442ffd0 	addiu	v0,v0,-48
9d008598:	2c42000a 	sltiu	v0,v0,10
9d00859c:	1040ffdc 	beqz	v0,9d008510 <__printf_core+0x204>
9d0085a0:	24630001 	addiu	v1,v1,1
9d0085a4:	1000fff9 	b	9d00858c <__printf_core+0x280>
9d0085a8:	afa300b0 	sw	v1,176(sp)
9d0085ac:	10430058 	beq	v0,v1,9d008710 <__printf_core+0x404>
9d0085b0:	28420068 	slti	v0,v0,104
9d0085b4:	1040ffeb 	beqz	v0,9d008564 <__printf_core+0x258>
9d0085b8:	24020025 	li	v0,37
9d0085bc:	02203025 	move	a2,s1
9d0085c0:	0f402e4b 	jal	9d00b92c <__pop_float>
9d0085c4:	27a400a8 	addiu	a0,sp,168
9d0085c8:	10400096 	beqz	v0,9d008824 <__printf_core+0x518>
9d0085cc:	8fa200b0 	lw	v0,176(sp)
9d0085d0:	27a600a8 	addiu	a2,sp,168
9d0085d4:	27a50090 	addiu	a1,sp,144
9d0085d8:	24430001 	addiu	v1,v0,1
9d0085dc:	afa300b0 	sw	v1,176(sp)
9d0085e0:	80470000 	lb	a3,0(v0)
9d0085e4:	0f4030a2 	jal	9d00c288 <__fmt_a>
9d0085e8:	02402025 	move	a0,s2
9d0085ec:	10000035 	b	9d0086c4 <__printf_core+0x3b8>
9d0085f0:	02028021 	addu	s0,s0,v0
9d0085f4:	24030070 	li	v1,112
9d0085f8:	10430070 	beq	v0,v1,9d0087bc <__printf_core+0x4b0>
9d0085fc:	28430071 	slti	v1,v0,113
9d008600:	10600013 	beqz	v1,9d008650 <__printf_core+0x344>
9d008604:	2403006e 	li	v1,110
9d008608:	10430082 	beq	v0,v1,9d008814 <__printf_core+0x508>
9d00860c:	2403006f 	li	v1,111
9d008610:	1443ffd4 	bne	v0,v1,9d008564 <__printf_core+0x258>
9d008614:	24020025 	li	v0,37
9d008618:	02203825 	move	a3,s1
9d00861c:	00003025 	move	a2,zero
9d008620:	0f4024c6 	jal	9d009318 <__pop_int>
9d008624:	27a400a8 	addiu	a0,sp,168
9d008628:	1040007e 	beqz	v0,9d008824 <__printf_core+0x518>
9d00862c:	8fa200b0 	lw	v0,176(sp)
9d008630:	27a600a8 	addiu	a2,sp,168
9d008634:	27a50090 	addiu	a1,sp,144
9d008638:	24420001 	addiu	v0,v0,1
9d00863c:	02402025 	move	a0,s2
9d008640:	0f4030a0 	jal	9d00c280 <__fmt_d>
9d008644:	afa200b0 	sw	v0,176(sp)
9d008648:	1000001e 	b	9d0086c4 <__printf_core+0x3b8>
9d00864c:	02028021 	addu	s0,s0,v0
9d008650:	24030075 	li	v1,117
9d008654:	1043003c 	beq	v0,v1,9d008748 <__printf_core+0x43c>
9d008658:	24030078 	li	v1,120
9d00865c:	10430048 	beq	v0,v1,9d008780 <__printf_core+0x474>
9d008660:	24030073 	li	v1,115
9d008664:	1443ffbe 	bne	v0,v1,9d008560 <__printf_core+0x254>
9d008668:	24020080 	li	v0,128
9d00866c:	14a2006d 	bne	a1,v0,9d008824 <__printf_core+0x518>
9d008670:	8fa200b0 	lw	v0,176(sp)
9d008674:	00003825 	move	a3,zero
9d008678:	24420001 	addiu	v0,v0,1
9d00867c:	afa200b0 	sw	v0,176(sp)
9d008680:	8e220000 	lw	v0,0(s1)
9d008684:	24430004 	addiu	v1,v0,4
9d008688:	ae230000 	sw	v1,0(s1)
9d00868c:	1000005a 	b	9d0087f8 <__printf_core+0x4ec>
9d008690:	8c460000 	lw	a2,0(v0)
9d008694:	0f402e4b 	jal	9d00b92c <__pop_float>
9d008698:	27a400a8 	addiu	a0,sp,168
9d00869c:	10400061 	beqz	v0,9d008824 <__printf_core+0x518>
9d0086a0:	8fa200b0 	lw	v0,176(sp)
9d0086a4:	27a600a8 	addiu	a2,sp,168
9d0086a8:	27a50090 	addiu	a1,sp,144
9d0086ac:	24430001 	addiu	v1,v0,1
9d0086b0:	afa300b0 	sw	v1,176(sp)
9d0086b4:	80470000 	lb	a3,0(v0)
9d0086b8:	0f4030a2 	jal	9d00c288 <__fmt_a>
9d0086bc:	02402025 	move	a0,s2
9d0086c0:	02028021 	addu	s0,s0,v0
9d0086c4:	02708021 	addu	s0,s3,s0
9d0086c8:	0213982a 	slt	s3,s0,s3
9d0086cc:	1260006d 	beqz	s3,9d008884 <__printf_core+0x578>
9d0086d0:	3c02a000 	lui	v0,0xa000
9d0086d4:	2403004f 	li	v1,79
9d0086d8:	ac43034c 	sw	v1,844(v0)
9d0086dc:	2413ffff 	li	s3,-1
9d0086e0:	8fbf00e4 	lw	ra,228(sp)
9d0086e4:	02601025 	move	v0,s3
9d0086e8:	8fb700e0 	lw	s7,224(sp)
9d0086ec:	8fb600dc 	lw	s6,220(sp)
9d0086f0:	8fb500d8 	lw	s5,216(sp)
9d0086f4:	8fb400d4 	lw	s4,212(sp)
9d0086f8:	8fb300d0 	lw	s3,208(sp)
9d0086fc:	8fb200cc 	lw	s2,204(sp)
9d008700:	8fb100c8 	lw	s1,200(sp)
9d008704:	8fb000c4 	lw	s0,196(sp)
9d008708:	03e00008 	jr	ra
9d00870c:	27bd00e8 	addiu	sp,sp,232
9d008710:	02203825 	move	a3,s1
9d008714:	24060001 	li	a2,1
9d008718:	0f4024c6 	jal	9d009318 <__pop_int>
9d00871c:	27a400a8 	addiu	a0,sp,168
9d008720:	10400040 	beqz	v0,9d008824 <__printf_core+0x518>
9d008724:	8fa200b0 	lw	v0,176(sp)
9d008728:	27a600a8 	addiu	a2,sp,168
9d00872c:	27a50090 	addiu	a1,sp,144
9d008730:	24420001 	addiu	v0,v0,1
9d008734:	02402025 	move	a0,s2
9d008738:	0f4030a0 	jal	9d00c280 <__fmt_d>
9d00873c:	afa200b0 	sw	v0,176(sp)
9d008740:	1000ffe0 	b	9d0086c4 <__printf_core+0x3b8>
9d008744:	02028021 	addu	s0,s0,v0
9d008748:	02203825 	move	a3,s1
9d00874c:	00003025 	move	a2,zero
9d008750:	0f4024c6 	jal	9d009318 <__pop_int>
9d008754:	27a400a8 	addiu	a0,sp,168
9d008758:	10400032 	beqz	v0,9d008824 <__printf_core+0x518>
9d00875c:	8fa200b0 	lw	v0,176(sp)
9d008760:	27a600a8 	addiu	a2,sp,168
9d008764:	27a50090 	addiu	a1,sp,144
9d008768:	24420001 	addiu	v0,v0,1
9d00876c:	02402025 	move	a0,s2
9d008770:	0f4030a0 	jal	9d00c280 <__fmt_d>
9d008774:	afa200b0 	sw	v0,176(sp)
9d008778:	1000ffd2 	b	9d0086c4 <__printf_core+0x3b8>
9d00877c:	02028021 	addu	s0,s0,v0
9d008780:	02203825 	move	a3,s1
9d008784:	00003025 	move	a2,zero
9d008788:	0f4024c6 	jal	9d009318 <__pop_int>
9d00878c:	27a400a8 	addiu	a0,sp,168
9d008790:	10400024 	beqz	v0,9d008824 <__printf_core+0x518>
9d008794:	8fa200b0 	lw	v0,176(sp)
9d008798:	24430001 	addiu	v1,v0,1
9d00879c:	afa300b0 	sw	v1,176(sp)
9d0087a0:	80470000 	lb	a3,0(v0)
9d0087a4:	27a600a8 	addiu	a2,sp,168
9d0087a8:	27a50090 	addiu	a1,sp,144
9d0087ac:	0f4030a2 	jal	9d00c288 <__fmt_a>
9d0087b0:	02402025 	move	a0,s2
9d0087b4:	1000ffc3 	b	9d0086c4 <__printf_core+0x3b8>
9d0087b8:	02028021 	addu	s0,s0,v0
9d0087bc:	02203825 	move	a3,s1
9d0087c0:	00003025 	move	a2,zero
9d0087c4:	240500f0 	li	a1,240
9d0087c8:	0f4024c6 	jal	9d009318 <__pop_int>
9d0087cc:	27a400a8 	addiu	a0,sp,168
9d0087d0:	10400014 	beqz	v0,9d008824 <__printf_core+0x518>
9d0087d4:	8fa200b0 	lw	v0,176(sp)
9d0087d8:	8fa300ac 	lw	v1,172(sp)
9d0087dc:	24420001 	addiu	v0,v0,1
9d0087e0:	afa200b0 	sw	v0,176(sp)
9d0087e4:	8fa200a8 	lw	v0,168(sp)
9d0087e8:	00431025 	or	v0,v0,v1
9d0087ec:	14400007 	bnez	v0,9d00880c <__printf_core+0x500>
9d0087f0:	02a03025 	move	a2,s5
9d0087f4:	00003825 	move	a3,zero
9d0087f8:	27a50090 	addiu	a1,sp,144
9d0087fc:	0f4030a4 	jal	9d00c290 <__fmt_s>
9d008800:	02402025 	move	a0,s2
9d008804:	1000ffaf 	b	9d0086c4 <__printf_core+0x3b8>
9d008808:	02028021 	addu	s0,s0,v0
9d00880c:	1000ffe5 	b	9d0087a4 <__printf_core+0x498>
9d008810:	24070078 	li	a3,120
9d008814:	02203825 	move	a3,s1
9d008818:	02703021 	addu	a2,s3,s0
9d00881c:	0f402915 	jal	9d00a454 <__pop_ptr>
9d008820:	27a400a8 	addiu	a0,sp,168
9d008824:	8fa200b0 	lw	v0,176(sp)
9d008828:	24420001 	addiu	v0,v0,1
9d00882c:	1000ffa5 	b	9d0086c4 <__printf_core+0x3b8>
9d008830:	afa200b0 	sw	v0,176(sp)
9d008834:	24020080 	li	v0,128
9d008838:	14a2fffa 	bne	a1,v0,9d008824 <__printf_core+0x518>
9d00883c:	8fa200b0 	lw	v0,176(sp)
9d008840:	24420001 	addiu	v0,v0,1
9d008844:	afa200b0 	sw	v0,176(sp)
9d008848:	8e220000 	lw	v0,0(s1)
9d00884c:	24430004 	addiu	v1,v0,4
9d008850:	8c420000 	lw	v0,0(v0)
9d008854:	ae230000 	sw	v1,0(s1)
9d008858:	a3a200a8 	sb	v0,168(sp)
9d00885c:	24070001 	li	a3,1
9d008860:	1000ffe5 	b	9d0087f8 <__printf_core+0x4ec>
9d008864:	27a600a8 	addiu	a2,sp,168
9d008868:	24020080 	li	v0,128
9d00886c:	14a2ffed 	bne	a1,v0,9d008824 <__printf_core+0x518>
9d008870:	8fa200b0 	lw	v0,176(sp)
9d008874:	a3b400a8 	sb	s4,168(sp)
9d008878:	24420001 	addiu	v0,v0,1
9d00887c:	1000fff7 	b	9d00885c <__printf_core+0x550>
9d008880:	afa200b0 	sw	v0,176(sp)
9d008884:	1000feb3 	b	9d008354 <__printf_core+0x48>
9d008888:	02009825 	move	s3,s0

Disassembly of section .text.__scan_i:

9d00888c <__scan_i>:
9d00888c:	8cc20008 	lw	v0,8(a2)
9d008890:	27bdffb0 	addiu	sp,sp,-80
9d008894:	afb60040 	sw	s6,64(sp)
9d008898:	afb20030 	sw	s2,48(sp)
9d00889c:	afb1002c 	sw	s1,44(sp)
9d0088a0:	afb00028 	sw	s0,40(sp)
9d0088a4:	afbf004c 	sw	ra,76(sp)
9d0088a8:	afbe0048 	sw	s8,72(sp)
9d0088ac:	afb70044 	sw	s7,68(sp)
9d0088b0:	afb5003c 	sw	s5,60(sp)
9d0088b4:	afb40038 	sw	s4,56(sp)
9d0088b8:	afb30034 	sw	s3,52(sp)
9d0088bc:	0080b025 	move	s6,a0
9d0088c0:	afa50054 	sw	a1,84(sp)
9d0088c4:	00e09025 	move	s2,a3
9d0088c8:	afa20018 	sw	v0,24(sp)
9d0088cc:	8cd10010 	lw	s1,16(a2)
9d0088d0:	0f402a74 	jal	9d00a9d0 <__skipws>
9d0088d4:	8cd0000c 	lw	s0,12(a2)
9d0088d8:	8fa30018 	lw	v1,24(sp)
9d0088dc:	14600002 	bnez	v1,9d0088e8 <__scan_i+0x5c>
9d0088e0:	2623ffff 	addiu	v1,s1,-1
9d0088e4:	afa30018 	sw	v1,24(sp)
9d0088e8:	8e430000 	lw	v1,0(s2)
9d0088ec:	241e000a 	li	s8,10
9d0088f0:	0000a825 	move	s5,zero
9d0088f4:	00621821 	addu	v1,v1,v0
9d0088f8:	2622ffff 	addiu	v0,s1,-1
9d0088fc:	ae430000 	sw	v1,0(s2)
9d008900:	0000a025 	move	s4,zero
9d008904:	afa20020 	sw	v0,32(sp)
9d008908:	24130008 	li	s3,8
9d00890c:	2411000a 	li	s1,10
9d008910:	8fa20018 	lw	v0,24(sp)
9d008914:	0282102a 	slt	v0,s4,v0
9d008918:	10400043 	beqz	v0,9d008a28 <__scan_i+0x19c>
9d00891c:	8fa20020 	lw	v0,32(sp)
9d008920:	0282102a 	slt	v0,s4,v0
9d008924:	10400041 	beqz	v0,9d008a2c <__scan_i+0x1a0>
9d008928:	02141021 	addu	v0,s0,s4
9d00892c:	8ec2003c 	lw	v0,60(s6)
9d008930:	8ec3004c 	lw	v1,76(s6)
9d008934:	0043182b 	sltu	v1,v0,v1
9d008938:	1060000f 	beqz	v1,9d008978 <__scan_i+0xec>
9d00893c:	24430001 	addiu	v1,v0,1
9d008940:	aec3003c 	sw	v1,60(s6)
9d008944:	90570000 	lbu	s7,0(v0)
9d008948:	26e2ffd5 	addiu	v0,s7,-43
9d00894c:	7c020844 	ins	v0,zero,0x1,0x1
9d008950:	00541025 	or	v0,v0,s4
9d008954:	1440001d 	bnez	v0,9d0089cc <__scan_i+0x140>
9d008958:	02141021 	addu	v0,s0,s4
9d00895c:	a2170000 	sb	s7,0(s0)
9d008960:	8e420000 	lw	v0,0(s2)
9d008964:	24150001 	li	s5,1
9d008968:	24140001 	li	s4,1
9d00896c:	24420001 	addiu	v0,v0,1
9d008970:	1000ffe7 	b	9d008910 <__scan_i+0x84>
9d008974:	ae420000 	sw	v0,0(s2)
9d008978:	0f402a47 	jal	9d00a91c <__shgetc>
9d00897c:	02c02025 	move	a0,s6
9d008980:	0040b825 	move	s7,v0
9d008984:	2402ffff 	li	v0,-1
9d008988:	16e2fff0 	bne	s7,v0,9d00894c <__scan_i+0xc0>
9d00898c:	26e2ffd5 	addiu	v0,s7,-43
9d008990:	16800026 	bnez	s4,9d008a2c <__scan_i+0x1a0>
9d008994:	02141021 	addu	v0,s0,s4
9d008998:	8fbf004c 	lw	ra,76(sp)
9d00899c:	02e01025 	move	v0,s7
9d0089a0:	8fbe0048 	lw	s8,72(sp)
9d0089a4:	8fb70044 	lw	s7,68(sp)
9d0089a8:	8fb60040 	lw	s6,64(sp)
9d0089ac:	8fb5003c 	lw	s5,60(sp)
9d0089b0:	8fb40038 	lw	s4,56(sp)
9d0089b4:	8fb30034 	lw	s3,52(sp)
9d0089b8:	8fb20030 	lw	s2,48(sp)
9d0089bc:	8fb1002c 	lw	s1,44(sp)
9d0089c0:	8fb00028 	lw	s0,40(sp)
9d0089c4:	03e00008 	jr	ra
9d0089c8:	27bd0050 	addiu	sp,sp,80
9d0089cc:	16950006 	bne	s4,s5,9d0089e8 <__scan_i+0x15c>
9d0089d0:	afa2001c 	sw	v0,28(sp)
9d0089d4:	17d10026 	bne	s8,s1,9d008a70 <__scan_i+0x1e4>
9d0089d8:	26950001 	addiu	s5,s4,1
9d0089dc:	3ae20030 	xori	v0,s7,0x30
9d0089e0:	0262f00a 	movz	s8,s3,v0
9d0089e4:	0002a80b 	movn	s5,zero,v0
9d0089e8:	26e2ffd0 	addiu	v0,s7,-48
9d0089ec:	2c42000a 	sltiu	v0,v0,10
9d0089f0:	14400043 	bnez	v0,9d008b00 <__scan_i+0x274>
9d0089f4:	24020010 	li	v0,16
9d0089f8:	57c20006 	bnel	s8,v0,9d008a14 <__scan_i+0x188>
9d0089fc:	8ec2004c 	lw	v0,76(s6)
9d008a00:	0f403019 	jal	9d00c064 <isxdigit>
9d008a04:	02e02025 	move	a0,s7
9d008a08:	14400041 	bnez	v0,9d008b10 <__scan_i+0x284>
9d008a0c:	8fa2001c 	lw	v0,28(sp)
9d008a10:	8ec2004c 	lw	v0,76(s6)
9d008a14:	10400005 	beqz	v0,9d008a2c <__scan_i+0x1a0>
9d008a18:	02141021 	addu	v0,s0,s4
9d008a1c:	8ec2003c 	lw	v0,60(s6)
9d008a20:	2442ffff 	addiu	v0,v0,-1
9d008a24:	aec2003c 	sw	v0,60(s6)
9d008a28:	02141021 	addu	v0,s0,s4
9d008a2c:	a0400000 	sb	zero,0(v0)
9d008a30:	2402000a 	li	v0,10
9d008a34:	17c2003c 	bne	s8,v0,9d008b28 <__scan_i+0x29c>
9d008a38:	2406000a 	li	a2,10
9d008a3c:	27a50010 	addiu	a1,sp,16
9d008a40:	0f402fae 	jal	9d00beb8 <strtoll>
9d008a44:	02002025 	move	a0,s0
9d008a48:	8fa40054 	lw	a0,84(sp)
9d008a4c:	ac830004 	sw	v1,4(a0)
9d008a50:	8fa30010 	lw	v1,16(sp)
9d008a54:	ac820000 	sw	v0,0(a0)
9d008a58:	2402fffe 	li	v0,-2
9d008a5c:	00708026 	xor	s0,v1,s0
9d008a60:	24030001 	li	v1,1
9d008a64:	0050180a 	movz	v1,v0,s0
9d008a68:	1000ffcb 	b	9d008998 <__scan_i+0x10c>
9d008a6c:	0060b825 	move	s7,v1
9d008a70:	17d30021 	bne	s8,s3,9d008af8 <__scan_i+0x26c>
9d008a74:	36e20020 	ori	v0,s7,0x20
9d008a78:	24040078 	li	a0,120
9d008a7c:	5444ffda 	bnel	v0,a0,9d0089e8 <__scan_i+0x15c>
9d008a80:	0000a825 	move	s5,zero
9d008a84:	8ec2003c 	lw	v0,60(s6)
9d008a88:	8ec4004c 	lw	a0,76(s6)
9d008a8c:	0044202b 	sltu	a0,v0,a0
9d008a90:	10800015 	beqz	a0,9d008ae8 <__scan_i+0x25c>
9d008a94:	00000000 	nop
9d008a98:	24440001 	addiu	a0,v0,1
9d008a9c:	aec4003c 	sw	a0,60(s6)
9d008aa0:	90420000 	lbu	v0,0(v0)
9d008aa4:	8ec4004c 	lw	a0,76(s6)
9d008aa8:	10800004 	beqz	a0,9d008abc <__scan_i+0x230>
9d008aac:	00000000 	nop
9d008ab0:	8eca003c 	lw	t2,60(s6)
9d008ab4:	254affff 	addiu	t2,t2,-1
9d008ab8:	aeca003c 	sw	t2,60(s6)
9d008abc:	0f403019 	jal	9d00c064 <isxdigit>
9d008ac0:	00402025 	move	a0,v0
9d008ac4:	1040ffd2 	beqz	v0,9d008a10 <__scan_i+0x184>
9d008ac8:	8fa2001c 	lw	v0,28(sp)
9d008acc:	02a0a025 	move	s4,s5
9d008ad0:	241e0010 	li	s8,16
9d008ad4:	a0570000 	sb	s7,0(v0)
9d008ad8:	8e420000 	lw	v0,0(s2)
9d008adc:	24420001 	addiu	v0,v0,1
9d008ae0:	1000ff8b 	b	9d008910 <__scan_i+0x84>
9d008ae4:	ae420000 	sw	v0,0(s2)
9d008ae8:	0f402a47 	jal	9d00a91c <__shgetc>
9d008aec:	02c02025 	move	a0,s6
9d008af0:	1000ffed 	b	9d008aa8 <__scan_i+0x21c>
9d008af4:	8ec4004c 	lw	a0,76(s6)
9d008af8:	1000ffbb 	b	9d0089e8 <__scan_i+0x15c>
9d008afc:	0000a825 	move	s5,zero
9d008b00:	17d30002 	bne	s8,s3,9d008b0c <__scan_i+0x280>
9d008b04:	2ae20038 	slti	v0,s7,56
9d008b08:	0222f00a 	movz	s8,s1,v0
9d008b0c:	8fa2001c 	lw	v0,28(sp)
9d008b10:	26940001 	addiu	s4,s4,1
9d008b14:	a0570000 	sb	s7,0(v0)
9d008b18:	8e420000 	lw	v0,0(s2)
9d008b1c:	24420001 	addiu	v0,v0,1
9d008b20:	1000ff7b 	b	9d008910 <__scan_i+0x84>
9d008b24:	ae420000 	sw	v0,0(s2)
9d008b28:	03c03025 	move	a2,s8
9d008b2c:	27a50010 	addiu	a1,sp,16
9d008b30:	0f402fa3 	jal	9d00be8c <strtoull>
9d008b34:	02002025 	move	a0,s0
9d008b38:	1000ffc4 	b	9d008a4c <__scan_i+0x1c0>
9d008b3c:	8fa40054 	lw	a0,84(sp)

Disassembly of section .text.malloc:

9d008b40 <malloc>:
9d008b40:	27bdffd8 	addiu	sp,sp,-40
9d008b44:	afa40028 	sw	a0,40(sp)
9d008b48:	27a40028 	addiu	a0,sp,40
9d008b4c:	afbf0024 	sw	ra,36(sp)
9d008b50:	afb10020 	sw	s1,32(sp)
9d008b54:	0f402df5 	jal	9d00b7d4 <adjust_size>
9d008b58:	afb0001c 	sw	s0,28(sp)
9d008b5c:	04410007 	bgez	v0,9d008b7c <malloc+0x3c>
9d008b60:	8fa20028 	lw	v0,40(sp)
9d008b64:	00001025 	move	v0,zero
9d008b68:	8fbf0024 	lw	ra,36(sp)
9d008b6c:	8fb10020 	lw	s1,32(sp)
9d008b70:	8fb0001c 	lw	s0,28(sp)
9d008b74:	03e00008 	jr	ra
9d008b78:	27bd0028 	addiu	sp,sp,40
9d008b7c:	00021102 	srl	v0,v0,0x4
9d008b80:	2451ffff 	addiu	s1,v0,-1
9d008b84:	2e230021 	sltiu	v1,s1,33
9d008b88:	14600009 	bnez	v1,9d008bb0 <malloc+0x70>
9d008b8c:	2442fffe 	addiu	v0,v0,-2
9d008b90:	3c039d01 	lui	v1,0x9d01
9d008b94:	2c440200 	sltiu	a0,v0,512
9d008b98:	10800022 	beqz	a0,9d008c24 <malloc+0xe4>
9d008b9c:	2463b740 	addiu	v1,v1,-18624
9d008ba0:	000210c2 	srl	v0,v0,0x3
9d008ba4:	00621021 	addu	v0,v1,v0
9d008ba8:	9051fffc 	lbu	s1,-4(v0)
9d008bac:	26310001 	addiu	s1,s1,1
9d008bb0:	02203025 	move	a2,s1
9d008bb4:	24040001 	li	a0,1
9d008bb8:	0f402f60 	jal	9d00bd80 <__ashldi3>
9d008bbc:	00002825 	move	a1,zero
9d008bc0:	00025823 	negu	t3,v0
9d008bc4:	000b382b 	sltu	a3,zero,t3
9d008bc8:	00031823 	negu	v1,v1
9d008bcc:	3c0aa000 	lui	t2,0xa000
9d008bd0:	3c089d01 	lui	t0,0x9d01
9d008bd4:	00673823 	subu	a3,v1,a3
9d008bd8:	2508b720 	addiu	t0,t0,-18656
9d008bdc:	3c0c076b 	lui	t4,0x76b
9d008be0:	254900d0 	addiu	t1,t2,208
9d008be4:	8d4200d0 	lw	v0,208(t2)
9d008be8:	8d4300d4 	lw	v1,212(t2)
9d008bec:	01622824 	and	a1,t3,v0
9d008bf0:	00e31824 	and	v1,a3,v1
9d008bf4:	00a32025 	or	a0,a1,v1
9d008bf8:	14800039 	bnez	a0,9d008ce0 <malloc+0x1a0>
9d008bfc:	8fa20028 	lw	v0,40(sp)
9d008c00:	27a40010 	addiu	a0,sp,16
9d008c04:	24420010 	addiu	v0,v0,16
9d008c08:	0f402f42 	jal	9d00bd08 <__expand_heap>
9d008c0c:	afa20010 	sw	v0,16(sp)
9d008c10:	14400009 	bnez	v0,9d008c38 <malloc+0xf8>
9d008c14:	3c03a000 	lui	v1,0xa000
9d008c18:	2404000c 	li	a0,12
9d008c1c:	1000ffd2 	b	9d008b68 <malloc+0x28>
9d008c20:	ac64034c 	sw	a0,844(v1)
9d008c24:	000211c2 	srl	v0,v0,0x7
9d008c28:	00621021 	addu	v0,v1,v0
9d008c2c:	9051fffc 	lbu	s1,-4(v0)
9d008c30:	1000ffdf 	b	9d008bb0 <malloc+0x70>
9d008c34:	26310011 	addiu	s1,s1,17
9d008c38:	3c03a000 	lui	v1,0xa000
9d008c3c:	8c7100c8 	lw	s1,200(v1)
9d008c40:	10510006 	beq	v0,s1,9d008c5c <malloc+0x11c>
9d008c44:	8fa40010 	lw	a0,16(sp)
9d008c48:	24510010 	addiu	s1,v0,16
9d008c4c:	2484fff0 	addiu	a0,a0,-16
9d008c50:	afa40010 	sw	a0,16(sp)
9d008c54:	24040001 	li	a0,1
9d008c58:	ac440008 	sw	a0,8(v0)
9d008c5c:	8fa20010 	lw	v0,16(sp)
9d008c60:	2630fff8 	addiu	s0,s1,-8
9d008c64:	02222021 	addu	a0,s1,v0
9d008c68:	ac6400c8 	sw	a0,200(v1)
9d008c6c:	34420001 	ori	v0,v0,0x1
9d008c70:	24030001 	li	v1,1
9d008c74:	ac82fff8 	sw	v0,-8(a0)
9d008c78:	ac83fffc 	sw	v1,-4(a0)
9d008c7c:	1200ffb9 	beqz	s0,9d008b64 <malloc+0x24>
9d008c80:	ae22fffc 	sw	v0,-4(s1)
9d008c84:	0f402ca5 	jal	9d00b294 <alloc_rev>
9d008c88:	02002025 	move	a0,s0
9d008c8c:	10400010 	beqz	v0,9d008cd0 <malloc+0x190>
9d008c90:	8fa50028 	lw	a1,40(sp)
9d008c94:	8e23fff8 	lw	v1,-8(s1)
9d008c98:	2402fffe 	li	v0,-2
9d008c9c:	8e25fffc 	lw	a1,-4(s1)
9d008ca0:	00431824 	and	v1,v0,v1
9d008ca4:	02031823 	subu	v1,s0,v1
9d008ca8:	8c640004 	lw	a0,4(v1)
9d008cac:	00442024 	and	a0,v0,a0
9d008cb0:	00852021 	addu	a0,a0,a1
9d008cb4:	ac640004 	sw	a0,4(v1)
9d008cb8:	8e25fffc 	lw	a1,-4(s1)
9d008cbc:	00451024 	and	v0,v0,a1
9d008cc0:	02028021 	addu	s0,s0,v0
9d008cc4:	ae040000 	sw	a0,0(s0)
9d008cc8:	00608025 	move	s0,v1
9d008ccc:	8fa50028 	lw	a1,40(sp)
9d008cd0:	0f402e0b 	jal	9d00b82c <trim>
9d008cd4:	02002025 	move	a0,s0
9d008cd8:	1000ffa3 	b	9d008b68 <malloc+0x28>
9d008cdc:	26020008 	addiu	v0,s0,8
9d008ce0:	14a0002f 	bnez	a1,9d008da0 <malloc+0x260>
9d008ce4:	3582e629 	ori	v0,t4,0xe629
9d008ce8:	00032023 	negu	a0,v1
9d008cec:	00832024 	and	a0,a0,v1
9d008cf0:	70822002 	mul	a0,a0,v0
9d008cf4:	000426c2 	srl	a0,a0,0x1b
9d008cf8:	01042021 	addu	a0,t0,a0
9d008cfc:	80860000 	lb	a2,0(a0)
9d008d00:	24c60020 	addiu	a2,a2,32
9d008d04:	0f402f7d 	jal	9d00bdf4 <lock_bin>
9d008d08:	00c02025 	move	a0,a2
9d008d0c:	24c40001 	addiu	a0,a2,1
9d008d10:	000420c0 	sll	a0,a0,0x3
9d008d14:	00891021 	addu	v0,a0,t1
9d008d18:	8c500000 	lw	s0,0(v0)
9d008d1c:	2484fff8 	addiu	a0,a0,-8
9d008d20:	01242021 	addu	a0,t1,a0
9d008d24:	1204ffaf 	beq	s0,a0,9d008be4 <malloc+0xa4>
9d008d28:	28c20028 	slti	v0,a2,40
9d008d2c:	14400023 	bnez	v0,9d008dbc <malloc+0x27c>
9d008d30:	26310002 	addiu	s1,s1,2
9d008d34:	0226882a 	slt	s1,s1,a2
9d008d38:	16200003 	bnez	s1,9d008d48 <malloc+0x208>
9d008d3c:	2402003f 	li	v0,63
9d008d40:	14c2001f 	bne	a2,v0,9d008dc0 <malloc+0x280>
9d008d44:	00c02825 	move	a1,a2
9d008d48:	8e070004 	lw	a3,4(s0)
9d008d4c:	8fa50028 	lw	a1,40(sp)
9d008d50:	7c070004 	ins	a3,zero,0x0,0x1
9d008d54:	00e54023 	subu	t0,a3,a1
9d008d58:	0f402d81 	jal	9d00b604 <bin_index>
9d008d5c:	01002025 	move	a0,t0
9d008d60:	14c20016 	bne	a2,v0,9d008dbc <malloc+0x27c>
9d008d64:	02073821 	addu	a3,s0,a3
9d008d68:	8e03000c 	lw	v1,12(s0)
9d008d6c:	8e040008 	lw	a0,8(s0)
9d008d70:	02051021 	addu	v0,s0,a1
9d008d74:	ac43000c 	sw	v1,12(v0)
9d008d78:	ac440008 	sw	a0,8(v0)
9d008d7c:	ac620008 	sw	v0,8(v1)
9d008d80:	8c430008 	lw	v1,8(v0)
9d008d84:	34a50001 	ori	a1,a1,0x1
9d008d88:	ac62000c 	sw	v0,12(v1)
9d008d8c:	ac450000 	sw	a1,0(v0)
9d008d90:	ac480004 	sw	t0,4(v0)
9d008d94:	ace80000 	sw	t0,0(a3)
9d008d98:	1000ffcc 	b	9d008ccc <malloc+0x18c>
9d008d9c:	ae050004 	sw	a1,4(s0)
9d008da0:	00052023 	negu	a0,a1
9d008da4:	00852024 	and	a0,a0,a1
9d008da8:	70822002 	mul	a0,a0,v0
9d008dac:	000426c2 	srl	a0,a0,0x1b
9d008db0:	01042021 	addu	a0,t0,a0
9d008db4:	1000ffd3 	b	9d008d04 <malloc+0x1c4>
9d008db8:	80860000 	lb	a2,0(a0)
9d008dbc:	00c02825 	move	a1,a2
9d008dc0:	0f402acc 	jal	9d00ab30 <unbin>
9d008dc4:	02002025 	move	a0,s0
9d008dc8:	1000ffc1 	b	9d008cd0 <malloc+0x190>
9d008dcc:	8fa50028 	lw	a1,40(sp)

Disassembly of section .text.__scan_x:

9d008dd0 <__scan_x>:
9d008dd0:	27bdffc0 	addiu	sp,sp,-64
9d008dd4:	afb30024 	sw	s3,36(sp)
9d008dd8:	8cd30008 	lw	s3,8(a2)
9d008ddc:	afb60030 	sw	s6,48(sp)
9d008de0:	afb5002c 	sw	s5,44(sp)
9d008de4:	afb20020 	sw	s2,32(sp)
9d008de8:	afb1001c 	sw	s1,28(sp)
9d008dec:	afbf003c 	sw	ra,60(sp)
9d008df0:	afbe0038 	sw	s8,56(sp)
9d008df4:	afb70034 	sw	s7,52(sp)
9d008df8:	afb40028 	sw	s4,40(sp)
9d008dfc:	afb00018 	sw	s0,24(sp)
9d008e00:	0080b025 	move	s6,a0
9d008e04:	afa50044 	sw	a1,68(sp)
9d008e08:	00e09025 	move	s2,a3
9d008e0c:	8cd50010 	lw	s5,16(a2)
9d008e10:	0f402a74 	jal	9d00a9d0 <__skipws>
9d008e14:	8cd1000c 	lw	s1,12(a2)
9d008e18:	52600001 	beqzl	s3,9d008e20 <__scan_x+0x50>
9d008e1c:	26b3ffff 	addiu	s3,s5,-1
9d008e20:	8e440000 	lw	a0,0(s2)
9d008e24:	00008025 	move	s0,zero
9d008e28:	26b5ffff 	addiu	s5,s5,-1
9d008e2c:	00822021 	addu	a0,a0,v0
9d008e30:	ae440000 	sw	a0,0(s2)
9d008e34:	24170078 	li	s7,120
9d008e38:	241e0030 	li	s8,48
9d008e3c:	0213102a 	slt	v0,s0,s3
9d008e40:	1040002f 	beqz	v0,9d008f00 <__scan_x+0x130>
9d008e44:	0215102a 	slt	v0,s0,s5
9d008e48:	5040002e 	beqzl	v0,9d008f04 <__scan_x+0x134>
9d008e4c:	02308021 	addu	s0,s1,s0
9d008e50:	8ec2003c 	lw	v0,60(s6)
9d008e54:	8ec4004c 	lw	a0,76(s6)
9d008e58:	0044202b 	sltu	a0,v0,a0
9d008e5c:	10800038 	beqz	a0,9d008f40 <__scan_x+0x170>
9d008e60:	24440001 	addiu	a0,v0,1
9d008e64:	aec4003c 	sw	a0,60(s6)
9d008e68:	90540000 	lbu	s4,0(v0)
9d008e6c:	0f403019 	jal	9d00c064 <isxdigit>
9d008e70:	02802025 	move	a0,s4
9d008e74:	1440004b 	bnez	v0,9d008fa4 <__scan_x+0x1d4>
9d008e78:	24020001 	li	v0,1
9d008e7c:	5602001b 	bnel	s0,v0,9d008eec <__scan_x+0x11c>
9d008e80:	8ec2004c 	lw	v0,76(s6)
9d008e84:	0f40304f 	jal	9d00c13c <tolower>
9d008e88:	02802025 	move	a0,s4
9d008e8c:	54570017 	bnel	v0,s7,9d008eec <__scan_x+0x11c>
9d008e90:	8ec2004c 	lw	v0,76(s6)
9d008e94:	82220000 	lb	v0,0(s1)
9d008e98:	545e0014 	bnel	v0,s8,9d008eec <__scan_x+0x11c>
9d008e9c:	8ec2004c 	lw	v0,76(s6)
9d008ea0:	8ec2003c 	lw	v0,60(s6)
9d008ea4:	8ec4004c 	lw	a0,76(s6)
9d008ea8:	0044202b 	sltu	a0,v0,a0
9d008eac:	10800039 	beqz	a0,9d008f94 <__scan_x+0x1c4>
9d008eb0:	00000000 	nop
9d008eb4:	24440001 	addiu	a0,v0,1
9d008eb8:	aec4003c 	sw	a0,60(s6)
9d008ebc:	90420000 	lbu	v0,0(v0)
9d008ec0:	8ec4004c 	lw	a0,76(s6)
9d008ec4:	10800004 	beqz	a0,9d008ed8 <__scan_x+0x108>
9d008ec8:	00000000 	nop
9d008ecc:	8ec6003c 	lw	a2,60(s6)
9d008ed0:	24c6ffff 	addiu	a2,a2,-1
9d008ed4:	aec6003c 	sw	a2,60(s6)
9d008ed8:	0f403019 	jal	9d00c064 <isxdigit>
9d008edc:	00402025 	move	a0,v0
9d008ee0:	14400031 	bnez	v0,9d008fa8 <__scan_x+0x1d8>
9d008ee4:	02301021 	addu	v0,s1,s0
9d008ee8:	8ec2004c 	lw	v0,76(s6)
9d008eec:	50400005 	beqzl	v0,9d008f04 <__scan_x+0x134>
9d008ef0:	02308021 	addu	s0,s1,s0
9d008ef4:	8ec2003c 	lw	v0,60(s6)
9d008ef8:	2442ffff 	addiu	v0,v0,-1
9d008efc:	aec2003c 	sw	v0,60(s6)
9d008f00:	02308021 	addu	s0,s1,s0
9d008f04:	02202025 	move	a0,s1
9d008f08:	27a50010 	addiu	a1,sp,16
9d008f0c:	a2000000 	sb	zero,0(s0)
9d008f10:	0f402fa3 	jal	9d00be8c <strtoull>
9d008f14:	24060010 	li	a2,16
9d008f18:	8fa40044 	lw	a0,68(sp)
9d008f1c:	8fa50010 	lw	a1,16(sp)
9d008f20:	ac820000 	sw	v0,0(a0)
9d008f24:	00b18826 	xor	s1,a1,s1
9d008f28:	2402fffe 	li	v0,-2
9d008f2c:	24050001 	li	a1,1
9d008f30:	0051280a 	movz	a1,v0,s1
9d008f34:	ac830004 	sw	v1,4(a0)
9d008f38:	10000009 	b	9d008f60 <__scan_x+0x190>
9d008f3c:	00a0a025 	move	s4,a1
9d008f40:	0f402a47 	jal	9d00a91c <__shgetc>
9d008f44:	02c02025 	move	a0,s6
9d008f48:	0040a025 	move	s4,v0
9d008f4c:	2402ffff 	li	v0,-1
9d008f50:	1682ffc6 	bne	s4,v0,9d008e6c <__scan_x+0x9c>
9d008f54:	00000000 	nop
9d008f58:	1600ffea 	bnez	s0,9d008f04 <__scan_x+0x134>
9d008f5c:	02308021 	addu	s0,s1,s0
9d008f60:	8fbf003c 	lw	ra,60(sp)
9d008f64:	02801025 	move	v0,s4
9d008f68:	8fbe0038 	lw	s8,56(sp)
9d008f6c:	8fb70034 	lw	s7,52(sp)
9d008f70:	8fb60030 	lw	s6,48(sp)
9d008f74:	8fb5002c 	lw	s5,44(sp)
9d008f78:	8fb40028 	lw	s4,40(sp)
9d008f7c:	8fb30024 	lw	s3,36(sp)
9d008f80:	8fb20020 	lw	s2,32(sp)
9d008f84:	8fb1001c 	lw	s1,28(sp)
9d008f88:	8fb00018 	lw	s0,24(sp)
9d008f8c:	03e00008 	jr	ra
9d008f90:	27bd0040 	addiu	sp,sp,64
9d008f94:	0f402a47 	jal	9d00a91c <__shgetc>
9d008f98:	02c02025 	move	a0,s6
9d008f9c:	1000ffc9 	b	9d008ec4 <__scan_x+0xf4>
9d008fa0:	8ec4004c 	lw	a0,76(s6)
9d008fa4:	02301021 	addu	v0,s1,s0
9d008fa8:	a0540000 	sb	s4,0(v0)
9d008fac:	8e420000 	lw	v0,0(s2)
9d008fb0:	26100001 	addiu	s0,s0,1
9d008fb4:	24420001 	addiu	v0,v0,1
9d008fb8:	1000ffa0 	b	9d008e3c <__scan_x+0x6c>
9d008fbc:	ae420000 	sw	v0,0(s2)

Disassembly of section .text:

9d008fc0 <NU32DIP_Startup>:
#include "nu32dip.h"

void NU32DIP_Startup() {
9d008fc0:	27bdfff8 	addiu	sp,sp,-8
9d008fc4:	afbf0004 	sw	ra,4(sp)
    __builtin_disable_interrupts(); // disable interrupts while initializing things
9d008fc8:	41626000 	di	v0
9d008fcc:	000000c0 	ehb

    // set the CP0 CONFIG register to indicate that kseg0 is cacheable (0x3)
    __builtin_mtc0(_CP0_CONFIG, _CP0_CONFIG_SELECT, 0xa4210583);
9d008fd0:	3c02a421 	lui	v0,0xa421
9d008fd4:	24420583 	addiu	v0,v0,1411
9d008fd8:	40828000 	mtc0	v0,c0_config
9d008fdc:	000000c0 	ehb

    // 0 data RAM access wait states
    BMXCONbits.BMXWSDRM = 0x0;
9d008fe0:	3c02bf88 	lui	v0,0xbf88
9d008fe4:	8c432000 	lw	v1,8192(v0)
9d008fe8:	7c033184 	ins	v1,zero,0x6,0x1
9d008fec:	ac432000 	sw	v1,8192(v0)

    // enable multi vector interrupts
    INTCONbits.MVEC = 0x1;
9d008ff0:	3c02bf88 	lui	v0,0xbf88
9d008ff4:	8c441000 	lw	a0,4096(v0)
9d008ff8:	24030001 	li	v1,1
9d008ffc:	7c646304 	ins	a0,v1,0xc,0x1
9d009000:	ac441000 	sw	a0,4096(v0)

    // disable JTAG to get pins back
    DDPCONbits.JTAGEN = 0;
9d009004:	3c02bf81 	lui	v0,0xbf81
9d009008:	9444f200 	lhu	a0,-3584(v0)
9d00900c:	7c0418c4 	ins	a0,zero,0x3,0x1
9d009010:	a444f200 	sh	a0,-3584(v0)

    // do your TRIS and LAT commands here
    TRISBCLR = 0b110000; // B4 and B5 LEDs
9d009014:	3c02bf88 	lui	v0,0xbf88
9d009018:	24040030 	li	a0,48
9d00901c:	ac446114 	sw	a0,24852(v0)
    TRISASET = 0b010000; // A4 user button
9d009020:	3c02bf88 	lui	v0,0xbf88
9d009024:	24040010 	li	a0,16
9d009028:	ac446018 	sw	a0,24600(v0)
    //NU32_LED1 = 1; // LED1 is off
    NU32DIP_YELLOW = 1;
9d00902c:	3c02bf88 	lui	v0,0xbf88
9d009030:	94446130 	lhu	a0,24880(v0)
9d009034:	7c642944 	ins	a0,v1,0x5,0x1
9d009038:	a4446130 	sh	a0,24880(v0)
    //NU32_LED2 = 0; // LED2 is on
    NU32DIP_GREEN = 0;
9d00903c:	94446130 	lhu	a0,24880(v0)
9d009040:	7c042104 	ins	a0,zero,0x4,0x1
9d009044:	a4446130 	sh	a0,24880(v0)

    //UART1 pins
    U1RXRbits.U1RXR = 0b0000; // Set A2 to U1RX
9d009048:	3c02bf81 	lui	v0,0xbf81
9d00904c:	9044fa50 	lbu	a0,-1456(v0)
9d009050:	7c041804 	ins	a0,zero,0x0,0x4
9d009054:	a044fa50 	sb	a0,-1456(v0)
    RPB3Rbits.RPB3R = 0b0001; // Set B3 to U1TX
9d009058:	3c02bf81 	lui	v0,0xbf81
9d00905c:	9044fb38 	lbu	a0,-1224(v0)
9d009060:	7c641804 	ins	a0,v1,0x0,0x4
9d009064:	a044fb38 	sb	a0,-1224(v0)

    // turn on UART1 without an interrupt
    U1MODEbits.BRGH = 0; // set baud to NU32_DESIRED_BAUD
9d009068:	3c02bf80 	lui	v0,0xbf80
9d00906c:	94446000 	lhu	a0,24576(v0)
9d009070:	7c0418c4 	ins	a0,zero,0x3,0x1
9d009074:	a4446000 	sh	a0,24576(v0)
    U1BRG = ((NU32DIP_SYS_FREQ / NU32DIP_DESIRED_BAUD) / 16) - 1;
9d009078:	3c04bf80 	lui	a0,0xbf80
9d00907c:	2405000c 	li	a1,12
9d009080:	ac856040 	sw	a1,24640(a0)

    // 8 bit, no parity bit, and 1 stop bit (8N1 setup)
    U1MODEbits.PDSEL = 0;
9d009084:	94446000 	lhu	a0,24576(v0)
9d009088:	7c041044 	ins	a0,zero,0x1,0x2
9d00908c:	a4446000 	sh	a0,24576(v0)
    U1MODEbits.STSEL = 0;
9d009090:	94446000 	lhu	a0,24576(v0)
9d009094:	7c040004 	ins	a0,zero,0x0,0x1
9d009098:	a4446000 	sh	a0,24576(v0)

    // configure TX & RX pins as output & input pins
    U1STAbits.UTXEN = 1;
9d00909c:	3c04bf80 	lui	a0,0xbf80
9d0090a0:	8c856010 	lw	a1,24592(a0)
9d0090a4:	7c655284 	ins	a1,v1,0xa,0x1
9d0090a8:	ac856010 	sw	a1,24592(a0)
    U1STAbits.URXEN = 1;
9d0090ac:	8c856010 	lw	a1,24592(a0)
9d0090b0:	7c656304 	ins	a1,v1,0xc,0x1
9d0090b4:	ac856010 	sw	a1,24592(a0)
    // configure without hardware flow control
    U1MODEbits.UEN = 0;
9d0090b8:	94446000 	lhu	a0,24576(v0)
9d0090bc:	7c044a04 	ins	a0,zero,0x8,0x2
9d0090c0:	a4446000 	sh	a0,24576(v0)

    // enable the uart
    U1MODEbits.ON = 1;
9d0090c4:	94446000 	lhu	a0,24576(v0)
9d0090c8:	7c647bc4 	ins	a0,v1,0xf,0x1
9d0090cc:	a4446000 	sh	a0,24576(v0)

    __builtin_enable_interrupts();
9d0090d0:	41626020 	ei	v0
}
9d0090d4:	8fbf0004 	lw	ra,4(sp)
9d0090d8:	03e00008 	jr	ra
9d0090dc:	27bd0008 	addiu	sp,sp,8

9d0090e0 <NU32DIP_ReadUART1>:
// block other functions until you get a '\r' or '\n'
// send the pointer to your char array and the number of elements in the array

void NU32DIP_ReadUART1(char * message, int maxLength) {
    char data = 0;
    int complete = 0, num_bytes = 0;
9d0090e0:	00001025 	move	v0,zero
    // loop until you get a '\r' or '\n'
    while (!complete) {
        if (U1STAbits.URXDA) { // if data is available
9d0090e4:	3c0abf80 	lui	t2,0xbf80
            data = U1RXREG; // read the data
9d0090e8:	3c09bf80 	lui	t1,0xbf80
            if ((data == '\n') || (data == '\r')) {
9d0090ec:	2408000a 	li	t0,10
9d0090f0:	2407000d 	li	a3,13
        if (U1STAbits.URXDA) { // if data is available
9d0090f4:	8d436010 	lw	v1,24592(t2)
9d0090f8:	30630001 	andi	v1,v1,0x1
9d0090fc:	1060fffd 	beqz	v1,9d0090f4 <NU32DIP_ReadUART1+0x14>
9d009100:	00000000 	nop
            data = U1RXREG; // read the data
9d009104:	8d236030 	lw	v1,24624(t1)
9d009108:	7c031c20 	seb	v1,v1
            if ((data == '\n') || (data == '\r')) {
9d00910c:	5068000b 	beql	v1,t0,9d00913c <NU32DIP_ReadUART1+0x5c>
9d009110:	00822021 	addu	a0,a0,v0
9d009114:	10670008 	beq	v1,a3,9d009138 <NU32DIP_ReadUART1+0x58>
9d009118:	24460001 	addiu	a2,v0,1
                complete = 1;
            } else {
                message[num_bytes] = data;
                ++num_bytes;
                // roll over if the array is too small
                if (num_bytes >= maxLength) {
9d00911c:	00c5302a 	slt	a2,a2,a1
                    num_bytes = 0;
9d009120:	244b0001 	addiu	t3,v0,1
                message[num_bytes] = data;
9d009124:	00821021 	addu	v0,a0,v0
9d009128:	a0430000 	sb	v1,0(v0)
9d00912c:	01601025 	move	v0,t3
9d009130:	1000fff0 	b	9d0090f4 <NU32DIP_ReadUART1+0x14>
9d009134:	0006100a 	movz	v0,zero,a2
                }
            }
        }
    }
    // end the string
    message[num_bytes] = '\0';
9d009138:	00822021 	addu	a0,a0,v0
}
9d00913c:	03e00008 	jr	ra
9d009140:	a0800000 	sb	zero,0(a0)

9d009144 <NU32DIP_WriteUART1>:

// Write a character array using UART1

void NU32DIP_WriteUART1(const char * string) {
    while (*string != '\0') {
9d009144:	80820000 	lb	v0,0(a0)
9d009148:	1040000b 	beqz	v0,9d009178 <NU32DIP_WriteUART1+0x34>
9d00914c:	3c06bf80 	lui	a2,0xbf80
        while (U1STAbits.UTXBF) {
            ; // wait until tx buffer isn't full
        }
        U1TXREG = *string;
9d009150:	3c05bf80 	lui	a1,0xbf80
        while (U1STAbits.UTXBF) {
9d009154:	8cc36010 	lw	v1,24592(a2)
9d009158:	7c630240 	ext	v1,v1,0x9,0x1
9d00915c:	1460fffd 	bnez	v1,9d009154 <NU32DIP_WriteUART1+0x10>
9d009160:	00000000 	nop
        U1TXREG = *string;
9d009164:	aca26020 	sw	v0,24608(a1)
        ++string;
9d009168:	24840001 	addiu	a0,a0,1
    while (*string != '\0') {
9d00916c:	80820000 	lb	v0,0(a0)
9d009170:	1440fff8 	bnez	v0,9d009154 <NU32DIP_WriteUART1+0x10>
9d009174:	00000000 	nop
    }
}
9d009178:	03e00008 	jr	ra
9d00917c:	00000000 	nop

Disassembly of section .text.free:

9d009180 <free>:
9d009180:	10800063 	beqz	a0,9d009310 <free+0x190>
9d009184:	00000000 	nop
9d009188:	8c82fffc 	lw	v0,-4(a0)
9d00918c:	27bdffd0 	addiu	sp,sp,-48
9d009190:	afb2001c 	sw	s2,28(sp)
9d009194:	00409025 	move	s2,v0
9d009198:	afb00014 	sw	s0,20(sp)
9d00919c:	7c120004 	ins	s2,zero,0x0,0x1
9d0091a0:	2490fff8 	addiu	s0,a0,-8
9d0091a4:	afb10018 	sw	s1,24(sp)
9d0091a8:	02128821 	addu	s1,s0,s2
9d0091ac:	8e230000 	lw	v1,0(s1)
9d0091b0:	afb40024 	sw	s4,36(sp)
9d0091b4:	afbf002c 	sw	ra,44(sp)
9d0091b8:	afb50028 	sw	s5,40(sp)
9d0091bc:	afb30020 	sw	s3,32(sp)
9d0091c0:	10430003 	beq	v0,v1,9d0091d0 <free+0x50>
9d0091c4:	2414fffe 	li	s4,-2
9d0091c8:	a0000000 	sb	zero,0(zero)
9d0091cc:	00000034 	teq	zero,zero
9d0091d0:	8e020000 	lw	v0,0(s0)
9d0091d4:	8e230004 	lw	v1,4(s1)
9d0091d8:	00431024 	and	v0,v0,v1
9d0091dc:	30420001 	andi	v0,v0,0x1
9d0091e0:	1440000e 	bnez	v0,9d00921c <free+0x9c>
9d0091e4:	36420001 	ori	v0,s2,0x1
9d0091e8:	0f402ca5 	jal	9d00b294 <alloc_rev>
9d0091ec:	02002025 	move	a0,s0
9d0091f0:	54400041 	bnezl	v0,9d0092f8 <free+0x178>
9d0091f4:	8e020000 	lw	v0,0(s0)
9d0091f8:	0f402d32 	jal	9d00b4c8 <alloc_fwd>
9d0091fc:	02202025 	move	a0,s1
9d009200:	5040fff4 	beqzl	v0,9d0091d4 <free+0x54>
9d009204:	8e020000 	lw	v0,0(s0)
9d009208:	8e220004 	lw	v0,4(s1)
9d00920c:	02821024 	and	v0,s4,v0
9d009210:	02429021 	addu	s2,s2,v0
9d009214:	1000ffee 	b	9d0091d0 <free+0x50>
9d009218:	02228821 	addu	s1,s1,v0
9d00921c:	ae020004 	sw	v0,4(s0)
9d009220:	02402025 	move	a0,s2
9d009224:	0f402d81 	jal	9d00b604 <bin_index>
9d009228:	ae220000 	sw	v0,0(s1)
9d00922c:	00402025 	move	a0,v0
9d009230:	0f402f7d 	jal	9d00bdf4 <lock_bin>
9d009234:	00409825 	move	s3,v0
9d009238:	8e020000 	lw	v0,0(s0)
9d00923c:	8e230004 	lw	v1,4(s1)
9d009240:	00431024 	and	v0,v0,v1
9d009244:	30420001 	andi	v0,v0,0x1
9d009248:	1040ffe7 	beqz	v0,9d0091e8 <free+0x68>
9d00924c:	3c15a000 	lui	s5,0xa000
9d009250:	8ea400d0 	lw	a0,208(s5)
9d009254:	8ea500d4 	lw	a1,212(s5)
9d009258:	02603025 	move	a2,s3
9d00925c:	0f402f51 	jal	9d00bd44 <__lshrdi3>
9d009260:	26b400d0 	addiu	s4,s5,208
9d009264:	30420001 	andi	v0,v0,0x1
9d009268:	1440000e 	bnez	v0,9d0092a4 <free+0x124>
9d00926c:	00002825 	move	a1,zero
9d009270:	02603025 	move	a2,s3
9d009274:	0f402f60 	jal	9d00bd80 <__ashldi3>
9d009278:	24040001 	li	a0,1
9d00927c:	10400004 	beqz	v0,9d009290 <free+0x110>
9d009280:	00602825 	move	a1,v1
9d009284:	8ea400d0 	lw	a0,208(s5)
9d009288:	00822025 	or	a0,a0,v0
9d00928c:	aea400d0 	sw	a0,208(s5)
9d009290:	50a00005 	beqzl	a1,9d0092a8 <free+0x128>
9d009294:	26730001 	addiu	s3,s3,1
9d009298:	8e820004 	lw	v0,4(s4)
9d00929c:	00431025 	or	v0,v0,v1
9d0092a0:	ae820004 	sw	v0,4(s4)
9d0092a4:	26730001 	addiu	s3,s3,1
9d0092a8:	001398c0 	sll	s3,s3,0x3
9d0092ac:	02939821 	addu	s3,s4,s3
9d0092b0:	2662fff8 	addiu	v0,s3,-8
9d0092b4:	ae120004 	sw	s2,4(s0)
9d0092b8:	ae320000 	sw	s2,0(s1)
9d0092bc:	ae020008 	sw	v0,8(s0)
9d0092c0:	8e620004 	lw	v0,4(s3)
9d0092c4:	8fbf002c 	lw	ra,44(sp)
9d0092c8:	8fb50028 	lw	s5,40(sp)
9d0092cc:	ae02000c 	sw	v0,12(s0)
9d0092d0:	ae700004 	sw	s0,4(s3)
9d0092d4:	8e02000c 	lw	v0,12(s0)
9d0092d8:	8fb40024 	lw	s4,36(sp)
9d0092dc:	8fb30020 	lw	s3,32(sp)
9d0092e0:	ac500008 	sw	s0,8(v0)
9d0092e4:	8fb2001c 	lw	s2,28(sp)
9d0092e8:	8fb10018 	lw	s1,24(sp)
9d0092ec:	8fb00014 	lw	s0,20(sp)
9d0092f0:	03e00008 	jr	ra
9d0092f4:	27bd0030 	addiu	sp,sp,48
9d0092f8:	02821024 	and	v0,s4,v0
9d0092fc:	02028023 	subu	s0,s0,v0
9d009300:	8e020004 	lw	v0,4(s0)
9d009304:	02821024 	and	v0,s4,v0
9d009308:	1000ffbb 	b	9d0091f8 <free+0x78>
9d00930c:	02429021 	addu	s2,s2,v0
9d009310:	03e00008 	jr	ra
9d009314:	00000000 	nop

Disassembly of section .text.__pop_int:

9d009318 <__pop_int>:
9d009318:	24020088 	li	v0,136
9d00931c:	10a2003f 	beq	a1,v0,9d00941c <__pop_int+0x104>
9d009320:	28a20089 	slti	v0,a1,137
9d009324:	1040001a 	beqz	v0,9d009390 <__pop_int+0x78>
9d009328:	24020081 	li	v0,129
9d00932c:	10a20054 	beq	a1,v0,9d009480 <__pop_int+0x168>
9d009330:	28a20082 	slti	v0,a1,130
9d009334:	10400005 	beqz	v0,9d00934c <__pop_int+0x34>
9d009338:	24020080 	li	v0,128
9d00933c:	50a20051 	beql	a1,v0,9d009484 <__pop_int+0x16c>
9d009340:	8ce20000 	lw	v0,0(a3)
9d009344:	03e00008 	jr	ra
9d009348:	00001025 	move	v0,zero
9d00934c:	24020082 	li	v0,130
9d009350:	50a2003b 	beql	a1,v0,9d009440 <__pop_int+0x128>
9d009354:	8ce20000 	lw	v0,0(a3)
9d009358:	24020084 	li	v0,132
9d00935c:	14a2fff9 	bne	a1,v0,9d009344 <__pop_int+0x2c>
9d009360:	00000000 	nop
9d009364:	8ce20000 	lw	v0,0(a3)
9d009368:	24430004 	addiu	v1,v0,4
9d00936c:	8c420000 	lw	v0,0(v0)
9d009370:	10c00027 	beqz	a2,9d009410 <__pop_int+0xf8>
9d009374:	ace30000 	sw	v1,0(a3)
9d009378:	7c021620 	seh	v0,v0
9d00937c:	ac820000 	sw	v0,0(a0)
9d009380:	000217c3 	sra	v0,v0,0x1f
9d009384:	ac820004 	sw	v0,4(a0)
9d009388:	03e00008 	jr	ra
9d00938c:	24020001 	li	v0,1
9d009390:	240200a0 	li	v0,160
9d009394:	50a20036 	beql	a1,v0,9d009470 <__pop_int+0x158>
9d009398:	8ce20000 	lw	v0,0(a3)
9d00939c:	28a200a1 	slti	v0,a1,161
9d0093a0:	10400010 	beqz	v0,9d0093e4 <__pop_int+0xcc>
9d0093a4:	24020090 	li	v0,144
9d0093a8:	14a2ffe6 	bne	a1,v0,9d009344 <__pop_int+0x2c>
9d0093ac:	00000000 	nop
9d0093b0:	8ce20000 	lw	v0,0(a3)
9d0093b4:	24420007 	addiu	v0,v0,7
9d0093b8:	7c021004 	ins	v0,zero,0x0,0x3
9d0093bc:	8c480000 	lw	t0,0(v0)
9d0093c0:	8c490004 	lw	t1,4(v0)
9d0093c4:	24420008 	addiu	v0,v0,8
9d0093c8:	ace20000 	sw	v0,0(a3)
9d0093cc:	ac880000 	sw	t0,0(a0)
9d0093d0:	ac890004 	sw	t1,4(a0)
9d0093d4:	10c00001 	beqz	a2,9d0093dc <__pop_int+0xc4>
9d0093d8:	24020001 	li	v0,1
9d0093dc:	03e00008 	jr	ra
9d0093e0:	00000000 	nop
9d0093e4:	240200c0 	li	v0,192
9d0093e8:	50a20005 	beql	a1,v0,9d009400 <__pop_int+0xe8>
9d0093ec:	8ce20000 	lw	v0,0(a3)
9d0093f0:	240200f0 	li	v0,240
9d0093f4:	14a2ffd3 	bne	a1,v0,9d009344 <__pop_int+0x2c>
9d0093f8:	00000000 	nop
9d0093fc:	8ce20000 	lw	v0,0(a3)
9d009400:	24430004 	addiu	v1,v0,4
9d009404:	ace30000 	sw	v1,0(a3)
9d009408:	10000002 	b	9d009414 <__pop_int+0xfc>
9d00940c:	8c420000 	lw	v0,0(v0)
9d009410:	3042ffff 	andi	v0,v0,0xffff
9d009414:	10000020 	b	9d009498 <__pop_int+0x180>
9d009418:	ac820000 	sw	v0,0(a0)
9d00941c:	8ce20000 	lw	v0,0(a3)
9d009420:	24430004 	addiu	v1,v0,4
9d009424:	8c420000 	lw	v0,0(v0)
9d009428:	10c00003 	beqz	a2,9d009438 <__pop_int+0x120>
9d00942c:	ace30000 	sw	v1,0(a3)
9d009430:	1000ffd2 	b	9d00937c <__pop_int+0x64>
9d009434:	7c021420 	seb	v0,v0
9d009438:	1000fff6 	b	9d009414 <__pop_int+0xfc>
9d00943c:	304200ff 	andi	v0,v0,0xff
9d009440:	24420007 	addiu	v0,v0,7
9d009444:	7c021004 	ins	v0,zero,0x0,0x3
9d009448:	8c480000 	lw	t0,0(v0)
9d00944c:	8c490004 	lw	t1,4(v0)
9d009450:	24420008 	addiu	v0,v0,8
9d009454:	ace20000 	sw	v0,0(a3)
9d009458:	ac880000 	sw	t0,0(a0)
9d00945c:	ac890004 	sw	t1,4(a0)
9d009460:	10c0ffde 	beqz	a2,9d0093dc <__pop_int+0xc4>
9d009464:	24020001 	li	v0,1
9d009468:	03e00008 	jr	ra
9d00946c:	00000000 	nop
9d009470:	24430004 	addiu	v1,v0,4
9d009474:	ace30000 	sw	v1,0(a3)
9d009478:	1000ffc0 	b	9d00937c <__pop_int+0x64>
9d00947c:	8c420000 	lw	v0,0(v0)
9d009480:	8ce20000 	lw	v0,0(a3)
9d009484:	24430004 	addiu	v1,v0,4
9d009488:	ace30000 	sw	v1,0(a3)
9d00948c:	8c420000 	lw	v0,0(v0)
9d009490:	14c0ffbb 	bnez	a2,9d009380 <__pop_int+0x68>
9d009494:	ac820000 	sw	v0,0(a0)
9d009498:	1000ffbb 	b	9d009388 <__pop_int+0x70>
9d00949c:	ac800004 	sw	zero,4(a0)

Disassembly of section .text.__push_int:

9d0094a0 <__push_int>:
9d0094a0:	24020088 	li	v0,136
9d0094a4:	50a2003c 	beql	a1,v0,9d009598 <__push_int+0xf8>
9d0094a8:	8ce20000 	lw	v0,0(a3)
9d0094ac:	28a20089 	slti	v0,a1,137
9d0094b0:	10400019 	beqz	v0,9d009518 <__push_int+0x78>
9d0094b4:	24020081 	li	v0,129
9d0094b8:	50a20040 	beql	a1,v0,9d0095bc <__push_int+0x11c>
9d0094bc:	8ce20000 	lw	v0,0(a3)
9d0094c0:	28a20082 	slti	v0,a1,130
9d0094c4:	10400005 	beqz	v0,9d0094dc <__push_int+0x3c>
9d0094c8:	24020080 	li	v0,128
9d0094cc:	50a20048 	beql	a1,v0,9d0095f0 <__push_int+0x150>
9d0094d0:	8ce20000 	lw	v0,0(a3)
9d0094d4:	03e00008 	jr	ra
9d0094d8:	00001025 	move	v0,zero
9d0094dc:	24020082 	li	v0,130
9d0094e0:	10a20015 	beq	a1,v0,9d009538 <__push_int+0x98>
9d0094e4:	24020084 	li	v0,132
9d0094e8:	14a2fffa 	bne	a1,v0,9d0094d4 <__push_int+0x34>
9d0094ec:	00000000 	nop
9d0094f0:	8ce20000 	lw	v0,0(a3)
9d0094f4:	8c830000 	lw	v1,0(a0)
9d0094f8:	24440004 	addiu	a0,v0,4
9d0094fc:	ace40000 	sw	a0,0(a3)
9d009500:	8c420000 	lw	v0,0(v0)
9d009504:	a4430000 	sh	v1,0(v0)
9d009508:	10c00001 	beqz	a2,9d009510 <__push_int+0x70>
9d00950c:	24020001 	li	v0,1
9d009510:	03e00008 	jr	ra
9d009514:	00000000 	nop
9d009518:	240200a0 	li	v0,160
9d00951c:	50a20018 	beql	a1,v0,9d009580 <__push_int+0xe0>
9d009520:	8ce20000 	lw	v0,0(a3)
9d009524:	28a200a1 	slti	v0,a1,161
9d009528:	1040000e 	beqz	v0,9d009564 <__push_int+0xc4>
9d00952c:	24020090 	li	v0,144
9d009530:	14a2ffe8 	bne	a1,v0,9d0094d4 <__push_int+0x34>
9d009534:	00000000 	nop
9d009538:	8ce20000 	lw	v0,0(a3)
9d00953c:	10c00028 	beqz	a2,9d0095e0 <__push_int+0x140>
9d009540:	24430004 	addiu	v1,v0,4
9d009544:	ace30000 	sw	v1,0(a3)
9d009548:	8c850004 	lw	a1,4(a0)
9d00954c:	8c840000 	lw	a0,0(a0)
9d009550:	8c420000 	lw	v0,0(v0)
9d009554:	ac440000 	sw	a0,0(v0)
9d009558:	ac450004 	sw	a1,4(v0)
9d00955c:	03e00008 	jr	ra
9d009560:	24020001 	li	v0,1
9d009564:	240200c0 	li	v0,192
9d009568:	50a20005 	beql	a1,v0,9d009580 <__push_int+0xe0>
9d00956c:	8ce20000 	lw	v0,0(a3)
9d009570:	240200f0 	li	v0,240
9d009574:	14a2ffd7 	bne	a1,v0,9d0094d4 <__push_int+0x34>
9d009578:	00000000 	nop
9d00957c:	8ce20000 	lw	v0,0(a3)
9d009580:	8c830000 	lw	v1,0(a0)
9d009584:	24440004 	addiu	a0,v0,4
9d009588:	ace40000 	sw	a0,0(a3)
9d00958c:	8c420000 	lw	v0,0(v0)
9d009590:	1000fff2 	b	9d00955c <__push_int+0xbc>
9d009594:	ac430000 	sw	v1,0(v0)
9d009598:	8c830000 	lw	v1,0(a0)
9d00959c:	24440004 	addiu	a0,v0,4
9d0095a0:	ace40000 	sw	a0,0(a3)
9d0095a4:	8c420000 	lw	v0,0(v0)
9d0095a8:	a0430000 	sb	v1,0(v0)
9d0095ac:	10c0ffd8 	beqz	a2,9d009510 <__push_int+0x70>
9d0095b0:	24020001 	li	v0,1
9d0095b4:	03e00008 	jr	ra
9d0095b8:	00000000 	nop
9d0095bc:	8c830000 	lw	v1,0(a0)
9d0095c0:	24440004 	addiu	a0,v0,4
9d0095c4:	ace40000 	sw	a0,0(a3)
9d0095c8:	8c420000 	lw	v0,0(v0)
9d0095cc:	ac430000 	sw	v1,0(v0)
9d0095d0:	10c0ffcf 	beqz	a2,9d009510 <__push_int+0x70>
9d0095d4:	24020001 	li	v0,1
9d0095d8:	03e00008 	jr	ra
9d0095dc:	00000000 	nop
9d0095e0:	8c850004 	lw	a1,4(a0)
9d0095e4:	8c840000 	lw	a0,0(a0)
9d0095e8:	1000ffd9 	b	9d009550 <__push_int+0xb0>
9d0095ec:	ace30000 	sw	v1,0(a3)
9d0095f0:	8c830000 	lw	v1,0(a0)
9d0095f4:	24440004 	addiu	a0,v0,4
9d0095f8:	ace40000 	sw	a0,0(a3)
9d0095fc:	8c420000 	lw	v0,0(v0)
9d009600:	ac430000 	sw	v1,0(v0)
9d009604:	24020001 	li	v0,1
9d009608:	03e00008 	jr	ra
9d00960c:	00000000 	nop

Disassembly of section .text.__scan_s:

9d009610 <__scan_s>:
9d009610:	27bdffc8 	addiu	sp,sp,-56
9d009614:	afb50028 	sw	s5,40(sp)
9d009618:	afb30020 	sw	s3,32(sp)
9d00961c:	afb2001c 	sw	s2,28(sp)
9d009620:	afb10018 	sw	s1,24(sp)
9d009624:	afb00014 	sw	s0,20(sp)
9d009628:	afbf0034 	sw	ra,52(sp)
9d00962c:	afb70030 	sw	s7,48(sp)
9d009630:	afb6002c 	sw	s6,44(sp)
9d009634:	afb40024 	sw	s4,36(sp)
9d009638:	0080a825 	move	s5,a0
9d00963c:	00a08025 	move	s0,a1
9d009640:	00c09825 	move	s3,a2
9d009644:	00e09025 	move	s2,a3
9d009648:	10c00006 	beqz	a2,9d009664 <__scan_s+0x54>
9d00964c:	8fb10048 	lw	s1,72(sp)
9d009650:	0f402a74 	jal	9d00a9d0 <__skipws>
9d009654:	00000000 	nop
9d009658:	8e430000 	lw	v1,0(s2)
9d00965c:	00621021 	addu	v0,v1,v0
9d009660:	ae420000 	sw	v0,0(s2)
9d009664:	8e140008 	lw	s4,8(s0)
9d009668:	2416ffff 	li	s6,-1
9d00966c:	00008025 	move	s0,zero
9d009670:	24170020 	li	s7,32
9d009674:	12800003 	beqz	s4,9d009684 <__scan_s+0x74>
9d009678:	0214102a 	slt	v0,s0,s4
9d00967c:	1040001f 	beqz	v0,9d0096fc <__scan_s+0xec>
9d009680:	00000000 	nop
9d009684:	8ea2003c 	lw	v0,60(s5)
9d009688:	8ea3004c 	lw	v1,76(s5)
9d00968c:	0043182b 	sltu	v1,v0,v1
9d009690:	10600014 	beqz	v1,9d0096e4 <__scan_s+0xd4>
9d009694:	24430001 	addiu	v1,v0,1
9d009698:	aea3003c 	sw	v1,60(s5)
9d00969c:	90420000 	lbu	v0,0(v0)
9d0096a0:	12600024 	beqz	s3,9d009734 <__scan_s+0x124>
9d0096a4:	00000000 	nop
9d0096a8:	10570004 	beq	v0,s7,9d0096bc <__scan_s+0xac>
9d0096ac:	2443fff7 	addiu	v1,v0,-9
9d0096b0:	2c630005 	sltiu	v1,v1,5
9d0096b4:	1060001f 	beqz	v1,9d009734 <__scan_s+0x124>
9d0096b8:	00000000 	nop
9d0096bc:	8ea2004c 	lw	v0,76(s5)
9d0096c0:	10400004 	beqz	v0,9d0096d4 <__scan_s+0xc4>
9d0096c4:	00000000 	nop
9d0096c8:	8ea2003c 	lw	v0,60(s5)
9d0096cc:	2442ffff 	addiu	v0,v0,-1
9d0096d0:	aea2003c 	sw	v0,60(s5)
9d0096d4:	16200021 	bnez	s1,9d00975c <__scan_s+0x14c>
9d0096d8:	0010102b 	sltu	v0,zero,s0
9d0096dc:	1000000b 	b	9d00970c <__scan_s+0xfc>
9d0096e0:	8fbf0034 	lw	ra,52(sp)
9d0096e4:	0f402a47 	jal	9d00a91c <__shgetc>
9d0096e8:	02a02025 	move	a0,s5
9d0096ec:	1456ffec 	bne	v0,s6,9d0096a0 <__scan_s+0x90>
9d0096f0:	00000000 	nop
9d0096f4:	12000005 	beqz	s0,9d00970c <__scan_s+0xfc>
9d0096f8:	8fbf0034 	lw	ra,52(sp)
9d0096fc:	16200015 	bnez	s1,9d009754 <__scan_s+0x144>
9d009700:	00000000 	nop
9d009704:	0010102b 	sltu	v0,zero,s0
9d009708:	8fbf0034 	lw	ra,52(sp)
9d00970c:	8fb70030 	lw	s7,48(sp)
9d009710:	8fb6002c 	lw	s6,44(sp)
9d009714:	8fb50028 	lw	s5,40(sp)
9d009718:	8fb40024 	lw	s4,36(sp)
9d00971c:	8fb30020 	lw	s3,32(sp)
9d009720:	8fb2001c 	lw	s2,28(sp)
9d009724:	8fb10018 	lw	s1,24(sp)
9d009728:	8fb00014 	lw	s0,20(sp)
9d00972c:	03e00008 	jr	ra
9d009730:	27bd0038 	addiu	sp,sp,56
9d009734:	12200002 	beqz	s1,9d009740 <__scan_s+0x130>
9d009738:	02301821 	addu	v1,s1,s0
9d00973c:	a0620000 	sb	v0,0(v1)
9d009740:	8e420000 	lw	v0,0(s2)
9d009744:	26100001 	addiu	s0,s0,1
9d009748:	24420001 	addiu	v0,v0,1
9d00974c:	1000ffc9 	b	9d009674 <__scan_s+0x64>
9d009750:	ae420000 	sw	v0,0(s2)
9d009754:	1260ffec 	beqz	s3,9d009708 <__scan_s+0xf8>
9d009758:	0010102b 	sltu	v0,zero,s0
9d00975c:	02308821 	addu	s1,s1,s0
9d009760:	1000ffe8 	b	9d009704 <__scan_s+0xf4>
9d009764:	a2200000 	sb	zero,0(s1)

Disassembly of section .text.__scan_o:

9d009768 <__scan_o>:
9d009768:	27bdffc0 	addiu	sp,sp,-64
9d00976c:	afb60034 	sw	s6,52(sp)
9d009770:	8cd60008 	lw	s6,8(a2)
9d009774:	afb50030 	sw	s5,48(sp)
9d009778:	afb4002c 	sw	s4,44(sp)
9d00977c:	afb30028 	sw	s3,40(sp)
9d009780:	afb20024 	sw	s2,36(sp)
9d009784:	afb10020 	sw	s1,32(sp)
9d009788:	afbf003c 	sw	ra,60(sp)
9d00978c:	afb70038 	sw	s7,56(sp)
9d009790:	afb0001c 	sw	s0,28(sp)
9d009794:	00808825 	move	s1,a0
9d009798:	00a0a825 	move	s5,a1
9d00979c:	00e0a025 	move	s4,a3
9d0097a0:	8cd30010 	lw	s3,16(a2)
9d0097a4:	0f402a74 	jal	9d00a9d0 <__skipws>
9d0097a8:	8cd2000c 	lw	s2,12(a2)
9d0097ac:	52c00001 	beqzl	s6,9d0097b4 <__scan_o+0x4c>
9d0097b0:	2676ffff 	addiu	s6,s3,-1
9d0097b4:	8e830000 	lw	v1,0(s4)
9d0097b8:	00008025 	move	s0,zero
9d0097bc:	2673ffff 	addiu	s3,s3,-1
9d0097c0:	00621821 	addu	v1,v1,v0
9d0097c4:	ae830000 	sw	v1,0(s4)
9d0097c8:	2417ffff 	li	s7,-1
9d0097cc:	0216102a 	slt	v0,s0,s6
9d0097d0:	1040001b 	beqz	v0,9d009840 <__scan_o+0xd8>
9d0097d4:	0213102a 	slt	v0,s0,s3
9d0097d8:	5040001a 	beqzl	v0,9d009844 <__scan_o+0xdc>
9d0097dc:	02508021 	addu	s0,s2,s0
9d0097e0:	8e22003c 	lw	v0,60(s1)
9d0097e4:	8e23004c 	lw	v1,76(s1)
9d0097e8:	0043182b 	sltu	v1,v0,v1
9d0097ec:	1060000e 	beqz	v1,9d009828 <__scan_o+0xc0>
9d0097f0:	24430001 	addiu	v1,v0,1
9d0097f4:	ae23003c 	sw	v1,60(s1)
9d0097f8:	90420000 	lbu	v0,0(v0)
9d0097fc:	2443ffd0 	addiu	v1,v0,-48
9d009800:	2c630008 	sltiu	v1,v1,8
9d009804:	14600027 	bnez	v1,9d0098a4 <__scan_o+0x13c>
9d009808:	02501821 	addu	v1,s2,s0
9d00980c:	8e22004c 	lw	v0,76(s1)
9d009810:	5040000c 	beqzl	v0,9d009844 <__scan_o+0xdc>
9d009814:	02508021 	addu	s0,s2,s0
9d009818:	8e22003c 	lw	v0,60(s1)
9d00981c:	2442ffff 	addiu	v0,v0,-1
9d009820:	10000007 	b	9d009840 <__scan_o+0xd8>
9d009824:	ae22003c 	sw	v0,60(s1)
9d009828:	0f402a47 	jal	9d00a91c <__shgetc>
9d00982c:	02202025 	move	a0,s1
9d009830:	1457fff3 	bne	v0,s7,9d009800 <__scan_o+0x98>
9d009834:	2443ffd0 	addiu	v1,v0,-48
9d009838:	12000010 	beqz	s0,9d00987c <__scan_o+0x114>
9d00983c:	8fbf003c 	lw	ra,60(sp)
9d009840:	02508021 	addu	s0,s2,s0
9d009844:	02402025 	move	a0,s2
9d009848:	a2000000 	sb	zero,0(s0)
9d00984c:	24060008 	li	a2,8
9d009850:	0f402fa3 	jal	9d00be8c <strtoull>
9d009854:	27a50010 	addiu	a1,sp,16
9d009858:	aea20000 	sw	v0,0(s5)
9d00985c:	8fa20010 	lw	v0,16(sp)
9d009860:	aea30004 	sw	v1,4(s5)
9d009864:	2404fffe 	li	a0,-2
9d009868:	00521026 	xor	v0,v0,s2
9d00986c:	24030001 	li	v1,1
9d009870:	0082180a 	movz	v1,a0,v0
9d009874:	00601025 	move	v0,v1
9d009878:	8fbf003c 	lw	ra,60(sp)
9d00987c:	8fb70038 	lw	s7,56(sp)
9d009880:	8fb60034 	lw	s6,52(sp)
9d009884:	8fb50030 	lw	s5,48(sp)
9d009888:	8fb4002c 	lw	s4,44(sp)
9d00988c:	8fb30028 	lw	s3,40(sp)
9d009890:	8fb20024 	lw	s2,36(sp)
9d009894:	8fb10020 	lw	s1,32(sp)
9d009898:	8fb0001c 	lw	s0,28(sp)
9d00989c:	03e00008 	jr	ra
9d0098a0:	27bd0040 	addiu	sp,sp,64
9d0098a4:	a0620000 	sb	v0,0(v1)
9d0098a8:	8e820000 	lw	v0,0(s4)
9d0098ac:	26100001 	addiu	s0,s0,1
9d0098b0:	24420001 	addiu	v0,v0,1
9d0098b4:	1000ffc5 	b	9d0097cc <__scan_o+0x64>
9d0098b8:	ae820000 	sw	v0,0(s4)

Disassembly of section .text._sbrk_init:

9d0098bc <_sbrk_init>:
9d0098bc:	27bdffd8 	addiu	sp,sp,-40
9d0098c0:	afb40020 	sw	s4,32(sp)
9d0098c4:	3c14a000 	lui	s4,0xa000
9d0098c8:	8e820340 	lw	v0,832(s4)
9d0098cc:	afbf0024 	sw	ra,36(sp)
9d0098d0:	afb3001c 	sw	s3,28(sp)
9d0098d4:	afb20018 	sw	s2,24(sp)
9d0098d8:	afb10014 	sw	s1,20(sp)
9d0098dc:	1440003a 	bnez	v0,9d0099c8 <_sbrk_init+0x10c>
9d0098e0:	afb00010 	sw	s0,16(sp)
9d0098e4:	3c12a000 	lui	s2,0xa000
9d0098e8:	8e510348 	lw	s1,840(s2)
9d0098ec:	16200003 	bnez	s1,9d0098fc <_sbrk_init+0x40>
9d0098f0:	3c13a000 	lui	s3,0xa000
9d0098f4:	3c11a000 	lui	s1,0xa000
9d0098f8:	26310358 	addiu	s1,s1,856
9d0098fc:	8e700344 	lw	s0,836(s3)
9d009900:	16000005 	bnez	s0,9d009918 <_sbrk_init+0x5c>
9d009904:	3c020000 	lui	v0,0x0
9d009908:	3c10a000 	lui	s0,0xa000
9d00990c:	26100358 	addiu	s0,s0,856
9d009910:	24420000 	addiu	v0,v0,0
9d009914:	02028021 	addu	s0,s0,v0
9d009918:	00111f82 	srl	v1,s1,0x1e
9d00991c:	24020002 	li	v0,2
9d009920:	50620001 	beql	v1,v0,9d009928 <_sbrk_init+0x6c>
9d009924:	7e31e000 	ext	s1,s1,0x0,0x1d
9d009928:	00101f82 	srl	v1,s0,0x1e
9d00992c:	24020002 	li	v0,2
9d009930:	50620001 	beql	v1,v0,9d009938 <_sbrk_init+0x7c>
9d009934:	7e10e000 	ext	s0,s0,0x0,0x1d
9d009938:	0f402ffb 	jal	9d00bfec <_stub_sbd_memlayout>
9d00993c:	00000000 	nop
9d009940:	8c430000 	lw	v1,0(v0)
9d009944:	8c420004 	lw	v0,4(v0)
9d009948:	0223202b 	sltu	a0,s1,v1
9d00994c:	14800004 	bnez	a0,9d009960 <_sbrk_init+0xa4>
9d009950:	00621021 	addu	v0,v1,v0
9d009954:	0222202b 	sltu	a0,s1,v0
9d009958:	54800029 	bnezl	a0,9d009a00 <_sbrk_init+0x144>
9d00995c:	0211182b 	sltu	v1,s0,s1
9d009960:	3c04a000 	lui	a0,0xa000
9d009964:	24840004 	addiu	a0,a0,4
9d009968:	7c84e000 	ext	a0,a0,0x0,0x1d
9d00996c:	0064202b 	sltu	a0,v1,a0
9d009970:	14800015 	bnez	a0,9d0099c8 <_sbrk_init+0x10c>
9d009974:	0203202b 	sltu	a0,s0,v1
9d009978:	14800004 	bnez	a0,9d00998c <_sbrk_init+0xd0>
9d00997c:	0062202b 	sltu	a0,v1,v0
9d009980:	0202202b 	sltu	a0,s0,v0
9d009984:	14800018 	bnez	a0,9d0099e8 <_sbrk_init+0x12c>
9d009988:	0062202b 	sltu	a0,v1,v0
9d00998c:	1080000f 	beqz	a0,9d0099cc <_sbrk_init+0x110>
9d009990:	8fbf0024 	lw	ra,36(sp)
9d009994:	3c04a000 	lui	a0,0xa000
9d009998:	24840004 	addiu	a0,a0,4
9d00999c:	00042742 	srl	a0,a0,0x1d
9d0099a0:	24050005 	li	a1,5
9d0099a4:	14850012 	bne	a0,a1,9d0099f0 <_sbrk_init+0x134>
9d0099a8:	24050004 	li	a1,4
9d0099ac:	3c04a000 	lui	a0,0xa000
9d0099b0:	00641825 	or	v1,v1,a0
9d0099b4:	00441025 	or	v0,v0,a0
9d0099b8:	ae430348 	sw	v1,840(s2)
9d0099bc:	ae620344 	sw	v0,836(s3)
9d0099c0:	8e420348 	lw	v0,840(s2)
9d0099c4:	ae820340 	sw	v0,832(s4)
9d0099c8:	8fbf0024 	lw	ra,36(sp)
9d0099cc:	8fb40020 	lw	s4,32(sp)
9d0099d0:	8fb3001c 	lw	s3,28(sp)
9d0099d4:	8fb20018 	lw	s2,24(sp)
9d0099d8:	8fb10014 	lw	s1,20(sp)
9d0099dc:	8fb00010 	lw	s0,16(sp)
9d0099e0:	03e00008 	jr	ra
9d0099e4:	27bd0028 	addiu	sp,sp,40
9d0099e8:	1000ffea 	b	9d009994 <_sbrk_init+0xd8>
9d0099ec:	02001025 	move	v0,s0
9d0099f0:	1085ffef 	beq	a0,a1,9d0099b0 <_sbrk_init+0xf4>
9d0099f4:	3c048000 	lui	a0,0x8000
9d0099f8:	1000fff1 	b	9d0099c0 <_sbrk_init+0x104>
9d0099fc:	ae420348 	sw	v0,840(s2)
9d009a00:	1460ffe4 	bnez	v1,9d009994 <_sbrk_init+0xd8>
9d009a04:	02201825 	move	v1,s1
9d009a08:	1000ffde 	b	9d009984 <_sbrk_init+0xc8>
9d009a0c:	0202202b 	sltu	a0,s0,v0

Disassembly of section .text.__read_int:

9d009a10 <__read_int>:
9d009a10:	27bdffc8 	addiu	sp,sp,-56
9d009a14:	afb50028 	sw	s5,40(sp)
9d009a18:	8cb50008 	lw	s5,8(a1)
9d009a1c:	afb40024 	sw	s4,36(sp)
9d009a20:	afb30020 	sw	s3,32(sp)
9d009a24:	afb2001c 	sw	s2,28(sp)
9d009a28:	afb10018 	sw	s1,24(sp)
9d009a2c:	afbf0034 	sw	ra,52(sp)
9d009a30:	afb70030 	sw	s7,48(sp)
9d009a34:	afb6002c 	sw	s6,44(sp)
9d009a38:	afb00014 	sw	s0,20(sp)
9d009a3c:	00808825 	move	s1,a0
9d009a40:	00c09025 	move	s2,a2
9d009a44:	8cb40010 	lw	s4,16(a1)
9d009a48:	0f402a74 	jal	9d00a9d0 <__skipws>
9d009a4c:	8cb3000c 	lw	s3,12(a1)
9d009a50:	52a00001 	beqzl	s5,9d009a58 <__read_int+0x48>
9d009a54:	2695ffff 	addiu	s5,s4,-1
9d009a58:	8e430000 	lw	v1,0(s2)
9d009a5c:	00008025 	move	s0,zero
9d009a60:	2694ffff 	addiu	s4,s4,-1
9d009a64:	00621821 	addu	v1,v1,v0
9d009a68:	ae430000 	sw	v1,0(s2)
9d009a6c:	2416ffff 	li	s6,-1
9d009a70:	2417fffd 	li	s7,-3
9d009a74:	0215102a 	slt	v0,s0,s5
9d009a78:	1040001b 	beqz	v0,9d009ae8 <__read_int+0xd8>
9d009a7c:	0214102a 	slt	v0,s0,s4
9d009a80:	5040001a 	beqzl	v0,9d009aec <__read_int+0xdc>
9d009a84:	02708021 	addu	s0,s3,s0
9d009a88:	8e22003c 	lw	v0,60(s1)
9d009a8c:	8e23004c 	lw	v1,76(s1)
9d009a90:	0043182b 	sltu	v1,v0,v1
9d009a94:	1060000e 	beqz	v1,9d009ad0 <__read_int+0xc0>
9d009a98:	24430001 	addiu	v1,v0,1
9d009a9c:	ae23003c 	sw	v1,60(s1)
9d009aa0:	90420000 	lbu	v0,0(v0)
9d009aa4:	2443ffd5 	addiu	v1,v0,-43
9d009aa8:	00771824 	and	v1,v1,s7
9d009aac:	00701825 	or	v1,v1,s0
9d009ab0:	1460001b 	bnez	v1,9d009b20 <__read_int+0x110>
9d009ab4:	2443ffd0 	addiu	v1,v0,-48
9d009ab8:	a2620000 	sb	v0,0(s3)
9d009abc:	8e420000 	lw	v0,0(s2)
9d009ac0:	24100001 	li	s0,1
9d009ac4:	24420001 	addiu	v0,v0,1
9d009ac8:	1000ffea 	b	9d009a74 <__read_int+0x64>
9d009acc:	ae420000 	sw	v0,0(s2)
9d009ad0:	0f402a47 	jal	9d00a91c <__shgetc>
9d009ad4:	02202025 	move	a0,s1
9d009ad8:	1456fff3 	bne	v0,s6,9d009aa8 <__read_int+0x98>
9d009adc:	2443ffd5 	addiu	v1,v0,-43
9d009ae0:	12000005 	beqz	s0,9d009af8 <__read_int+0xe8>
9d009ae4:	8fbf0034 	lw	ra,52(sp)
9d009ae8:	02708021 	addu	s0,s3,s0
9d009aec:	a2000000 	sb	zero,0(s0)
9d009af0:	00001025 	move	v0,zero
9d009af4:	8fbf0034 	lw	ra,52(sp)
9d009af8:	8fb70030 	lw	s7,48(sp)
9d009afc:	8fb6002c 	lw	s6,44(sp)
9d009b00:	8fb50028 	lw	s5,40(sp)
9d009b04:	8fb40024 	lw	s4,36(sp)
9d009b08:	8fb30020 	lw	s3,32(sp)
9d009b0c:	8fb2001c 	lw	s2,28(sp)
9d009b10:	8fb10018 	lw	s1,24(sp)
9d009b14:	8fb00014 	lw	s0,20(sp)
9d009b18:	03e00008 	jr	ra
9d009b1c:	27bd0038 	addiu	sp,sp,56
9d009b20:	2c63000a 	sltiu	v1,v1,10
9d009b24:	54600008 	bnezl	v1,9d009b48 <__read_int+0x138>
9d009b28:	02701821 	addu	v1,s3,s0
9d009b2c:	8e22004c 	lw	v0,76(s1)
9d009b30:	5040ffee 	beqzl	v0,9d009aec <__read_int+0xdc>
9d009b34:	02708021 	addu	s0,s3,s0
9d009b38:	8e22003c 	lw	v0,60(s1)
9d009b3c:	2442ffff 	addiu	v0,v0,-1
9d009b40:	1000ffe9 	b	9d009ae8 <__read_int+0xd8>
9d009b44:	ae22003c 	sw	v0,60(s1)
9d009b48:	a0620000 	sb	v0,0(v1)
9d009b4c:	8e420000 	lw	v0,0(s2)
9d009b50:	26100001 	addiu	s0,s0,1
9d009b54:	24420001 	addiu	v0,v0,1
9d009b58:	1000ffc6 	b	9d009a74 <__read_int+0x64>
9d009b5c:	ae420000 	sw	v0,0(s2)

Disassembly of section .text:

9d009b60 <blink>:

// blink the LEDs
void blink(int iterations, int time_ms){
	int i;
	unsigned int t;
	for (i=0; i< iterations; i++){
9d009b60:	18800029 	blez	a0,9d009c08 <blink+0xa8>
9d009b64:	00051040 	sll	v0,a1,0x1
void blink(int iterations, int time_ms){
9d009b68:	27bdfff8 	addiu	sp,sp,-8
9d009b6c:	afbf0004 	sw	ra,4(sp)
		NU32DIP_YELLOW = 1; // off
		t = _CP0_GET_COUNT(); // should really check for overflow here
		// the core timer ticks at half the SYSCLK, so 24000000 times per second
		// so each millisecond is 24000 ticks
		// wait half in each delay
		while(_CP0_GET_COUNT() < t + 12000*time_ms){}
9d009b70:	00451021 	addu	v0,v0,a1
9d009b74:	00021100 	sll	v0,v0,0x4
9d009b78:	00451023 	subu	v0,v0,a1
9d009b7c:	000210c0 	sll	v0,v0,0x3
9d009b80:	00452823 	subu	a1,v0,a1
9d009b84:	00052940 	sll	a1,a1,0x5
	for (i=0; i< iterations; i++){
9d009b88:	00001825 	move	v1,zero
		NU32DIP_GREEN = 0; // on
9d009b8c:	3c02bf88 	lui	v0,0xbf88
		NU32DIP_YELLOW = 1; // off
9d009b90:	24080001 	li	t0,1
		NU32DIP_GREEN = 0; // on
9d009b94:	94466130 	lhu	a2,24880(v0)
9d009b98:	7c062104 	ins	a2,zero,0x4,0x1
9d009b9c:	a4466130 	sh	a2,24880(v0)
		NU32DIP_YELLOW = 1; // off
9d009ba0:	94466130 	lhu	a2,24880(v0)
9d009ba4:	7d062944 	ins	a2,t0,0x5,0x1
9d009ba8:	a4466130 	sh	a2,24880(v0)
		t = _CP0_GET_COUNT(); // should really check for overflow here
9d009bac:	40064800 	mfc0	a2,c0_count
		while(_CP0_GET_COUNT() < t + 12000*time_ms){}
9d009bb0:	00a63021 	addu	a2,a1,a2
9d009bb4:	40074800 	mfc0	a3,c0_count
9d009bb8:	00e6382b 	sltu	a3,a3,a2
9d009bbc:	14e0fffd 	bnez	a3,9d009bb4 <blink+0x54>
9d009bc0:	00000000 	nop
		
		NU32DIP_GREEN = 1; // off
9d009bc4:	94466130 	lhu	a2,24880(v0)
9d009bc8:	7d062104 	ins	a2,t0,0x4,0x1
9d009bcc:	a4466130 	sh	a2,24880(v0)
		NU32DIP_YELLOW = 0; // on
9d009bd0:	94466130 	lhu	a2,24880(v0)
9d009bd4:	7c062944 	ins	a2,zero,0x5,0x1
9d009bd8:	a4466130 	sh	a2,24880(v0)
		t = _CP0_GET_COUNT(); // should really check for overflow here
9d009bdc:	40064800 	mfc0	a2,c0_count
		while(_CP0_GET_COUNT() < t + 12000*time_ms){}
9d009be0:	00a63021 	addu	a2,a1,a2
9d009be4:	40074800 	mfc0	a3,c0_count
9d009be8:	00e6382b 	sltu	a3,a3,a2
9d009bec:	14e0fffd 	bnez	a3,9d009be4 <blink+0x84>
9d009bf0:	00000000 	nop
	for (i=0; i< iterations; i++){
9d009bf4:	24630001 	addiu	v1,v1,1
9d009bf8:	1483ffe6 	bne	a0,v1,9d009b94 <blink+0x34>
9d009bfc:	8fbf0004 	lw	ra,4(sp)
	}
}
9d009c00:	03e00008 	jr	ra
9d009c04:	27bd0008 	addiu	sp,sp,8
9d009c08:	03e00008 	jr	ra
9d009c0c:	00000000 	nop

9d009c10 <main>:
int main(void) {
9d009c10:	27bdff70 	addiu	sp,sp,-144
9d009c14:	afbf008c 	sw	ra,140(sp)
9d009c18:	afb20088 	sw	s2,136(sp)
9d009c1c:	afb10084 	sw	s1,132(sp)
  NU32DIP_Startup(); // cache on, interrupts on, LED/button init, UART init
9d009c20:	0f4023f0 	jal	9d008fc0 <NU32DIP_Startup>
9d009c24:	afb00080 	sw	s0,128(sp)
    NU32DIP_WriteUART1("\r\n"); // carriage return and newline
9d009c28:	3c119d00 	lui	s1,0x9d00
9d009c2c:	26317490 	addiu	s1,s1,29840
    sscanf(message, "%d %d", &number1, &number2);
9d009c30:	3c109d00 	lui	s0,0x9d00
9d009c34:	26107494 	addiu	s0,s0,29844
	if (NU32DIP_USER){
9d009c38:	3c12bf88 	lui	s2,0xbf88
    NU32DIP_ReadUART1(message, 100); // wait here until get message from computer
9d009c3c:	24050064 	li	a1,100
9d009c40:	0f402438 	jal	9d0090e0 <NU32DIP_ReadUART1>
9d009c44:	27a40010 	addiu	a0,sp,16
    NU32DIP_WriteUART1(message); // send message back
9d009c48:	0f402451 	jal	9d009144 <NU32DIP_WriteUART1>
9d009c4c:	27a40010 	addiu	a0,sp,16
    NU32DIP_WriteUART1("\r\n"); // carriage return and newline
9d009c50:	0f402451 	jal	9d009144 <NU32DIP_WriteUART1>
9d009c54:	02202025 	move	a0,s1
    sscanf(message, "%d %d", &number1, &number2);
9d009c58:	27a70078 	addiu	a3,sp,120
9d009c5c:	27a60074 	addiu	a2,sp,116
9d009c60:	02002825 	move	a1,s0
9d009c64:	0f403006 	jal	9d00c018 <_dsscanf_cdnopuxX>
9d009c68:	27a40010 	addiu	a0,sp,16
	if (NU32DIP_USER){
9d009c6c:	8e426020 	lw	v0,24608(s2)
9d009c70:	7c420100 	ext	v0,v0,0x4,0x1
9d009c74:	50400006 	beqzl	v0,9d009c90 <main+0x80>
9d009c78:	240501f4 	li	a1,500
        blink(number1, number2);
9d009c7c:	8fa50078 	lw	a1,120(sp)
9d009c80:	0f4026d8 	jal	9d009b60 <blink>
9d009c84:	8fa40074 	lw	a0,116(sp)
9d009c88:	1000ffed 	b	9d009c40 <main+0x30>
9d009c8c:	24050064 	li	a1,100
        blink(5, 500); // 5 times, 500ms each time
9d009c90:	0f4026d8 	jal	9d009b60 <blink>
9d009c94:	24040005 	li	a0,5
    NU32DIP_ReadUART1(message, 100); // wait here until get message from computer
9d009c98:	1000ffe9 	b	9d009c40 <main+0x30>
9d009c9c:	24050064 	li	a1,100

Disassembly of section .text.read:

9d009ca0 <read>:
9d009ca0:	50a0004a 	beqzl	a1,9d009dcc <read+0x12c>
9d009ca4:	00002025 	move	a0,zero
9d009ca8:	50c00048 	beqzl	a2,9d009dcc <read+0x12c>
9d009cac:	00002025 	move	a0,zero
9d009cb0:	27bdffe0 	addiu	sp,sp,-32
9d009cb4:	afb10014 	sw	s1,20(sp)
9d009cb8:	afbf001c 	sw	ra,28(sp)
9d009cbc:	afb20018 	sw	s2,24(sp)
9d009cc0:	afb00010 	sw	s0,16(sp)
9d009cc4:	1480000b 	bnez	a0,9d009cf4 <read+0x54>
9d009cc8:	00c08825 	move	s1,a2
9d009ccc:	3c020000 	lui	v0,0x0
9d009cd0:	24420000 	addiu	v0,v0,0
9d009cd4:	1040000f 	beqz	v0,9d009d14 <read+0x74>
9d009cd8:	00a08025 	move	s0,a1
9d009cdc:	00a69021 	addu	s2,a1,a2
9d009ce0:	0c000000 	jal	90000000 <_bmxdudba_address+0x8fff0000>
9d009ce4:	24040001 	li	a0,1
9d009ce8:	26100001 	addiu	s0,s0,1
9d009cec:	1650fffc 	bne	s2,s0,9d009ce0 <read+0x40>
9d009cf0:	a202ffff 	sb	v0,-1(s0)
9d009cf4:	02202025 	move	a0,s1
9d009cf8:	8fbf001c 	lw	ra,28(sp)
9d009cfc:	00801025 	move	v0,a0
9d009d00:	8fb20018 	lw	s2,24(sp)
9d009d04:	8fb10014 	lw	s1,20(sp)
9d009d08:	8fb00010 	lw	s0,16(sp)
9d009d0c:	03e00008 	jr	ra
9d009d10:	27bd0020 	addiu	sp,sp,32
9d009d14:	3c03bf80 	lui	v1,0xbf80
9d009d18:	24626010 	addiu	v0,v1,24592
9d009d1c:	1040fff6 	beqz	v0,9d009cf8 <read+0x58>
9d009d20:	3c03a000 	lui	v1,0xa000
9d009d24:	8c640000 	lw	a0,0(v1)
9d009d28:	24030002 	li	v1,2
9d009d2c:	1083001d 	beq	a0,v1,9d009da4 <read+0x104>
9d009d30:	3c03bf80 	lui	v1,0xbf80
9d009d34:	3c03bf80 	lui	v1,0xbf80
9d009d38:	8c646000 	lw	a0,24576(v1)
9d009d3c:	3c03bf80 	lui	v1,0xbf80
9d009d40:	24636030 	addiu	v1,v1,24624
9d009d44:	30848000 	andi	a0,a0,0x8000
9d009d48:	14800003 	bnez	a0,9d009d58 <read+0xb8>
9d009d4c:	3c04bf80 	lui	a0,0xbf80
9d009d50:	34058000 	li	a1,0x8000
9d009d54:	ac856008 	sw	a1,24584(a0)
9d009d58:	02202025 	move	a0,s1
9d009d5c:	240500a1 	li	a1,161
9d009d60:	8c460000 	lw	a2,0(v0)
9d009d64:	30c60001 	andi	a2,a2,0x1
9d009d68:	14c00003 	bnez	a2,9d009d78 <read+0xd8>
9d009d6c:	24a5ffff 	addiu	a1,a1,-1
9d009d70:	14a0fffb 	bnez	a1,9d009d60 <read+0xc0>
9d009d74:	00000000 	nop
9d009d78:	8c450000 	lw	a1,0(v0)
9d009d7c:	30a50001 	andi	a1,a1,0x1
9d009d80:	54a0ffdc 	bnezl	a1,9d009cf4 <read+0x54>
9d009d84:	02248823 	subu	s1,s1,a0
9d009d88:	8c650000 	lw	a1,0(v1)
9d009d8c:	26100001 	addiu	s0,s0,1
9d009d90:	2484ffff 	addiu	a0,a0,-1
9d009d94:	1480fff1 	bnez	a0,9d009d5c <read+0xbc>
9d009d98:	a205ffff 	sb	a1,-1(s0)
9d009d9c:	1000ffd5 	b	9d009cf4 <read+0x54>
9d009da0:	02248823 	subu	s1,s1,a0
9d009da4:	24636240 	addiu	v1,v1,25152
9d009da8:	5060ffe3 	beqzl	v1,9d009d38 <read+0x98>
9d009dac:	3c03bf80 	lui	v1,0xbf80
9d009db0:	3c02bf80 	lui	v0,0xbf80
9d009db4:	8c446200 	lw	a0,25088(v0)
9d009db8:	3c03bf80 	lui	v1,0xbf80
9d009dbc:	3c02bf80 	lui	v0,0xbf80
9d009dc0:	24636230 	addiu	v1,v1,25136
9d009dc4:	1000ffdf 	b	9d009d44 <read+0xa4>
9d009dc8:	24426210 	addiu	v0,v0,25104
9d009dcc:	03e00008 	jr	ra
9d009dd0:	00801025 	move	v0,a0

Disassembly of section .dinit:

9d009dd4 <.dinit>:
9d009dd4:	a0000004 	sb	zero,4(zero)
9d009dd8:	00000060 	0x60
9d009ddc:	00000001 	movf	zero,zero,$fcc0
9d009de0:	00000001 	movf	zero,zero,$fcc0
9d009de4:	00000003 	sra	zero,zero,0x0
	...
9d009dfc:	9d00a7a4 	0x9d00a7a4
	...
9d009e0c:	9d00c0a8 	0x9d00c0a8
9d009e10:	9d00ae58 	0x9d00ae58
	...
9d009e40:	a00000c4 	sb	zero,196(zero)
9d009e44:	00000004 	sllv	zero,zero,zero
9d009e48:	00000000 	nop
9d009e4c:	a0000064 	sb	zero,100(zero)
9d009e50:	00000060 	0x60
9d009e54:	00000001 	movf	zero,zero,$fcc0
9d009e58:	00000001 	movf	zero,zero,$fcc0
9d009e5c:	00000003 	sra	zero,zero,0x0
	...
9d009e74:	9d00a7a4 	0x9d00a7a4
	...
9d009e84:	9d00c0a8 	0x9d00c0a8
9d009e88:	9d00ae58 	0x9d00ae58
	...
9d009eb8:	a00000c8 	sb	zero,200(zero)
9d009ebc:	00000210 	0x210
9d009ec0:	00000000 	nop
9d009ec4:	a00002d8 	sb	zero,728(zero)
9d009ec8:	00000050 	0x50
9d009ecc:	00000000 	nop
9d009ed0:	a0000328 	sb	zero,808(zero)
9d009ed4:	00000024 	and	zero,zero,zero
9d009ed8:	00000000 	nop
9d009edc:	a0000000 	sb	zero,0(zero)
9d009ee0:	00000004 	sllv	zero,zero,zero
9d009ee4:	00000001 	movf	zero,zero,$fcc0
9d009ee8:	00000002 	srl	zero,zero,0x0
9d009eec:	a000034c 	sb	zero,844(zero)
9d009ef0:	00000004 	sllv	zero,zero,zero
	...
9d009efc:	44444444 	0x44444444
9d009f00:	44444444 	0x44444444

Disassembly of section .text._mon_putc:

9d009f04 <_mon_putc>:
9d009f04:	3c02a000 	lui	v0,0xa000
9d009f08:	8c430000 	lw	v1,0(v0)
9d009f0c:	14600013 	bnez	v1,9d009f5c <_mon_putc+0x58>
9d009f10:	00803025 	move	a2,a0
9d009f14:	3c020000 	lui	v0,0x0
9d009f18:	27bdffe8 	addiu	sp,sp,-24
9d009f1c:	24420000 	addiu	v0,v0,0
9d009f20:	10400006 	beqz	v0,9d009f3c <_mon_putc+0x38>
9d009f24:	afbf0014 	sw	ra,20(sp)
9d009f28:	0c000000 	jal	90000000 <_bmxdudba_address+0x8fff0000>
9d009f2c:	00000000 	nop
9d009f30:	8fbf0014 	lw	ra,20(sp)
9d009f34:	03e00008 	jr	ra
9d009f38:	27bd0018 	addiu	sp,sp,24
9d009f3c:	3c020000 	lui	v0,0x0
9d009f40:	24420000 	addiu	v0,v0,0
9d009f44:	10400025 	beqz	v0,9d009fdc <_mon_putc+0xd8>
9d009f48:	3c05bf80 	lui	a1,0xbf80
9d009f4c:	0c000000 	jal	90000000 <_bmxdudba_address+0x8fff0000>
9d009f50:	00000000 	nop
9d009f54:	1000fff7 	b	9d009f34 <_mon_putc+0x30>
9d009f58:	8fbf0014 	lw	ra,20(sp)
9d009f5c:	3c02bf80 	lui	v0,0xbf80
9d009f60:	24426010 	addiu	v0,v0,24592
9d009f64:	1040002f 	beqz	v0,9d00a024 <_mon_putc+0x120>
9d009f68:	00000000 	nop
9d009f6c:	24040001 	li	a0,1
9d009f70:	14640012 	bne	v1,a0,9d009fbc <_mon_putc+0xb8>
9d009f74:	3c03bf80 	lui	v1,0xbf80
9d009f78:	3c03bf80 	lui	v1,0xbf80
9d009f7c:	3c04bf80 	lui	a0,0xbf80
9d009f80:	3c05bf80 	lui	a1,0xbf80
9d009f84:	24636020 	addiu	v1,v1,24608
9d009f88:	24846018 	addiu	a0,a0,24600
9d009f8c:	24a56008 	addiu	a1,a1,24584
9d009f90:	34078000 	li	a3,0x8000
9d009f94:	aca70000 	sw	a3,0(a1)
9d009f98:	24050400 	li	a1,1024
9d009f9c:	ac850000 	sw	a1,0(a0)
9d009fa0:	8c440000 	lw	a0,0(v0)
9d009fa4:	30840100 	andi	a0,a0,0x100
9d009fa8:	1080fffd 	beqz	a0,9d009fa0 <_mon_putc+0x9c>
9d009fac:	00000000 	nop
9d009fb0:	ac660000 	sw	a2,0(v1)
9d009fb4:	03e00008 	jr	ra
9d009fb8:	00000000 	nop
9d009fbc:	3c04bf80 	lui	a0,0xbf80
9d009fc0:	3c05bf80 	lui	a1,0xbf80
9d009fc4:	3c02bf80 	lui	v0,0xbf80
9d009fc8:	24636220 	addiu	v1,v1,25120
9d009fcc:	24846218 	addiu	a0,a0,25112
9d009fd0:	24a56208 	addiu	a1,a1,25096
9d009fd4:	1000ffee 	b	9d009f90 <_mon_putc+0x8c>
9d009fd8:	24426210 	addiu	v0,v0,25104
9d009fdc:	24a56208 	addiu	a1,a1,25096
9d009fe0:	3c04bf80 	lui	a0,0xbf80
9d009fe4:	34078000 	li	a3,0x8000
9d009fe8:	aca70000 	sw	a3,0(a1)
9d009fec:	3c03bf80 	lui	v1,0xbf80
9d009ff0:	24846218 	addiu	a0,a0,25112
9d009ff4:	3c02bf80 	lui	v0,0xbf80
9d009ff8:	24050400 	li	a1,1024
9d009ffc:	24636220 	addiu	v1,v1,25120
9d00a000:	24426210 	addiu	v0,v0,25104
9d00a004:	ac850000 	sw	a1,0(a0)
9d00a008:	8c440000 	lw	a0,0(v0)
9d00a00c:	30840100 	andi	a0,a0,0x100
9d00a010:	1080fffd 	beqz	a0,9d00a008 <_mon_putc+0x104>
9d00a014:	00000000 	nop
9d00a018:	ac660000 	sw	a2,0(v1)
9d00a01c:	1000ffc5 	b	9d009f34 <_mon_putc+0x30>
9d00a020:	8fbf0014 	lw	ra,20(sp)
9d00a024:	03e00008 	jr	ra
9d00a028:	00000000 	nop

Disassembly of section .text.realloc:

9d00a02c <realloc>:
9d00a02c:	27bdffd8 	addiu	sp,sp,-40
9d00a030:	afbf0024 	sw	ra,36(sp)
9d00a034:	afb40020 	sw	s4,32(sp)
9d00a038:	afb3001c 	sw	s3,28(sp)
9d00a03c:	afb20018 	sw	s2,24(sp)
9d00a040:	afb10014 	sw	s1,20(sp)
9d00a044:	afb00010 	sw	s0,16(sp)
9d00a048:	1480000d 	bnez	a0,9d00a080 <realloc+0x54>
9d00a04c:	afa5002c 	sw	a1,44(sp)
9d00a050:	0f4022d0 	jal	9d008b40 <malloc>
9d00a054:	00a02025 	move	a0,a1
9d00a058:	00408825 	move	s1,v0
9d00a05c:	8fbf0024 	lw	ra,36(sp)
9d00a060:	02201025 	move	v0,s1
9d00a064:	8fb40020 	lw	s4,32(sp)
9d00a068:	8fb3001c 	lw	s3,28(sp)
9d00a06c:	8fb20018 	lw	s2,24(sp)
9d00a070:	8fb10014 	lw	s1,20(sp)
9d00a074:	8fb00010 	lw	s0,16(sp)
9d00a078:	03e00008 	jr	ra
9d00a07c:	27bd0028 	addiu	sp,sp,40
9d00a080:	00808025 	move	s0,a0
9d00a084:	0f402df5 	jal	9d00b7d4 <adjust_size>
9d00a088:	27a4002c 	addiu	a0,sp,44
9d00a08c:	0440002b 	bltz	v0,9d00a13c <realloc+0x110>
9d00a090:	2413fffe 	li	s3,-2
9d00a094:	8e02fffc 	lw	v0,-4(s0)
9d00a098:	2614fff8 	addiu	s4,s0,-8
9d00a09c:	00539024 	and	s2,v0,s3
9d00a0a0:	02928821 	addu	s1,s4,s2
9d00a0a4:	8e230000 	lw	v1,0(s1)
9d00a0a8:	10430003 	beq	v0,v1,9d00a0b8 <realloc+0x8c>
9d00a0ac:	8fa2002c 	lw	v0,44(sp)
9d00a0b0:	a0000000 	sb	zero,0(zero)
9d00a0b4:	00000034 	teq	zero,zero
9d00a0b8:	0242102b 	sltu	v0,s2,v0
9d00a0bc:	10400009 	beqz	v0,9d00a0e4 <realloc+0xb8>
9d00a0c0:	02401825 	move	v1,s2
9d00a0c4:	0f402d32 	jal	9d00b4c8 <alloc_fwd>
9d00a0c8:	02202025 	move	a0,s1
9d00a0cc:	10400005 	beqz	v0,9d00a0e4 <realloc+0xb8>
9d00a0d0:	02401825 	move	v1,s2
9d00a0d4:	8e220004 	lw	v0,4(s1)
9d00a0d8:	02629824 	and	s3,s3,v0
9d00a0dc:	02721821 	addu	v1,s3,s2
9d00a0e0:	02338821 	addu	s1,s1,s3
9d00a0e4:	8fa5002c 	lw	a1,44(sp)
9d00a0e8:	34620001 	ori	v0,v1,0x1
9d00a0ec:	ae02fffc 	sw	v0,-4(s0)
9d00a0f0:	0065182b 	sltu	v1,v1,a1
9d00a0f4:	14600005 	bnez	v1,9d00a10c <realloc+0xe0>
9d00a0f8:	ae220000 	sw	v0,0(s1)
9d00a0fc:	0f402e0b 	jal	9d00b82c <trim>
9d00a100:	02802025 	move	a0,s4
9d00a104:	1000ffd5 	b	9d00a05c <realloc+0x30>
9d00a108:	02008825 	move	s1,s0
9d00a10c:	0f4022d0 	jal	9d008b40 <malloc>
9d00a110:	24a4fff8 	addiu	a0,a1,-8
9d00a114:	1040ffd1 	beqz	v0,9d00a05c <realloc+0x30>
9d00a118:	00408825 	move	s1,v0
9d00a11c:	2646fff8 	addiu	a2,s2,-8
9d00a120:	02002825 	move	a1,s0
9d00a124:	0f402fda 	jal	9d00bf68 <memcpy>
9d00a128:	00402025 	move	a0,v0
9d00a12c:	0f402460 	jal	9d009180 <free>
9d00a130:	02002025 	move	a0,s0
9d00a134:	1000ffca 	b	9d00a060 <realloc+0x34>
9d00a138:	8fbf0024 	lw	ra,36(sp)
9d00a13c:	1000ffc7 	b	9d00a05c <realloc+0x30>
9d00a140:	00008825 	move	s1,zero

Disassembly of section .rodata:

9d00a144 <table-0xc>:
9d00a144:	04020100 	bltzl	zero,9d00a548 <_general_exception_context+0x10>
9d00a148:	05060307 	0x5060307
9d00a14c:	00000000 	nop

9d00a150 <table>:
9d00a150:	ffffffff ffffffff ffffffff ffffffff     ................
9d00a160:	ffffffff ffffffff ffffffff ffffffff     ................
9d00a170:	ffffffff ffffffff ffffffff ffffffff     ................
9d00a180:	020100ff 06050403 ff090807 ffffffff     ................
9d00a190:	0b0affff 0f0e0d0c 13121110 17161514     ................
9d00a1a0:	1b1a1918 1f1e1d1c 23222120 ffffffff     ........ !"#....
9d00a1b0:	0b0affff 0f0e0d0c 13121110 17161514     ................
9d00a1c0:	1b1a1918 1f1e1d1c 23222120 ffffffff     ........ !"#....
9d00a1d0:	ffffffff ffffffff ffffffff ffffffff     ................
9d00a1e0:	ffffffff ffffffff ffffffff ffffffff     ................
9d00a1f0:	ffffffff ffffffff ffffffff ffffffff     ................
9d00a200:	ffffffff ffffffff ffffffff ffffffff     ................
9d00a210:	ffffffff ffffffff ffffffff ffffffff     ................
9d00a220:	ffffffff ffffffff ffffffff ffffffff     ................
9d00a230:	ffffffff ffffffff ffffffff ffffffff     ................
9d00a240:	ffffffff ffffffff ffffffff ffffffff     ................
9d00a250:	000000ff                                ....

Disassembly of section .text.__pad:

9d00a254 <__pad>:
9d00a254:	27bdffc0 	addiu	sp,sp,-64
9d00a258:	afb3002c 	sw	s3,44(sp)
9d00a25c:	8fb30050 	lw	s3,80(sp)
9d00a260:	afb60038 	sw	s6,56(sp)
9d00a264:	afb40030 	sw	s4,48(sp)
9d00a268:	32730001 	andi	s3,s3,0x1
9d00a26c:	afb20028 	sw	s2,40(sp)
9d00a270:	afb10024 	sw	s1,36(sp)
9d00a274:	afb00020 	sw	s0,32(sp)
9d00a278:	afbf003c 	sw	ra,60(sp)
9d00a27c:	afb50034 	sw	s5,52(sp)
9d00a280:	00809025 	move	s2,a0
9d00a284:	00a0b025 	move	s6,a1
9d00a288:	00c08025 	move	s0,a2
9d00a28c:	00e08825 	move	s1,a3
9d00a290:	16600003 	bnez	s3,9d00a2a0 <__pad+0x4c>
9d00a294:	00c7a02b 	sltu	s4,a2,a3
9d00a298:	56800013 	bnezl	s4,9d00a2e8 <__pad+0x94>
9d00a29c:	0230a023 	subu	s4,s1,s0
9d00a2a0:	02003025 	move	a2,s0
9d00a2a4:	02c02825 	move	a1,s6
9d00a2a8:	0f402be0 	jal	9d00af80 <__out>
9d00a2ac:	02402025 	move	a0,s2
9d00a2b0:	1680000d 	bnez	s4,9d00a2e8 <__pad+0x94>
9d00a2b4:	0230a023 	subu	s4,s1,s0
9d00a2b8:	02008825 	move	s1,s0
9d00a2bc:	8fbf003c 	lw	ra,60(sp)
9d00a2c0:	02201025 	move	v0,s1
9d00a2c4:	8fb60038 	lw	s6,56(sp)
9d00a2c8:	8fb50034 	lw	s5,52(sp)
9d00a2cc:	8fb40030 	lw	s4,48(sp)
9d00a2d0:	8fb3002c 	lw	s3,44(sp)
9d00a2d4:	8fb20028 	lw	s2,40(sp)
9d00a2d8:	8fb10024 	lw	s1,36(sp)
9d00a2dc:	8fb00020 	lw	s0,32(sp)
9d00a2e0:	03e00008 	jr	ra
9d00a2e4:	27bd0040 	addiu	sp,sp,64
9d00a2e8:	2e860011 	sltiu	a2,s4,17
9d00a2ec:	24020010 	li	v0,16
9d00a2f0:	0286100b 	movn	v0,s4,a2
9d00a2f4:	00403025 	move	a2,v0
9d00a2f8:	24050020 	li	a1,32
9d00a2fc:	27a40010 	addiu	a0,sp,16
9d00a300:	0f403010 	jal	9d00c040 <memset>
9d00a304:	0280a825 	move	s5,s4
9d00a308:	2ea20010 	sltiu	v0,s5,16
9d00a30c:	1040000b 	beqz	v0,9d00a33c <__pad+0xe8>
9d00a310:	3286000f 	andi	a2,s4,0xf
9d00a314:	27a50010 	addiu	a1,sp,16
9d00a318:	0f402be0 	jal	9d00af80 <__out>
9d00a31c:	02402025 	move	a0,s2
9d00a320:	1660ffe6 	bnez	s3,9d00a2bc <__pad+0x68>
9d00a324:	02003025 	move	a2,s0
9d00a328:	02c02825 	move	a1,s6
9d00a32c:	0f402be0 	jal	9d00af80 <__out>
9d00a330:	02402025 	move	a0,s2
9d00a334:	1000ffe2 	b	9d00a2c0 <__pad+0x6c>
9d00a338:	8fbf003c 	lw	ra,60(sp)
9d00a33c:	24060010 	li	a2,16
9d00a340:	27a50010 	addiu	a1,sp,16
9d00a344:	0f402be0 	jal	9d00af80 <__out>
9d00a348:	02402025 	move	a0,s2
9d00a34c:	1000ffee 	b	9d00a308 <__pad+0xb4>
9d00a350:	26b5fff0 	addiu	s5,s5,-16

Disassembly of section .text.dptofp:

9d00a354 <__truncdfsf2>:
9d00a354:	00053ac0 00045d42 00eb3825 000432c0     .:..B]..%8...2..
9d00a364:	3c018000 00e13825 3c018000 00a14824     ...<%8.....<$H..
9d00a374:	00054040 00084542 2508fc80 250bffff     @@..BE.....%...%
9d00a384:	2d6100fe 10200012 00000000              ..a-.. .....

9d00a390 <Hlab1>:
9d00a390:	10c00002 	beqz	a2,9d00a39c <i45>
9d00a394:	00000000 	nop
9d00a398:	34e70001 	ori	a3,a3,0x1

9d00a39c <i45>:
9d00a39c:	24e70080 	addiu	a3,a3,128
9d00a3a0:	2ceb0080 	sltiu	t3,a3,128
9d00a3a4:	010b4021 	addu	t0,t0,t3
9d00a3a8:	00075a02 	srl	t3,a3,0x8
9d00a3ac:	316b0001 	andi	t3,t3,0x1
9d00a3b0:	00eb3823 	subu	a3,a3,t3
9d00a3b4:	00073840 	sll	a3,a3,0x1
9d00a3b8:	00073a42 	srl	a3,a3,0x9
9d00a3bc:	00085dc0 	sll	t3,t0,0x17
9d00a3c0:	00eb3825 	or	a3,a3,t3
9d00a3c4:	00e91025 	or	v0,a3,t1

9d00a3c8 <H999>:
9d00a3c8:	03e00008 	jr	ra
9d00a3cc:	00000000 	nop
9d00a3d0:	00000000 	nop

9d00a3d4 <Hspec>:
9d00a3d4:	2401047f 	li	at,1151
9d00a3d8:	15010007 	bne	t0,at,9d00a3f8 <i46>
9d00a3dc:	00000000 	nop
9d00a3e0:	00075840 	sll	t3,a3,0x1
9d00a3e4:	01665825 	or	t3,t3,a2
9d00a3e8:	11600003 	beqz	t3,9d00a3f8 <i46>
9d00a3ec:	00000000 	nop
9d00a3f0:	1000fff5 	b	9d00a3c8 <H999>
9d00a3f4:	3c02ffc0 	lui	v0,0xffc0

9d00a3f8 <i46>:
9d00a3f8:	290100ff 	slti	at,t0,255
9d00a3fc:	14200004 	bnez	at,9d00a410 <i48>
9d00a400:	00000000 	nop
9d00a404:	3c017f80 	lui	at,0x7f80
9d00a408:	1000ffef 	b	9d00a3c8 <H999>
9d00a40c:	01211025 	or	v0,t1,at

9d00a410 <i48>:
9d00a410:	240a0001 	li	t2,1
9d00a414:	01485023 	subu	t2,t2,t0
9d00a418:	2d410020 	sltiu	at,t2,32
9d00a41c:	14200003 	bnez	at,9d00a42c <i49>
9d00a420:	00000000 	nop
9d00a424:	1000ffe8 	b	9d00a3c8 <H999>
9d00a428:	00091025 	or	v0,zero,t1

9d00a42c <i49>:
9d00a42c:	240c0020 	li	t4,32
9d00a430:	018a6023 	subu	t4,t4,t2
9d00a434:	01875804 	sllv	t3,a3,t4
9d00a438:	00cb3025 	or	a2,a2,t3
9d00a43c:	01473806 	srlv	a3,a3,t2
9d00a440:	24080000 	li	t0,0
9d00a444:	3c018000 	lui	at,0x8000
9d00a448:	1000ffd1 	b	9d00a390 <Hlab1>
9d00a44c:	00e13825 	or	a3,a3,at
9d00a450:	00000000 	nop

Disassembly of section .text.__pop_ptr:

9d00a454 <__pop_ptr>:
9d00a454:	24020084 	li	v0,132
9d00a458:	50a20022 	beql	a1,v0,9d00a4e4 <__pop_ptr+0x90>
9d00a45c:	8ce20000 	lw	v0,0(a3)
9d00a460:	28a20085 	slti	v0,a1,133
9d00a464:	10400010 	beqz	v0,9d00a4a8 <__pop_ptr+0x54>
9d00a468:	24020081 	li	v0,129
9d00a46c:	50a20008 	beql	a1,v0,9d00a490 <__pop_ptr+0x3c>
9d00a470:	8ce20000 	lw	v0,0(a3)
9d00a474:	24020082 	li	v0,130
9d00a478:	50a20027 	beql	a1,v0,9d00a518 <__pop_ptr+0xc4>
9d00a47c:	8ce20000 	lw	v0,0(a3)
9d00a480:	24020080 	li	v0,128
9d00a484:	14a20010 	bne	a1,v0,9d00a4c8 <__pop_ptr+0x74>
9d00a488:	00000000 	nop
9d00a48c:	8ce20000 	lw	v0,0(a3)
9d00a490:	24430004 	addiu	v1,v0,4
9d00a494:	ace30000 	sw	v1,0(a3)
9d00a498:	8c420000 	lw	v0,0(v0)
9d00a49c:	ac820000 	sw	v0,0(a0)
9d00a4a0:	10000015 	b	9d00a4f8 <__pop_ptr+0xa4>
9d00a4a4:	ac460000 	sw	a2,0(v0)
9d00a4a8:	24020090 	li	v0,144
9d00a4ac:	50a2001a 	beql	a1,v0,9d00a518 <__pop_ptr+0xc4>
9d00a4b0:	8ce20000 	lw	v0,0(a3)
9d00a4b4:	28a20091 	slti	v0,a1,145
9d00a4b8:	10400005 	beqz	v0,9d00a4d0 <__pop_ptr+0x7c>
9d00a4bc:	24020088 	li	v0,136
9d00a4c0:	50a2000f 	beql	a1,v0,9d00a500 <__pop_ptr+0xac>
9d00a4c4:	8ce20000 	lw	v0,0(a3)
9d00a4c8:	03e00008 	jr	ra
9d00a4cc:	00001025 	move	v0,zero
9d00a4d0:	240200a0 	li	v0,160
9d00a4d4:	50a2ffee 	beql	a1,v0,9d00a490 <__pop_ptr+0x3c>
9d00a4d8:	8ce20000 	lw	v0,0(a3)
9d00a4dc:	1000ffe9 	b	9d00a484 <__pop_ptr+0x30>
9d00a4e0:	240200c0 	li	v0,192
9d00a4e4:	24430004 	addiu	v1,v0,4
9d00a4e8:	ace30000 	sw	v1,0(a3)
9d00a4ec:	8c420000 	lw	v0,0(v0)
9d00a4f0:	ac820000 	sw	v0,0(a0)
9d00a4f4:	a4460000 	sh	a2,0(v0)
9d00a4f8:	03e00008 	jr	ra
9d00a4fc:	24020001 	li	v0,1
9d00a500:	24430004 	addiu	v1,v0,4
9d00a504:	ace30000 	sw	v1,0(a3)
9d00a508:	8c420000 	lw	v0,0(v0)
9d00a50c:	ac820000 	sw	v0,0(a0)
9d00a510:	1000fff9 	b	9d00a4f8 <__pop_ptr+0xa4>
9d00a514:	a0460000 	sb	a2,0(v0)
9d00a518:	24430004 	addiu	v1,v0,4
9d00a51c:	ace30000 	sw	v1,0(a3)
9d00a520:	8c420000 	lw	v0,0(v0)
9d00a524:	ac820000 	sw	v0,0(a0)
9d00a528:	ac460000 	sw	a2,0(v0)
9d00a52c:	000637c3 	sra	a2,a2,0x1f
9d00a530:	1000fff1 	b	9d00a4f8 <__pop_ptr+0xa4>
9d00a534:	ac460004 	sw	a2,4(v0)

Disassembly of section .text.general_exception:

9d00a538 <_general_exception_context>:
9d00a538:	27bdffa8 	addiu	sp,sp,-88
9d00a53c:	afa10004 	sw	at,4(sp)
9d00a540:	afa20008 	sw	v0,8(sp)
9d00a544:	afa3000c 	sw	v1,12(sp)
9d00a548:	afa40010 	sw	a0,16(sp)
9d00a54c:	afa50014 	sw	a1,20(sp)
9d00a550:	afa60018 	sw	a2,24(sp)
9d00a554:	afa7001c 	sw	a3,28(sp)
9d00a558:	afa80020 	sw	t0,32(sp)
9d00a55c:	afa90024 	sw	t1,36(sp)
9d00a560:	afaa0028 	sw	t2,40(sp)
9d00a564:	afab002c 	sw	t3,44(sp)
9d00a568:	afac0030 	sw	t4,48(sp)
9d00a56c:	afad0034 	sw	t5,52(sp)
9d00a570:	afae0038 	sw	t6,56(sp)
9d00a574:	afaf003c 	sw	t7,60(sp)
9d00a578:	afb80040 	sw	t8,64(sp)
9d00a57c:	afb90044 	sw	t9,68(sp)
9d00a580:	afbf0048 	sw	ra,72(sp)
9d00a584:	00004012 	mflo	t0
9d00a588:	afa8004c 	sw	t0,76(sp)
9d00a58c:	00004010 	mfhi	t0
9d00a590:	afa80050 	sw	t0,80(sp)
9d00a594:	3c1a9d01 	lui	k0,0x9d01
9d00a598:	275abaac 	addiu	k0,k0,-17748
9d00a59c:	00000000 	nop
9d00a5a0:	40046800 	mfc0	a0,c0_cause
9d00a5a4:	40056000 	mfc0	a1,c0_status
9d00a5a8:	0340f809 	jalr	k0
9d00a5ac:	00000000 	nop
9d00a5b0:	8fa80050 	lw	t0,80(sp)
9d00a5b4:	01000011 	mthi	t0
9d00a5b8:	8fa8004c 	lw	t0,76(sp)
9d00a5bc:	01000013 	mtlo	t0
9d00a5c0:	8fa10004 	lw	at,4(sp)
9d00a5c4:	8fa20008 	lw	v0,8(sp)
9d00a5c8:	8fa3000c 	lw	v1,12(sp)
9d00a5cc:	8fa40010 	lw	a0,16(sp)
9d00a5d0:	8fa50014 	lw	a1,20(sp)
9d00a5d4:	8fa60018 	lw	a2,24(sp)
9d00a5d8:	8fa7001c 	lw	a3,28(sp)
9d00a5dc:	8fa80020 	lw	t0,32(sp)
9d00a5e0:	8fa90024 	lw	t1,36(sp)
9d00a5e4:	8faa0028 	lw	t2,40(sp)
9d00a5e8:	8fab002c 	lw	t3,44(sp)
9d00a5ec:	8fac0030 	lw	t4,48(sp)
9d00a5f0:	8fad0034 	lw	t5,52(sp)
9d00a5f4:	8fae0038 	lw	t6,56(sp)
9d00a5f8:	8faf003c 	lw	t7,60(sp)
9d00a5fc:	8fb80040 	lw	t8,64(sp)
9d00a600:	8fb90044 	lw	t9,68(sp)
9d00a604:	8fbf0048 	lw	ra,72(sp)
9d00a608:	27bd0058 	addiu	sp,sp,88
9d00a60c:	000000c0 	ehb
9d00a610:	42000018 	eret

Disassembly of section .text.__stdio_read:

9d00a614 <__stdio_read>:
9d00a614:	8c83000c 	lw	v1,12(a0)
9d00a618:	27bdffd0 	addiu	sp,sp,-48
9d00a61c:	afb00020 	sw	s0,32(sp)
9d00a620:	0003102b 	sltu	v0,zero,v1
9d00a624:	00c21023 	subu	v0,a2,v0
9d00a628:	00808025 	move	s0,a0
9d00a62c:	afa20014 	sw	v0,20(sp)
9d00a630:	8c820008 	lw	v0,8(a0)
9d00a634:	8c840000 	lw	a0,0(a0)
9d00a638:	afb20028 	sw	s2,40(sp)
9d00a63c:	afb10024 	sw	s1,36(sp)
9d00a640:	00a09025 	move	s2,a1
9d00a644:	00c08825 	move	s1,a2
9d00a648:	afa50010 	sw	a1,16(sp)
9d00a64c:	24060002 	li	a2,2
9d00a650:	27a50010 	addiu	a1,sp,16
9d00a654:	afbf002c 	sw	ra,44(sp)
9d00a658:	afa20018 	sw	v0,24(sp)
9d00a65c:	0f402c86 	jal	9d00b218 <readv>
9d00a660:	afa3001c 	sw	v1,28(sp)
9d00a664:	1c400007 	bgtz	v0,9d00a684 <__stdio_read+0x70>
9d00a668:	30430018 	andi	v1,v0,0x18
9d00a66c:	38640008 	xori	a0,v1,0x8
9d00a670:	8e030004 	lw	v1,4(s0)
9d00a674:	00641825 	or	v1,v1,a0
9d00a678:	ae030004 	sw	v1,4(s0)
9d00a67c:	10000011 	b	9d00a6c4 <__stdio_read+0xb0>
9d00a680:	00408825 	move	s1,v0
9d00a684:	8fa40014 	lw	a0,20(sp)
9d00a688:	0082182b 	sltu	v1,a0,v0
9d00a68c:	5060000d 	beqzl	v1,9d00a6c4 <__stdio_read+0xb0>
9d00a690:	00408825 	move	s1,v0
9d00a694:	8e030008 	lw	v1,8(s0)
9d00a698:	00441023 	subu	v0,v0,a0
9d00a69c:	00621021 	addu	v0,v1,v0
9d00a6a0:	ae020040 	sw	v0,64(s0)
9d00a6a4:	8e02000c 	lw	v0,12(s0)
9d00a6a8:	10400006 	beqz	v0,9d00a6c4 <__stdio_read+0xb0>
9d00a6ac:	ae03003c 	sw	v1,60(s0)
9d00a6b0:	24620001 	addiu	v0,v1,1
9d00a6b4:	ae02003c 	sw	v0,60(s0)
9d00a6b8:	90620000 	lbu	v0,0(v1)
9d00a6bc:	02519021 	addu	s2,s2,s1
9d00a6c0:	a242ffff 	sb	v0,-1(s2)
9d00a6c4:	8fbf002c 	lw	ra,44(sp)
9d00a6c8:	02201025 	move	v0,s1
9d00a6cc:	8fb20028 	lw	s2,40(sp)
9d00a6d0:	8fb10024 	lw	s1,36(sp)
9d00a6d4:	8fb00020 	lw	s0,32(sp)
9d00a6d8:	03e00008 	jr	ra
9d00a6dc:	27bd0030 	addiu	sp,sp,48

Disassembly of section .text.__stdio_seek_rw:

9d00a6e0 <__stdio_seek_rw>:
9d00a6e0:	27bdffe0 	addiu	sp,sp,-32
9d00a6e4:	24020001 	li	v0,1
9d00a6e8:	afb20018 	sw	s2,24(sp)
9d00a6ec:	afb10014 	sw	s1,20(sp)
9d00a6f0:	afb00010 	sw	s0,16(sp)
9d00a6f4:	afbf001c 	sw	ra,28(sp)
9d00a6f8:	00808025 	move	s0,a0
9d00a6fc:	00c09025 	move	s2,a2
9d00a700:	14c20005 	bne	a2,v0,9d00a718 <__stdio_seek_rw+0x38>
9d00a704:	00a08825 	move	s1,a1
9d00a708:	8c820040 	lw	v0,64(a0)
9d00a70c:	8c83003c 	lw	v1,60(a0)
9d00a710:	00431023 	subu	v0,v0,v1
9d00a714:	00a28823 	subu	s1,a1,v0
9d00a718:	8e020004 	lw	v0,4(s0)
9d00a71c:	30420020 	andi	v0,v0,0x20
9d00a720:	1040000a 	beqz	v0,9d00a74c <__stdio_seek_rw+0x6c>
9d00a724:	02403025 	move	a2,s2
9d00a728:	8e020014 	lw	v0,20(s0)
9d00a72c:	8e030018 	lw	v1,24(s0)
9d00a730:	0062102b 	sltu	v0,v1,v0
9d00a734:	5440000d 	bnezl	v0,9d00a76c <__stdio_seek_rw+0x8c>
9d00a738:	8e02002c 	lw	v0,44(s0)
9d00a73c:	ae000028 	sw	zero,40(s0)
9d00a740:	ae000018 	sw	zero,24(s0)
9d00a744:	ae000014 	sw	zero,20(s0)
9d00a748:	02403025 	move	a2,s2
9d00a74c:	02202825 	move	a1,s1
9d00a750:	0f402ee1 	jal	9d00bb84 <__stdio_seek_unbuffered>
9d00a754:	02002025 	move	a0,s0
9d00a758:	0440000b 	bltz	v0,9d00a788 <__stdio_seek_rw+0xa8>
9d00a75c:	00001025 	move	v0,zero
9d00a760:	ae000040 	sw	zero,64(s0)
9d00a764:	10000009 	b	9d00a78c <__stdio_seek_rw+0xac>
9d00a768:	ae00003c 	sw	zero,60(s0)
9d00a76c:	00003025 	move	a2,zero
9d00a770:	00002825 	move	a1,zero
9d00a774:	0040f809 	jalr	v0
9d00a778:	02002025 	move	a0,s0
9d00a77c:	8e020014 	lw	v0,20(s0)
9d00a780:	5440ffef 	bnezl	v0,9d00a740 <__stdio_seek_rw+0x60>
9d00a784:	ae000028 	sw	zero,40(s0)
9d00a788:	2402ffff 	li	v0,-1
9d00a78c:	8fbf001c 	lw	ra,28(sp)
9d00a790:	8fb20018 	lw	s2,24(sp)
9d00a794:	8fb10014 	lw	s1,20(sp)
9d00a798:	8fb00010 	lw	s0,16(sp)
9d00a79c:	03e00008 	jr	ra
9d00a7a0:	27bd0020 	addiu	sp,sp,32

Disassembly of section .text.__stdio_close_rw:

9d00a7a4 <__stdio_close_rw>:
9d00a7a4:	14800003 	bnez	a0,9d00a7b4 <__stdio_close_rw+0x10>
9d00a7a8:	00001025 	move	v0,zero
9d00a7ac:	03e00008 	jr	ra
9d00a7b0:	00000000 	nop
9d00a7b4:	8c820004 	lw	v0,4(a0)
9d00a7b8:	27bdffe0 	addiu	sp,sp,-32
9d00a7bc:	afb10018 	sw	s1,24(sp)
9d00a7c0:	30420020 	andi	v0,v0,0x20
9d00a7c4:	afb00014 	sw	s0,20(sp)
9d00a7c8:	afbf001c 	sw	ra,28(sp)
9d00a7cc:	00808025 	move	s0,a0
9d00a7d0:	10400009 	beqz	v0,9d00a7f8 <__stdio_close_rw+0x54>
9d00a7d4:	00a08825 	move	s1,a1
9d00a7d8:	8c820014 	lw	v0,20(a0)
9d00a7dc:	8c830018 	lw	v1,24(a0)
9d00a7e0:	0062102b 	sltu	v0,v1,v0
9d00a7e4:	54400014 	bnezl	v0,9d00a838 <__stdio_close_rw+0x94>
9d00a7e8:	8c82002c 	lw	v0,44(a0)
9d00a7ec:	ae000028 	sw	zero,40(s0)
9d00a7f0:	ae000018 	sw	zero,24(s0)
9d00a7f4:	ae000014 	sw	zero,20(s0)
9d00a7f8:	8e05003c 	lw	a1,60(s0)
9d00a7fc:	8e020040 	lw	v0,64(s0)
9d00a800:	00a2182b 	sltu	v1,a1,v0
9d00a804:	10600004 	beqz	v1,9d00a818 <__stdio_close_rw+0x74>
9d00a808:	24060001 	li	a2,1
9d00a80c:	8e040000 	lw	a0,0(s0)
9d00a810:	0f4030b6 	jal	9d00c2d8 <lseek>
9d00a814:	00a22823 	subu	a1,a1,v0
9d00a818:	ae000040 	sw	zero,64(s0)
9d00a81c:	ae00003c 	sw	zero,60(s0)
9d00a820:	1220000b 	beqz	s1,9d00a850 <__stdio_close_rw+0xac>
9d00a824:	00001025 	move	v0,zero
9d00a828:	0f4030b8 	jal	9d00c2e0 <close>
9d00a82c:	8e040000 	lw	a0,0(s0)
9d00a830:	10000008 	b	9d00a854 <__stdio_close_rw+0xb0>
9d00a834:	8fbf001c 	lw	ra,28(sp)
9d00a838:	00003025 	move	a2,zero
9d00a83c:	0040f809 	jalr	v0
9d00a840:	00002825 	move	a1,zero
9d00a844:	8e030014 	lw	v1,20(s0)
9d00a848:	1460ffe8 	bnez	v1,9d00a7ec <__stdio_close_rw+0x48>
9d00a84c:	2402ffff 	li	v0,-1
9d00a850:	8fbf001c 	lw	ra,28(sp)
9d00a854:	8fb10018 	lw	s1,24(sp)
9d00a858:	8fb00014 	lw	s0,20(sp)
9d00a85c:	03e00008 	jr	ra
9d00a860:	27bd0020 	addiu	sp,sp,32

Disassembly of section .text.strtox:

9d00a864 <strtox>:
9d00a864:	27bdff78 	addiu	sp,sp,-136
9d00a868:	afb20080 	sw	s2,128(sp)
9d00a86c:	afb1007c 	sw	s1,124(sp)
9d00a870:	afb00078 	sw	s0,120(sp)
9d00a874:	afbf0084 	sw	ra,132(sp)
9d00a878:	00808025 	move	s0,a0
9d00a87c:	00a08825 	move	s1,a1
9d00a880:	00c09025 	move	s2,a2
9d00a884:	afa0001c 	sw	zero,28(sp)
9d00a888:	afa40054 	sw	a0,84(sp)
9d00a88c:	afa40020 	sw	a0,32(sp)
9d00a890:	04800004 	bltz	a0,9d00a8a4 <strtox+0x40>
9d00a894:	2402ffff 	li	v0,-1
9d00a898:	3c027fff 	lui	v0,0x7fff
9d00a89c:	3442ffff 	ori	v0,v0,0xffff
9d00a8a0:	00821021 	addu	v0,a0,v0
9d00a8a4:	00002825 	move	a1,zero
9d00a8a8:	27a40018 	addiu	a0,sp,24
9d00a8ac:	0f402fcf 	jal	9d00bf3c <__shlim>
9d00a8b0:	afa20058 	sw	v0,88(sp)
9d00a8b4:	8fa20098 	lw	v0,152(sp)
9d00a8b8:	8fa3009c 	lw	v1,156(sp)
9d00a8bc:	02402825 	move	a1,s2
9d00a8c0:	27a40018 	addiu	a0,sp,24
9d00a8c4:	afa20010 	sw	v0,16(sp)
9d00a8c8:	afa30014 	sw	v1,20(sp)
9d00a8cc:	0f401efe 	jal	9d007bf8 <__intscan>
9d00a8d0:	24060001 	li	a2,1
9d00a8d4:	00402025 	move	a0,v0
9d00a8d8:	12200008 	beqz	s1,9d00a8fc <strtox+0x98>
9d00a8dc:	00602825 	move	a1,v1
9d00a8e0:	8fa20058 	lw	v0,88(sp)
9d00a8e4:	8fa30054 	lw	v1,84(sp)
9d00a8e8:	00621823 	subu	v1,v1,v0
9d00a8ec:	8fa2006c 	lw	v0,108(sp)
9d00a8f0:	00621821 	addu	v1,v1,v0
9d00a8f4:	02038021 	addu	s0,s0,v1
9d00a8f8:	ae300000 	sw	s0,0(s1)
9d00a8fc:	8fbf0084 	lw	ra,132(sp)
9d00a900:	00801025 	move	v0,a0
9d00a904:	00a01825 	move	v1,a1
9d00a908:	8fb20080 	lw	s2,128(sp)
9d00a90c:	8fb1007c 	lw	s1,124(sp)
9d00a910:	8fb00078 	lw	s0,120(sp)
9d00a914:	03e00008 	jr	ra
9d00a918:	27bd0088 	addiu	sp,sp,136

Disassembly of section .text.__shgetc:

9d00a91c <__shgetc>:
9d00a91c:	8c820050 	lw	v0,80(a0)
9d00a920:	27bdffe8 	addiu	sp,sp,-24
9d00a924:	afb00010 	sw	s0,16(sp)
9d00a928:	afbf0014 	sw	ra,20(sp)
9d00a92c:	1040000b 	beqz	v0,9d00a95c <__shgetc+0x40>
9d00a930:	00808025 	move	s0,a0
9d00a934:	8c830054 	lw	v1,84(a0)
9d00a938:	0062102a 	slt	v0,v1,v0
9d00a93c:	14400007 	bnez	v0,9d00a95c <__shgetc+0x40>
9d00a940:	00000000 	nop
9d00a944:	ae00004c 	sw	zero,76(s0)
9d00a948:	2402ffff 	li	v0,-1
9d00a94c:	8fbf0014 	lw	ra,20(sp)
9d00a950:	8fb00010 	lw	s0,16(sp)
9d00a954:	03e00008 	jr	ra
9d00a958:	27bd0018 	addiu	sp,sp,24
9d00a95c:	0f402e36 	jal	9d00b8d8 <__uflow>
9d00a960:	02002025 	move	a0,s0
9d00a964:	0442fff8 	bltzl	v0,9d00a948 <__shgetc+0x2c>
9d00a968:	ae00004c 	sw	zero,76(s0)
9d00a96c:	8e030040 	lw	v1,64(s0)
9d00a970:	8e040050 	lw	a0,80(s0)
9d00a974:	8e05003c 	lw	a1,60(s0)
9d00a978:	10800009 	beqz	a0,9d00a9a0 <__shgetc+0x84>
9d00a97c:	00603025 	move	a2,v1
9d00a980:	8e060054 	lw	a2,84(s0)
9d00a984:	00653823 	subu	a3,v1,a1
9d00a988:	00862023 	subu	a0,a0,a2
9d00a98c:	00e4382a 	slt	a3,a3,a0
9d00a990:	14e00003 	bnez	a3,9d00a9a0 <__shgetc+0x84>
9d00a994:	00603025 	move	a2,v1
9d00a998:	2484ffff 	addiu	a0,a0,-1
9d00a99c:	00a43021 	addu	a2,a1,a0
9d00a9a0:	10600006 	beqz	v1,9d00a9bc <__shgetc+0xa0>
9d00a9a4:	ae06004c 	sw	a2,76(s0)
9d00a9a8:	8e040054 	lw	a0,84(s0)
9d00a9ac:	00651823 	subu	v1,v1,a1
9d00a9b0:	24630001 	addiu	v1,v1,1
9d00a9b4:	00831821 	addu	v1,a0,v1
9d00a9b8:	ae030054 	sw	v1,84(s0)
9d00a9bc:	90a3ffff 	lbu	v1,-1(a1)
9d00a9c0:	5462ffe2 	bnel	v1,v0,9d00a94c <__shgetc+0x30>
9d00a9c4:	a0a2ffff 	sb	v0,-1(a1)
9d00a9c8:	1000ffe1 	b	9d00a950 <__shgetc+0x34>
9d00a9cc:	8fbf0014 	lw	ra,20(sp)

Disassembly of section .text.__skipws:

9d00a9d0 <__skipws>:
9d00a9d0:	27bdffd8 	addiu	sp,sp,-40
9d00a9d4:	afb30020 	sw	s3,32(sp)
9d00a9d8:	afb2001c 	sw	s2,28(sp)
9d00a9dc:	afb10018 	sw	s1,24(sp)
9d00a9e0:	afb00014 	sw	s0,20(sp)
9d00a9e4:	afbf0024 	sw	ra,36(sp)
9d00a9e8:	00808025 	move	s0,a0
9d00a9ec:	00008825 	move	s1,zero
9d00a9f0:	2412ffff 	li	s2,-1
9d00a9f4:	24130020 	li	s3,32
9d00a9f8:	8e02003c 	lw	v0,60(s0)
9d00a9fc:	8e03004c 	lw	v1,76(s0)
9d00aa00:	0043182b 	sltu	v1,v0,v1
9d00aa04:	10600018 	beqz	v1,9d00aa68 <__skipws+0x98>
9d00aa08:	24430001 	addiu	v1,v0,1
9d00aa0c:	ae03003c 	sw	v1,60(s0)
9d00aa10:	90420000 	lbu	v0,0(v0)
9d00aa14:	10530012 	beq	v0,s3,9d00aa60 <__skipws+0x90>
9d00aa18:	2442fff7 	addiu	v0,v0,-9
9d00aa1c:	2c420005 	sltiu	v0,v0,5
9d00aa20:	5440fff5 	bnezl	v0,9d00a9f8 <__skipws+0x28>
9d00aa24:	26310001 	addiu	s1,s1,1
9d00aa28:	8e02004c 	lw	v0,76(s0)
9d00aa2c:	10400005 	beqz	v0,9d00aa44 <__skipws+0x74>
9d00aa30:	8fbf0024 	lw	ra,36(sp)
9d00aa34:	8e02003c 	lw	v0,60(s0)
9d00aa38:	2442ffff 	addiu	v0,v0,-1
9d00aa3c:	ae02003c 	sw	v0,60(s0)
9d00aa40:	8fbf0024 	lw	ra,36(sp)
9d00aa44:	02201025 	move	v0,s1
9d00aa48:	8fb30020 	lw	s3,32(sp)
9d00aa4c:	8fb2001c 	lw	s2,28(sp)
9d00aa50:	8fb10018 	lw	s1,24(sp)
9d00aa54:	8fb00014 	lw	s0,20(sp)
9d00aa58:	03e00008 	jr	ra
9d00aa5c:	27bd0028 	addiu	sp,sp,40
9d00aa60:	1000ffe5 	b	9d00a9f8 <__skipws+0x28>
9d00aa64:	26310001 	addiu	s1,s1,1
9d00aa68:	0f402a47 	jal	9d00a91c <__shgetc>
9d00aa6c:	02002025 	move	a0,s0
9d00aa70:	1452ffe8 	bne	v0,s2,9d00aa14 <__skipws+0x44>
9d00aa74:	8fbf0024 	lw	ra,36(sp)
9d00aa78:	1000fff3 	b	9d00aa48 <__skipws+0x78>
9d00aa7c:	02201025 	move	v0,s1

Disassembly of section .text._sbrk:

9d00aa80 <_sbrk>:
9d00aa80:	27bdffe0 	addiu	sp,sp,-32
9d00aa84:	afb00014 	sw	s0,20(sp)
9d00aa88:	3c10a000 	lui	s0,0xa000
9d00aa8c:	8e020340 	lw	v0,832(s0)
9d00aa90:	afb10018 	sw	s1,24(sp)
9d00aa94:	afbf001c 	sw	ra,28(sp)
9d00aa98:	1440000f 	bnez	v0,9d00aad8 <_sbrk+0x58>
9d00aa9c:	00808825 	move	s1,a0
9d00aaa0:	0f40262f 	jal	9d0098bc <_sbrk_init>
9d00aaa4:	00000000 	nop
9d00aaa8:	8e020340 	lw	v0,832(s0)
9d00aaac:	1440000b 	bnez	v0,9d00aadc <_sbrk+0x5c>
9d00aab0:	00000000 	nop
9d00aab4:	3c02a000 	lui	v0,0xa000
9d00aab8:	2403000c 	li	v1,12
9d00aabc:	ac43034c 	sw	v1,844(v0)
9d00aac0:	2402ffff 	li	v0,-1
9d00aac4:	8fbf001c 	lw	ra,28(sp)
9d00aac8:	8fb10018 	lw	s1,24(sp)
9d00aacc:	8fb00014 	lw	s0,20(sp)
9d00aad0:	03e00008 	jr	ra
9d00aad4:	27bd0020 	addiu	sp,sp,32
9d00aad8:	8e020340 	lw	v0,832(s0)
9d00aadc:	1a20000a 	blez	s1,9d00ab08 <_sbrk+0x88>
9d00aae0:	00511821 	addu	v1,v0,s1
9d00aae4:	0062202b 	sltu	a0,v1,v0
9d00aae8:	1480fff2 	bnez	a0,9d00aab4 <_sbrk+0x34>
9d00aaec:	3c04a000 	lui	a0,0xa000
9d00aaf0:	8c840344 	lw	a0,836(a0)
9d00aaf4:	0083202b 	sltu	a0,a0,v1
9d00aaf8:	5480ffef 	bnezl	a0,9d00aab8 <_sbrk+0x38>
9d00aafc:	3c02a000 	lui	v0,0xa000
9d00ab00:	1000fff0 	b	9d00aac4 <_sbrk+0x44>
9d00ab04:	ae030340 	sw	v1,832(s0)
9d00ab08:	0043202b 	sltu	a0,v0,v1
9d00ab0c:	14800005 	bnez	a0,9d00ab24 <_sbrk+0xa4>
9d00ab10:	3c04a000 	lui	a0,0xa000
9d00ab14:	8c840348 	lw	a0,840(a0)
9d00ab18:	0064202b 	sltu	a0,v1,a0
9d00ab1c:	5080ffe9 	beqzl	a0,9d00aac4 <_sbrk+0x44>
9d00ab20:	ae030340 	sw	v1,832(s0)
9d00ab24:	3c02a000 	lui	v0,0xa000
9d00ab28:	1000ffe4 	b	9d00aabc <_sbrk+0x3c>
9d00ab2c:	24030016 	li	v1,22

Disassembly of section .text.unbin:

9d00ab30 <unbin>:
9d00ab30:	27bdffe0 	addiu	sp,sp,-32
9d00ab34:	afb20018 	sw	s2,24(sp)
9d00ab38:	afb10014 	sw	s1,20(sp)
9d00ab3c:	8c92000c 	lw	s2,12(a0)
9d00ab40:	8c910008 	lw	s1,8(a0)
9d00ab44:	afb00010 	sw	s0,16(sp)
9d00ab48:	afbf001c 	sw	ra,28(sp)
9d00ab4c:	16510013 	bne	s2,s1,9d00ab9c <unbin+0x6c>
9d00ab50:	00808025 	move	s0,a0
9d00ab54:	00a03025 	move	a2,a1
9d00ab58:	24040001 	li	a0,1
9d00ab5c:	0f402f60 	jal	9d00bd80 <__ashldi3>
9d00ab60:	00002825 	move	a1,zero
9d00ab64:	00031827 	nor	v1,zero,v1
9d00ab68:	10400005 	beqz	v0,9d00ab80 <unbin+0x50>
9d00ab6c:	00022827 	nor	a1,zero,v0
9d00ab70:	3c04a000 	lui	a0,0xa000
9d00ab74:	8c8200d0 	lw	v0,208(a0)
9d00ab78:	00451024 	and	v0,v0,a1
9d00ab7c:	ac8200d0 	sw	v0,208(a0)
9d00ab80:	2402ffff 	li	v0,-1
9d00ab84:	10620005 	beq	v1,v0,9d00ab9c <unbin+0x6c>
9d00ab88:	3c02a000 	lui	v0,0xa000
9d00ab8c:	244200d0 	addiu	v0,v0,208
9d00ab90:	8c440004 	lw	a0,4(v0)
9d00ab94:	00641824 	and	v1,v1,a0
9d00ab98:	ac430004 	sw	v1,4(v0)
9d00ab9c:	8e020004 	lw	v0,4(s0)
9d00aba0:	ae510008 	sw	s1,8(s2)
9d00aba4:	ae32000c 	sw	s2,12(s1)
9d00aba8:	34430001 	ori	v1,v0,0x1
9d00abac:	7c020004 	ins	v0,zero,0x0,0x1
9d00abb0:	ae030004 	sw	v1,4(s0)
9d00abb4:	02028021 	addu	s0,s0,v0
9d00abb8:	8e020000 	lw	v0,0(s0)
9d00abbc:	8fbf001c 	lw	ra,28(sp)
9d00abc0:	8fb20018 	lw	s2,24(sp)
9d00abc4:	34420001 	ori	v0,v0,0x1
9d00abc8:	ae020000 	sw	v0,0(s0)
9d00abcc:	8fb10014 	lw	s1,20(sp)
9d00abd0:	8fb00010 	lw	s0,16(sp)
9d00abd4:	03e00008 	jr	ra
9d00abd8:	27bd0020 	addiu	sp,sp,32

Disassembly of section .text.__push_float:

9d00abdc <__push_float>:
9d00abdc:	24020081 	li	v0,129
9d00abe0:	50a20012 	beql	a1,v0,9d00ac2c <__push_float+0x50>
9d00abe4:	8cc20000 	lw	v0,0(a2)
9d00abe8:	24020083 	li	v0,131
9d00abec:	50a20006 	beql	a1,v0,9d00ac08 <__push_float+0x2c>
9d00abf0:	8cc20000 	lw	v0,0(a2)
9d00abf4:	24020080 	li	v0,128
9d00abf8:	10a20012 	beq	a1,v0,9d00ac44 <__push_float+0x68>
9d00abfc:	00001025 	move	v0,zero
9d00ac00:	03e00008 	jr	ra
9d00ac04:	00000000 	nop
9d00ac08:	24430004 	addiu	v1,v0,4
9d00ac0c:	acc30000 	sw	v1,0(a2)
9d00ac10:	8c850004 	lw	a1,4(a0)
9d00ac14:	8c420000 	lw	v0,0(v0)
9d00ac18:	8c840000 	lw	a0,0(a0)
9d00ac1c:	ac440000 	sw	a0,0(v0)
9d00ac20:	ac450004 	sw	a1,4(v0)
9d00ac24:	03e00008 	jr	ra
9d00ac28:	24020001 	li	v0,1
9d00ac2c:	24430004 	addiu	v1,v0,4
9d00ac30:	acc30000 	sw	v1,0(a2)
9d00ac34:	8c850004 	lw	a1,4(a0)
9d00ac38:	8c420000 	lw	v0,0(v0)
9d00ac3c:	1000fff7 	b	9d00ac1c <__push_float+0x40>
9d00ac40:	8c840000 	lw	a0,0(a0)
9d00ac44:	8cc20000 	lw	v0,0(a2)
9d00ac48:	8c850004 	lw	a1,4(a0)
9d00ac4c:	8c840000 	lw	a0,0(a0)
9d00ac50:	24430004 	addiu	v1,v0,4
9d00ac54:	27bdffe8 	addiu	sp,sp,-24
9d00ac58:	acc30000 	sw	v1,0(a2)
9d00ac5c:	afb00010 	sw	s0,16(sp)
9d00ac60:	afbf0014 	sw	ra,20(sp)
9d00ac64:	0f4028d5 	jal	9d00a354 <__truncdfsf2>
9d00ac68:	8c500000 	lw	s0,0(v0)
9d00ac6c:	8fbf0014 	lw	ra,20(sp)
9d00ac70:	ae020000 	sw	v0,0(s0)
9d00ac74:	24020001 	li	v0,1
9d00ac78:	8fb00010 	lw	s0,16(sp)
9d00ac7c:	03e00008 	jr	ra
9d00ac80:	27bd0018 	addiu	sp,sp,24

Disassembly of section .text.__string_read:

9d00ac84 <__string_read>:
9d00ac84:	27bdffd0 	addiu	sp,sp,-48
9d00ac88:	afb00014 	sw	s0,20(sp)
9d00ac8c:	8c900038 	lw	s0,56(a0)
9d00ac90:	afb2001c 	sw	s2,28(sp)
9d00ac94:	24d20100 	addiu	s2,a2,256
9d00ac98:	afb50028 	sw	s5,40(sp)
9d00ac9c:	afb40024 	sw	s4,36(sp)
9d00aca0:	afb30020 	sw	s3,32(sp)
9d00aca4:	00a0a825 	move	s5,a1
9d00aca8:	00809825 	move	s3,a0
9d00acac:	00c0a025 	move	s4,a2
9d00acb0:	00002825 	move	a1,zero
9d00acb4:	02403025 	move	a2,s2
9d00acb8:	02002025 	move	a0,s0
9d00acbc:	afbf002c 	sw	ra,44(sp)
9d00acc0:	0f402f97 	jal	9d00be5c <memchr>
9d00acc4:	afb10018 	sw	s1,24(sp)
9d00acc8:	54400001 	bnezl	v0,9d00acd0 <__string_read+0x4c>
9d00accc:	00509023 	subu	s2,v0,s0
9d00acd0:	0292882b 	sltu	s1,s4,s2
9d00acd4:	0251a00a 	movz	s4,s2,s1
9d00acd8:	02803025 	move	a2,s4
9d00acdc:	02002825 	move	a1,s0
9d00ace0:	0f402fda 	jal	9d00bf68 <memcpy>
9d00ace4:	02a02025 	move	a0,s5
9d00ace8:	8fbf002c 	lw	ra,44(sp)
9d00acec:	02141021 	addu	v0,s0,s4
9d00acf0:	02128021 	addu	s0,s0,s2
9d00acf4:	ae62003c 	sw	v0,60(s3)
9d00acf8:	ae700040 	sw	s0,64(s3)
9d00acfc:	ae700038 	sw	s0,56(s3)
9d00ad00:	02801025 	move	v0,s4
9d00ad04:	8fb50028 	lw	s5,40(sp)
9d00ad08:	8fb40024 	lw	s4,36(sp)
9d00ad0c:	8fb30020 	lw	s3,32(sp)
9d00ad10:	8fb2001c 	lw	s2,28(sp)
9d00ad14:	8fb10018 	lw	s1,24(sp)
9d00ad18:	8fb00014 	lw	s0,20(sp)
9d00ad1c:	03e00008 	jr	ra
9d00ad20:	27bd0030 	addiu	sp,sp,48

Disassembly of section .text.__stdio_close:

9d00ad24 <__stdio_close>:
9d00ad24:	14800003 	bnez	a0,9d00ad34 <__stdio_close+0x10>
9d00ad28:	00001025 	move	v0,zero
9d00ad2c:	03e00008 	jr	ra
9d00ad30:	00000000 	nop
9d00ad34:	8c820004 	lw	v0,4(a0)
9d00ad38:	27bdffe0 	addiu	sp,sp,-32
9d00ad3c:	afb10018 	sw	s1,24(sp)
9d00ad40:	30420020 	andi	v0,v0,0x20
9d00ad44:	afb00014 	sw	s0,20(sp)
9d00ad48:	afbf001c 	sw	ra,28(sp)
9d00ad4c:	00808025 	move	s0,a0
9d00ad50:	1440000b 	bnez	v0,9d00ad80 <__stdio_close+0x5c>
9d00ad54:	00a08825 	move	s1,a1
9d00ad58:	ae000028 	sw	zero,40(s0)
9d00ad5c:	ae000018 	sw	zero,24(s0)
9d00ad60:	16200014 	bnez	s1,9d00adb4 <__stdio_close+0x90>
9d00ad64:	ae000014 	sw	zero,20(s0)
9d00ad68:	00001025 	move	v0,zero
9d00ad6c:	8fbf001c 	lw	ra,28(sp)
9d00ad70:	8fb10018 	lw	s1,24(sp)
9d00ad74:	8fb00014 	lw	s0,20(sp)
9d00ad78:	03e00008 	jr	ra
9d00ad7c:	27bd0020 	addiu	sp,sp,32
9d00ad80:	8c820014 	lw	v0,20(a0)
9d00ad84:	8c830018 	lw	v1,24(a0)
9d00ad88:	0062102b 	sltu	v0,v1,v0
9d00ad8c:	1040fff2 	beqz	v0,9d00ad58 <__stdio_close+0x34>
9d00ad90:	00003025 	move	a2,zero
9d00ad94:	8c82002c 	lw	v0,44(a0)
9d00ad98:	0040f809 	jalr	v0
9d00ad9c:	00002825 	move	a1,zero
9d00ada0:	8e030014 	lw	v1,20(s0)
9d00ada4:	1060fff1 	beqz	v1,9d00ad6c <__stdio_close+0x48>
9d00ada8:	2402ffff 	li	v0,-1
9d00adac:	1000ffeb 	b	9d00ad5c <__stdio_close+0x38>
9d00adb0:	ae000028 	sw	zero,40(s0)
9d00adb4:	0f4030b8 	jal	9d00c2e0 <close>
9d00adb8:	8e040000 	lw	a0,0(s0)
9d00adbc:	1000ffec 	b	9d00ad70 <__stdio_close+0x4c>
9d00adc0:	8fbf001c 	lw	ra,28(sp)

Disassembly of section .text.__toread:

9d00adc4 <__toread>:
9d00adc4:	27bdffe8 	addiu	sp,sp,-24
9d00adc8:	afb00010 	sw	s0,16(sp)
9d00adcc:	afbf0014 	sw	ra,20(sp)
9d00add0:	80820048 	lb	v0,72(a0)
9d00add4:	2443ffff 	addiu	v1,v0,-1
9d00add8:	00431025 	or	v0,v0,v1
9d00addc:	a0820048 	sb	v0,72(a0)
9d00ade0:	8c830018 	lw	v1,24(a0)
9d00ade4:	8c820014 	lw	v0,20(a0)
9d00ade8:	0062102b 	sltu	v0,v1,v0
9d00adec:	10400005 	beqz	v0,9d00ae04 <__toread+0x40>
9d00adf0:	00808025 	move	s0,a0
9d00adf4:	8c82002c 	lw	v0,44(a0)
9d00adf8:	00003025 	move	a2,zero
9d00adfc:	0040f809 	jalr	v0
9d00ae00:	00002825 	move	a1,zero
9d00ae04:	8e020004 	lw	v0,4(s0)
9d00ae08:	ae000028 	sw	zero,40(s0)
9d00ae0c:	ae000018 	sw	zero,24(s0)
9d00ae10:	30430002 	andi	v1,v0,0x2
9d00ae14:	10600008 	beqz	v1,9d00ae38 <__toread+0x74>
9d00ae18:	ae000014 	sw	zero,20(s0)
9d00ae1c:	34420010 	ori	v0,v0,0x10
9d00ae20:	ae020004 	sw	v0,4(s0)
9d00ae24:	2402ffff 	li	v0,-1
9d00ae28:	8fbf0014 	lw	ra,20(sp)
9d00ae2c:	8fb00010 	lw	s0,16(sp)
9d00ae30:	03e00008 	jr	ra
9d00ae34:	27bd0018 	addiu	sp,sp,24
9d00ae38:	8e030008 	lw	v1,8(s0)
9d00ae3c:	8e04000c 	lw	a0,12(s0)
9d00ae40:	7c4200c0 	ext	v0,v0,0x3,0x1
9d00ae44:	00021023 	negu	v0,v0
9d00ae48:	00641821 	addu	v1,v1,a0
9d00ae4c:	ae030040 	sw	v1,64(s0)
9d00ae50:	1000fff5 	b	9d00ae28 <__toread+0x64>
9d00ae54:	ae03003c 	sw	v1,60(s0)

Disassembly of section .text.__stdio_seek:

9d00ae58 <__stdio_seek>:
9d00ae58:	8c820004 	lw	v0,4(a0)
9d00ae5c:	27bdffe0 	addiu	sp,sp,-32
9d00ae60:	afb20018 	sw	s2,24(sp)
9d00ae64:	30420020 	andi	v0,v0,0x20
9d00ae68:	afb10014 	sw	s1,20(sp)
9d00ae6c:	afb00010 	sw	s0,16(sp)
9d00ae70:	afbf001c 	sw	ra,28(sp)
9d00ae74:	00808025 	move	s0,a0
9d00ae78:	00a08825 	move	s1,a1
9d00ae7c:	10400009 	beqz	v0,9d00aea4 <__stdio_seek+0x4c>
9d00ae80:	00c09025 	move	s2,a2
9d00ae84:	8c820014 	lw	v0,20(a0)
9d00ae88:	8c830018 	lw	v1,24(a0)
9d00ae8c:	0062102b 	sltu	v0,v1,v0
9d00ae90:	5440000a 	bnezl	v0,9d00aebc <__stdio_seek+0x64>
9d00ae94:	8c82002c 	lw	v0,44(a0)
9d00ae98:	ae000028 	sw	zero,40(s0)
9d00ae9c:	ae000018 	sw	zero,24(s0)
9d00aea0:	ae000014 	sw	zero,20(s0)
9d00aea4:	02403025 	move	a2,s2
9d00aea8:	02202825 	move	a1,s1
9d00aeac:	0f402ee1 	jal	9d00bb84 <__stdio_seek_unbuffered>
9d00aeb0:	02002025 	move	a0,s0
9d00aeb4:	10000008 	b	9d00aed8 <__stdio_seek+0x80>
9d00aeb8:	8fbf001c 	lw	ra,28(sp)
9d00aebc:	00003025 	move	a2,zero
9d00aec0:	0040f809 	jalr	v0
9d00aec4:	00002825 	move	a1,zero
9d00aec8:	8e030014 	lw	v1,20(s0)
9d00aecc:	1460fff2 	bnez	v1,9d00ae98 <__stdio_seek+0x40>
9d00aed0:	2402ffff 	li	v0,-1
9d00aed4:	8fbf001c 	lw	ra,28(sp)
9d00aed8:	8fb20018 	lw	s2,24(sp)
9d00aedc:	8fb10014 	lw	s1,20(sp)
9d00aee0:	8fb00010 	lw	s0,16(sp)
9d00aee4:	03e00008 	jr	ra
9d00aee8:	27bd0020 	addiu	sp,sp,32

Disassembly of section .text.__overflow:

9d00aeec <__overflow>:
9d00aeec:	8c820028 	lw	v0,40(a0)
9d00aef0:	27bdffe0 	addiu	sp,sp,-32
9d00aef4:	afb00018 	sw	s0,24(sp)
9d00aef8:	afbf001c 	sw	ra,28(sp)
9d00aefc:	00808025 	move	s0,a0
9d00af00:	10400010 	beqz	v0,9d00af44 <__overflow+0x58>
9d00af04:	a3a50010 	sb	a1,16(sp)
9d00af08:	8e030014 	lw	v1,20(s0)
9d00af0c:	8e020028 	lw	v0,40(s0)
9d00af10:	0062102b 	sltu	v0,v1,v0
9d00af14:	14400014 	bnez	v0,9d00af68 <__overflow+0x7c>
9d00af18:	93a20010 	lbu	v0,16(sp)
9d00af1c:	8e02002c 	lw	v0,44(s0)
9d00af20:	24060001 	li	a2,1
9d00af24:	27a50010 	addiu	a1,sp,16
9d00af28:	0040f809 	jalr	v0
9d00af2c:	02002025 	move	a0,s0
9d00af30:	24030001 	li	v1,1
9d00af34:	14430007 	bne	v0,v1,9d00af54 <__overflow+0x68>
9d00af38:	93a20010 	lbu	v0,16(sp)
9d00af3c:	10000007 	b	9d00af5c <__overflow+0x70>
9d00af40:	8fbf001c 	lw	ra,28(sp)
9d00af44:	0f402f04 	jal	9d00bc10 <__towrite>
9d00af48:	00000000 	nop
9d00af4c:	5040ffef 	beqzl	v0,9d00af0c <__overflow+0x20>
9d00af50:	8e030014 	lw	v1,20(s0)
9d00af54:	2402ffff 	li	v0,-1
9d00af58:	8fbf001c 	lw	ra,28(sp)
9d00af5c:	8fb00018 	lw	s0,24(sp)
9d00af60:	03e00008 	jr	ra
9d00af64:	27bd0020 	addiu	sp,sp,32
9d00af68:	82040034 	lb	a0,52(s0)
9d00af6c:	1044ffeb 	beq	v0,a0,9d00af1c <__overflow+0x30>
9d00af70:	24640001 	addiu	a0,v1,1
9d00af74:	ae040014 	sw	a0,20(s0)
9d00af78:	1000fff7 	b	9d00af58 <__overflow+0x6c>
9d00af7c:	a0620000 	sb	v0,0(v1)

Disassembly of section .text.__out:

9d00af80 <__out>:
9d00af80:	8c820004 	lw	v0,4(a0)
9d00af84:	27bdffe0 	addiu	sp,sp,-32
9d00af88:	afbf001c 	sw	ra,28(sp)
9d00af8c:	30470100 	andi	a3,v0,0x100
9d00af90:	afb10018 	sw	s1,24(sp)
9d00af94:	10e00016 	beqz	a3,9d00aff0 <__out+0x70>
9d00af98:	afb00014 	sw	s0,20(sp)
9d00af9c:	8c820010 	lw	v0,16(a0)
9d00afa0:	00808025 	move	s0,a0
9d00afa4:	00c01825 	move	v1,a2
9d00afa8:	00c2882b 	sltu	s1,a2,v0
9d00afac:	8c840014 	lw	a0,20(a0)
9d00afb0:	0051180a 	movz	v1,v0,s1
9d00afb4:	00603025 	move	a2,v1
9d00afb8:	0f402fda 	jal	9d00bf68 <memcpy>
9d00afbc:	00608825 	move	s1,v1
9d00afc0:	8e020014 	lw	v0,20(s0)
9d00afc4:	8e030010 	lw	v1,16(s0)
9d00afc8:	00511021 	addu	v0,v0,s1
9d00afcc:	00718823 	subu	s1,v1,s1
9d00afd0:	ae020014 	sw	v0,20(s0)
9d00afd4:	ae110010 	sw	s1,16(s0)
9d00afd8:	a0400000 	sb	zero,0(v0)
9d00afdc:	8fbf001c 	lw	ra,28(sp)
9d00afe0:	8fb10018 	lw	s1,24(sp)
9d00afe4:	8fb00014 	lw	s0,20(sp)
9d00afe8:	03e00008 	jr	ra
9d00afec:	27bd0020 	addiu	sp,sp,32
9d00aff0:	30420010 	andi	v0,v0,0x10
9d00aff4:	5440fffa 	bnezl	v0,9d00afe0 <__out+0x60>
9d00aff8:	8fbf001c 	lw	ra,28(sp)
9d00affc:	0f402f8a 	jal	9d00be28 <__fwrite>
9d00b000:	00000000 	nop
9d00b004:	1000fff6 	b	9d00afe0 <__out+0x60>
9d00b008:	8fbf001c 	lw	ra,28(sp)

Disassembly of section .text.__fopen_rw:

9d00b00c <__fopen_rw>:
9d00b00c:	27bdffe8 	addiu	sp,sp,-24
9d00b010:	afb00010 	sw	s0,16(sp)
9d00b014:	afbf0014 	sw	ra,20(sp)
9d00b018:	0f4022d0 	jal	9d008b40 <malloc>
9d00b01c:	24040468 	li	a0,1128
9d00b020:	10400017 	beqz	v0,9d00b080 <__fopen_rw+0x74>
9d00b024:	00408025 	move	s0,v0
9d00b028:	24060060 	li	a2,96
9d00b02c:	00002825 	move	a1,zero
9d00b030:	0f403010 	jal	9d00c040 <memset>
9d00b034:	00402025 	move	a0,v0
9d00b038:	3c029d01 	lui	v0,0x9d01
9d00b03c:	2442c0a8 	addiu	v0,v0,-16216
9d00b040:	ae02002c 	sw	v0,44(s0)
9d00b044:	3c029d01 	lui	v0,0x9d01
9d00b048:	2442a6e0 	addiu	v0,v0,-22816
9d00b04c:	ae020030 	sw	v0,48(s0)
9d00b050:	3c029d01 	lui	v0,0x9d01
9d00b054:	2442a7a4 	addiu	v0,v0,-22620
9d00b058:	ae02001c 	sw	v0,28(s0)
9d00b05c:	3c029d01 	lui	v0,0x9d01
9d00b060:	2442a614 	addiu	v0,v0,-23020
9d00b064:	ae020044 	sw	v0,68(s0)
9d00b068:	2402ffff 	li	v0,-1
9d00b06c:	a2020034 	sb	v0,52(s0)
9d00b070:	26020068 	addiu	v0,s0,104
9d00b074:	ae020008 	sw	v0,8(s0)
9d00b078:	24020400 	li	v0,1024
9d00b07c:	ae02000c 	sw	v0,12(s0)
9d00b080:	8fbf0014 	lw	ra,20(sp)
9d00b084:	02001025 	move	v0,s0
9d00b088:	8fb00010 	lw	s0,16(sp)
9d00b08c:	03e00008 	jr	ra
9d00b090:	27bd0018 	addiu	sp,sp,24

Disassembly of section .text.write:

9d00b094 <write>:
9d00b094:	27bdffe0 	addiu	sp,sp,-32
9d00b098:	afb10014 	sw	s1,20(sp)
9d00b09c:	afbf001c 	sw	ra,28(sp)
9d00b0a0:	afb20018 	sw	s2,24(sp)
9d00b0a4:	afb00010 	sw	s0,16(sp)
9d00b0a8:	10a0000d 	beqz	a1,9d00b0e0 <write+0x4c>
9d00b0ac:	00008825 	move	s1,zero
9d00b0b0:	50c0000c 	beqzl	a2,9d00b0e4 <write+0x50>
9d00b0b4:	8fbf001c 	lw	ra,28(sp)
9d00b0b8:	2c840003 	sltiu	a0,a0,3
9d00b0bc:	10800008 	beqz	a0,9d00b0e0 <write+0x4c>
9d00b0c0:	00c08825 	move	s1,a2
9d00b0c4:	3c020000 	lui	v0,0x0
9d00b0c8:	24420000 	addiu	v0,v0,0
9d00b0cc:	1040000b 	beqz	v0,9d00b0fc <write+0x68>
9d00b0d0:	00a08025 	move	s0,a1
9d00b0d4:	00c02825 	move	a1,a2
9d00b0d8:	0c000000 	jal	90000000 <_bmxdudba_address+0x8fff0000>
9d00b0dc:	02002025 	move	a0,s0
9d00b0e0:	8fbf001c 	lw	ra,28(sp)
9d00b0e4:	02201025 	move	v0,s1
9d00b0e8:	8fb20018 	lw	s2,24(sp)
9d00b0ec:	8fb10014 	lw	s1,20(sp)
9d00b0f0:	8fb00010 	lw	s0,16(sp)
9d00b0f4:	03e00008 	jr	ra
9d00b0f8:	27bd0020 	addiu	sp,sp,32
9d00b0fc:	00a69021 	addu	s2,a1,a2
9d00b100:	82040000 	lb	a0,0(s0)
9d00b104:	0f4027c1 	jal	9d009f04 <_mon_putc>
9d00b108:	26100001 	addiu	s0,s0,1
9d00b10c:	1650fffc 	bne	s2,s0,9d00b100 <write+0x6c>
9d00b110:	8fbf001c 	lw	ra,28(sp)
9d00b114:	1000fff4 	b	9d00b0e8 <write+0x54>
9d00b118:	02201025 	move	v0,s1

Disassembly of section .text.dinit.startup:

9d00b11c <__pic32_data_init_impl>:
9d00b11c:	3c089d01 	lui	t0,0x9d01
9d00b120:	25089dd4 	addiu	t0,t0,-25132
9d00b124:	1100001b 	beqz	t0,9d00b194 <_dinit_end+0x18>
9d00b128:	00000000 	nop
9d00b12c:	8d090000 	lw	t1,0(t0)
9d00b130:	11200018 	beqz	t1,9d00b194 <_dinit_end+0x18>
9d00b134:	25080004 	addiu	t0,t0,4
9d00b138:	8d0a0000 	lw	t2,0(t0)
9d00b13c:	25080004 	addiu	t0,t0,4
9d00b140:	8d0b0000 	lw	t3,0(t0)
9d00b144:	11600009 	beqz	t3,9d00b16c <_dinit_clear>
9d00b148:	25080004 	addiu	t0,t0,4

9d00b14c <_dinit_copy>:
9d00b14c:	910c0000 	lbu	t4,0(t0)
9d00b150:	254affff 	addiu	t2,t2,-1
9d00b154:	25080001 	addiu	t0,t0,1
9d00b158:	a12c0000 	sb	t4,0(t1)
9d00b15c:	1540fffb 	bnez	t2,9d00b14c <_dinit_copy>
9d00b160:	25290001 	addiu	t1,t1,1
9d00b164:	10000005 	b	9d00b17c <_dinit_end>
9d00b168:	00000000 	nop

9d00b16c <_dinit_clear>:
9d00b16c:	a1200000 	sb	zero,0(t1)
9d00b170:	254affff 	addiu	t2,t2,-1
9d00b174:	1540fffd 	bnez	t2,9d00b16c <_dinit_clear>
9d00b178:	25290001 	addiu	t1,t1,1

9d00b17c <_dinit_end>:
9d00b17c:	25080003 	addiu	t0,t0,3
9d00b180:	240afffc 	li	t2,-4
9d00b184:	01484024 	and	t0,t2,t0
9d00b188:	8d090000 	lw	t1,0(t0)
9d00b18c:	1520ffe7 	bnez	t1,9d00b12c <__pic32_data_init_impl+0x10>
9d00b190:	00000000 	nop
9d00b194:	03e00008 	jr	ra
9d00b198:	00000000 	nop

Disassembly of section .text.atoi:

9d00b19c <atoi>:
9d00b19c:	24050020 	li	a1,32
9d00b1a0:	80820000 	lb	v0,0(a0)
9d00b1a4:	1045000d 	beq	v0,a1,9d00b1dc <atoi+0x40>
9d00b1a8:	2443fff7 	addiu	v1,v0,-9
9d00b1ac:	2c630005 	sltiu	v1,v1,5
9d00b1b0:	1460000a 	bnez	v1,9d00b1dc <atoi+0x40>
9d00b1b4:	2403002b 	li	v1,43
9d00b1b8:	1043000a 	beq	v0,v1,9d00b1e4 <atoi+0x48>
9d00b1bc:	2403002d 	li	v1,45
9d00b1c0:	14430003 	bne	v0,v1,9d00b1d0 <atoi+0x34>
9d00b1c4:	00002825 	move	a1,zero
9d00b1c8:	24050001 	li	a1,1
9d00b1cc:	24840001 	addiu	a0,a0,1
9d00b1d0:	00001025 	move	v0,zero
9d00b1d4:	10000007 	b	9d00b1f4 <atoi+0x58>
9d00b1d8:	2407000a 	li	a3,10
9d00b1dc:	1000fff0 	b	9d00b1a0 <atoi+0x4>
9d00b1e0:	24840001 	addiu	a0,a0,1
9d00b1e4:	1000fff9 	b	9d00b1cc <atoi+0x30>
9d00b1e8:	00002825 	move	a1,zero
9d00b1ec:	24840001 	addiu	a0,a0,1
9d00b1f0:	00431023 	subu	v0,v0,v1
9d00b1f4:	80830000 	lb	v1,0(a0)
9d00b1f8:	2463ffd0 	addiu	v1,v1,-48
9d00b1fc:	2c66000a 	sltiu	a2,v1,10
9d00b200:	54c0fffa 	bnezl	a2,9d00b1ec <atoi+0x50>
9d00b204:	70471002 	mul	v0,v0,a3
9d00b208:	50a00001 	beqzl	a1,9d00b210 <atoi+0x74>
9d00b20c:	00021023 	negu	v0,v0
9d00b210:	03e00008 	jr	ra
9d00b214:	00000000 	nop

Disassembly of section .text.__readv:

9d00b218 <readv>:
9d00b218:	27bdffd8 	addiu	sp,sp,-40
9d00b21c:	afb40020 	sw	s4,32(sp)
9d00b220:	afb3001c 	sw	s3,28(sp)
9d00b224:	afb20018 	sw	s2,24(sp)
9d00b228:	afb10014 	sw	s1,20(sp)
9d00b22c:	afb00010 	sw	s0,16(sp)
9d00b230:	afbf0024 	sw	ra,36(sp)
9d00b234:	0080a025 	move	s4,a0
9d00b238:	00c09825 	move	s3,a2
9d00b23c:	00a08025 	move	s0,a1
9d00b240:	00008825 	move	s1,zero
9d00b244:	00009025 	move	s2,zero
9d00b248:	0253102a 	slt	v0,s2,s3
9d00b24c:	14400009 	bnez	v0,9d00b274 <readv+0x5c>
9d00b250:	8fbf0024 	lw	ra,36(sp)
9d00b254:	02201025 	move	v0,s1
9d00b258:	8fb40020 	lw	s4,32(sp)
9d00b25c:	8fb3001c 	lw	s3,28(sp)
9d00b260:	8fb20018 	lw	s2,24(sp)
9d00b264:	8fb10014 	lw	s1,20(sp)
9d00b268:	8fb00010 	lw	s0,16(sp)
9d00b26c:	03e00008 	jr	ra
9d00b270:	27bd0028 	addiu	sp,sp,40
9d00b274:	8e060004 	lw	a2,4(s0)
9d00b278:	8e050000 	lw	a1,0(s0)
9d00b27c:	02802025 	move	a0,s4
9d00b280:	0f402728 	jal	9d009ca0 <read>
9d00b284:	26520001 	addiu	s2,s2,1
9d00b288:	02228821 	addu	s1,s1,v0
9d00b28c:	1000ffee 	b	9d00b248 <readv+0x30>
9d00b290:	26100008 	addiu	s0,s0,8

Disassembly of section .text.alloc_rev:

9d00b294 <alloc_rev>:
9d00b294:	8c860000 	lw	a2,0(a0)
9d00b298:	30c20001 	andi	v0,a2,0x1
9d00b29c:	10400009 	beqz	v0,9d00b2c4 <alloc_rev+0x30>
9d00b2a0:	00803825 	move	a3,a0
9d00b2a4:	03e00008 	jr	ra
9d00b2a8:	00001025 	move	v0,zero
9d00b2ac:	8ce60000 	lw	a2,0(a3)
9d00b2b0:	30c20001 	andi	v0,a2,0x1
9d00b2b4:	10400005 	beqz	v0,9d00b2cc <alloc_rev+0x38>
9d00b2b8:	00001025 	move	v0,zero
9d00b2bc:	10000010 	b	9d00b300 <alloc_rev+0x6c>
9d00b2c0:	8fbf0014 	lw	ra,20(sp)
9d00b2c4:	27bdffe8 	addiu	sp,sp,-24
9d00b2c8:	afbf0014 	sw	ra,20(sp)
9d00b2cc:	0f402d81 	jal	9d00b604 <bin_index>
9d00b2d0:	00c02025 	move	a0,a2
9d00b2d4:	00402025 	move	a0,v0
9d00b2d8:	0f402f7d 	jal	9d00bdf4 <lock_bin>
9d00b2dc:	00404025 	move	t0,v0
9d00b2e0:	8ce40000 	lw	a0,0(a3)
9d00b2e4:	1486fff1 	bne	a0,a2,9d00b2ac <alloc_rev+0x18>
9d00b2e8:	7c040004 	ins	a0,zero,0x0,0x1
9d00b2ec:	01002825 	move	a1,t0
9d00b2f0:	0f402acc 	jal	9d00ab30 <unbin>
9d00b2f4:	00e42023 	subu	a0,a3,a0
9d00b2f8:	24020001 	li	v0,1
9d00b2fc:	8fbf0014 	lw	ra,20(sp)
9d00b300:	03e00008 	jr	ra
9d00b304:	27bd0018 	addiu	sp,sp,24

Disassembly of section .text.__scan_d:

9d00b308 <__scan_d>:
9d00b308:	27bdffd8 	addiu	sp,sp,-40
9d00b30c:	afb10020 	sw	s1,32(sp)
9d00b310:	afb0001c 	sw	s0,28(sp)
9d00b314:	00a08825 	move	s1,a1
9d00b318:	8cd0000c 	lw	s0,12(a2)
9d00b31c:	00c02825 	move	a1,a2
9d00b320:	afbf0024 	sw	ra,36(sp)
9d00b324:	0f402684 	jal	9d009a10 <__read_int>
9d00b328:	00e03025 	move	a2,a3
9d00b32c:	2403ffff 	li	v1,-1
9d00b330:	1043000c 	beq	v0,v1,9d00b364 <__scan_d+0x5c>
9d00b334:	02002025 	move	a0,s0
9d00b338:	2406000a 	li	a2,10
9d00b33c:	0f402fae 	jal	9d00beb8 <strtoll>
9d00b340:	27a50010 	addiu	a1,sp,16
9d00b344:	ae220000 	sw	v0,0(s1)
9d00b348:	8fa20010 	lw	v0,16(sp)
9d00b34c:	ae230004 	sw	v1,4(s1)
9d00b350:	2404fffe 	li	a0,-2
9d00b354:	00501026 	xor	v0,v0,s0
9d00b358:	24030001 	li	v1,1
9d00b35c:	0082180a 	movz	v1,a0,v0
9d00b360:	00601025 	move	v0,v1
9d00b364:	8fbf0024 	lw	ra,36(sp)
9d00b368:	8fb10020 	lw	s1,32(sp)
9d00b36c:	8fb0001c 	lw	s0,28(sp)
9d00b370:	03e00008 	jr	ra
9d00b374:	27bd0028 	addiu	sp,sp,40

Disassembly of section .text.__scan_u:

9d00b378 <__scan_u>:
9d00b378:	27bdffd8 	addiu	sp,sp,-40
9d00b37c:	afb10020 	sw	s1,32(sp)
9d00b380:	afb0001c 	sw	s0,28(sp)
9d00b384:	00a08825 	move	s1,a1
9d00b388:	8cd0000c 	lw	s0,12(a2)
9d00b38c:	00c02825 	move	a1,a2
9d00b390:	afbf0024 	sw	ra,36(sp)
9d00b394:	0f402684 	jal	9d009a10 <__read_int>
9d00b398:	00e03025 	move	a2,a3
9d00b39c:	2403ffff 	li	v1,-1
9d00b3a0:	1043000c 	beq	v0,v1,9d00b3d4 <__scan_u+0x5c>
9d00b3a4:	02002025 	move	a0,s0
9d00b3a8:	2406000a 	li	a2,10
9d00b3ac:	0f402fa3 	jal	9d00be8c <strtoull>
9d00b3b0:	27a50010 	addiu	a1,sp,16
9d00b3b4:	ae220000 	sw	v0,0(s1)
9d00b3b8:	8fa20010 	lw	v0,16(sp)
9d00b3bc:	ae230004 	sw	v1,4(s1)
9d00b3c0:	2404fffe 	li	a0,-2
9d00b3c4:	00501026 	xor	v0,v0,s0
9d00b3c8:	24030001 	li	v1,1
9d00b3cc:	0082180a 	movz	v1,a0,v0
9d00b3d0:	00601025 	move	v0,v1
9d00b3d4:	8fbf0024 	lw	ra,36(sp)
9d00b3d8:	8fb10020 	lw	s1,32(sp)
9d00b3dc:	8fb0001c 	lw	s0,28(sp)
9d00b3e0:	03e00008 	jr	ra
9d00b3e4:	27bd0028 	addiu	sp,sp,40

Disassembly of section .text.__consumews:

9d00b3e8 <__consumews>:
9d00b3e8:	8ca20000 	lw	v0,0(a1)
9d00b3ec:	24030020 	li	v1,32
9d00b3f0:	80420000 	lb	v0,0(v0)
9d00b3f4:	10430004 	beq	v0,v1,9d00b408 <__consumews+0x20>
9d00b3f8:	2442fff7 	addiu	v0,v0,-9
9d00b3fc:	2c430005 	sltiu	v1,v0,5
9d00b400:	10600013 	beqz	v1,9d00b450 <__consumews+0x68>
9d00b404:	00001025 	move	v0,zero
9d00b408:	27bdffe8 	addiu	sp,sp,-24
9d00b40c:	afb00010 	sw	s0,16(sp)
9d00b410:	afbf0014 	sw	ra,20(sp)
9d00b414:	0f402a74 	jal	9d00a9d0 <__skipws>
9d00b418:	00a08025 	move	s0,a1
9d00b41c:	24040020 	li	a0,32
9d00b420:	8e030000 	lw	v1,0(s0)
9d00b424:	24650001 	addiu	a1,v1,1
9d00b428:	ae050000 	sw	a1,0(s0)
9d00b42c:	80630001 	lb	v1,1(v1)
9d00b430:	1064fffb 	beq	v1,a0,9d00b420 <__consumews+0x38>
9d00b434:	2463fff7 	addiu	v1,v1,-9
9d00b438:	2c630005 	sltiu	v1,v1,5
9d00b43c:	1460fff8 	bnez	v1,9d00b420 <__consumews+0x38>
9d00b440:	8fbf0014 	lw	ra,20(sp)
9d00b444:	8fb00010 	lw	s0,16(sp)
9d00b448:	03e00008 	jr	ra
9d00b44c:	27bd0018 	addiu	sp,sp,24
9d00b450:	03e00008 	jr	ra
9d00b454:	00000000 	nop

Disassembly of section .text.__putc:

9d00b458 <__putc>:
9d00b458:	8ca20004 	lw	v0,4(a1)
9d00b45c:	27bdffe8 	addiu	sp,sp,-24
9d00b460:	30420020 	andi	v0,v0,0x20
9d00b464:	14400006 	bnez	v0,9d00b480 <__putc+0x28>
9d00b468:	afbf0014 	sw	ra,20(sp)
9d00b46c:	0f402d69 	jal	9d00b5a4 <__putc_unbuffered>
9d00b470:	00000000 	nop
9d00b474:	8fbf0014 	lw	ra,20(sp)
9d00b478:	03e00008 	jr	ra
9d00b47c:	27bd0018 	addiu	sp,sp,24
9d00b480:	00803025 	move	a2,a0
9d00b484:	308200ff 	andi	v0,a0,0xff
9d00b488:	80a40034 	lb	a0,52(a1)
9d00b48c:	10820009 	beq	a0,v0,9d00b4b4 <__putc+0x5c>
9d00b490:	00a01825 	move	v1,a1
9d00b494:	8ca40014 	lw	a0,20(a1)
9d00b498:	8ca50028 	lw	a1,40(a1)
9d00b49c:	0085282b 	sltu	a1,a0,a1
9d00b4a0:	10a00004 	beqz	a1,9d00b4b4 <__putc+0x5c>
9d00b4a4:	24850001 	addiu	a1,a0,1
9d00b4a8:	ac650014 	sw	a1,20(v1)
9d00b4ac:	1000fff1 	b	9d00b474 <__putc+0x1c>
9d00b4b0:	a0860000 	sb	a2,0(a0)
9d00b4b4:	00c02825 	move	a1,a2
9d00b4b8:	0f402bbb 	jal	9d00aeec <__overflow>
9d00b4bc:	00602025 	move	a0,v1
9d00b4c0:	1000ffed 	b	9d00b478 <__putc+0x20>
9d00b4c4:	8fbf0014 	lw	ra,20(sp)

Disassembly of section .text.alloc_fwd:

9d00b4c8 <alloc_fwd>:
9d00b4c8:	8c860004 	lw	a2,4(a0)
9d00b4cc:	30c20001 	andi	v0,a2,0x1
9d00b4d0:	10400009 	beqz	v0,9d00b4f8 <alloc_fwd+0x30>
9d00b4d4:	00803825 	move	a3,a0
9d00b4d8:	03e00008 	jr	ra
9d00b4dc:	00001025 	move	v0,zero
9d00b4e0:	8ce60004 	lw	a2,4(a3)
9d00b4e4:	30c20001 	andi	v0,a2,0x1
9d00b4e8:	10400005 	beqz	v0,9d00b500 <alloc_fwd+0x38>
9d00b4ec:	00001025 	move	v0,zero
9d00b4f0:	1000000f 	b	9d00b530 <alloc_fwd+0x68>
9d00b4f4:	8fbf0014 	lw	ra,20(sp)
9d00b4f8:	27bdffe8 	addiu	sp,sp,-24
9d00b4fc:	afbf0014 	sw	ra,20(sp)
9d00b500:	0f402d81 	jal	9d00b604 <bin_index>
9d00b504:	00c02025 	move	a0,a2
9d00b508:	00402025 	move	a0,v0
9d00b50c:	0f402f7d 	jal	9d00bdf4 <lock_bin>
9d00b510:	00404025 	move	t0,v0
9d00b514:	8ce20004 	lw	v0,4(a3)
9d00b518:	1446fff1 	bne	v0,a2,9d00b4e0 <alloc_fwd+0x18>
9d00b51c:	01002825 	move	a1,t0
9d00b520:	0f402acc 	jal	9d00ab30 <unbin>
9d00b524:	00e02025 	move	a0,a3
9d00b528:	24020001 	li	v0,1
9d00b52c:	8fbf0014 	lw	ra,20(sp)
9d00b530:	03e00008 	jr	ra
9d00b534:	27bd0018 	addiu	sp,sp,24

Disassembly of section .text.__vsscanf:

9d00b538 <__vsscanf>:
9d00b538:	27bdff80 	addiu	sp,sp,-128
9d00b53c:	afb20078 	sw	s2,120(sp)
9d00b540:	afb10074 	sw	s1,116(sp)
9d00b544:	afb00070 	sw	s0,112(sp)
9d00b548:	00a08825 	move	s1,a1
9d00b54c:	00808025 	move	s0,a0
9d00b550:	00c09025 	move	s2,a2
9d00b554:	27a40010 	addiu	a0,sp,16
9d00b558:	24060060 	li	a2,96
9d00b55c:	afbf007c 	sw	ra,124(sp)
9d00b560:	0f403010 	jal	9d00c040 <memset>
9d00b564:	00002825 	move	a1,zero
9d00b568:	3c029d01 	lui	v0,0x9d01
9d00b56c:	2442c174 	addiu	v0,v0,-16012
9d00b570:	02403025 	move	a2,s2
9d00b574:	02202825 	move	a1,s1
9d00b578:	27a40010 	addiu	a0,sp,16
9d00b57c:	afb00018 	sw	s0,24(sp)
9d00b580:	afb00048 	sw	s0,72(sp)
9d00b584:	0f402f33 	jal	9d00bccc <__vfscanf>
9d00b588:	afa20054 	sw	v0,84(sp)
9d00b58c:	8fbf007c 	lw	ra,124(sp)
9d00b590:	8fb20078 	lw	s2,120(sp)
9d00b594:	8fb10074 	lw	s1,116(sp)
9d00b598:	8fb00070 	lw	s0,112(sp)
9d00b59c:	03e00008 	jr	ra
9d00b5a0:	27bd0080 	addiu	sp,sp,128

Disassembly of section .text.__putc_unbuffered:

9d00b5a4 <__putc_unbuffered>:
9d00b5a4:	8ca20004 	lw	v0,4(a1)
9d00b5a8:	27bdffe0 	addiu	sp,sp,-32
9d00b5ac:	308300ff 	andi	v1,a0,0xff
9d00b5b0:	30420100 	andi	v0,v0,0x100
9d00b5b4:	afbf001c 	sw	ra,28(sp)
9d00b5b8:	1040000a 	beqz	v0,9d00b5e4 <__putc_unbuffered+0x40>
9d00b5bc:	a3a30010 	sb	v1,16(sp)
9d00b5c0:	8ca20014 	lw	v0,20(a1)
9d00b5c4:	308400ff 	andi	a0,a0,0xff
9d00b5c8:	24460001 	addiu	a2,v0,1
9d00b5cc:	aca60014 	sw	a2,20(a1)
9d00b5d0:	a0430000 	sb	v1,0(v0)
9d00b5d4:	8fbf001c 	lw	ra,28(sp)
9d00b5d8:	00801025 	move	v0,a0
9d00b5dc:	03e00008 	jr	ra
9d00b5e0:	27bd0020 	addiu	sp,sp,32
9d00b5e4:	00a02025 	move	a0,a1
9d00b5e8:	24060001 	li	a2,1
9d00b5ec:	0f402f8a 	jal	9d00be28 <__fwrite>
9d00b5f0:	27a50010 	addiu	a1,sp,16
9d00b5f4:	1040fff7 	beqz	v0,9d00b5d4 <__putc_unbuffered+0x30>
9d00b5f8:	2404ffff 	li	a0,-1
9d00b5fc:	1000fff5 	b	9d00b5d4 <__putc_unbuffered+0x30>
9d00b600:	93a40010 	lbu	a0,16(sp)

Disassembly of section .text.bin_index:

9d00b604 <bin_index>:
9d00b604:	00042102 	srl	a0,a0,0x4
9d00b608:	2484ffff 	addiu	a0,a0,-1
9d00b60c:	2c820021 	sltiu	v0,a0,33
9d00b610:	14400012 	bnez	v0,9d00b65c <bin_index+0x58>
9d00b614:	00801025 	move	v0,a0
9d00b618:	2c820200 	sltiu	v0,a0,512
9d00b61c:	10400007 	beqz	v0,9d00b63c <bin_index+0x38>
9d00b620:	2c831c01 	sltiu	v1,a0,7169
9d00b624:	3c029d01 	lui	v0,0x9d01
9d00b628:	2442b740 	addiu	v0,v0,-18624
9d00b62c:	000420c2 	srl	a0,a0,0x3
9d00b630:	00822021 	addu	a0,a0,v0
9d00b634:	03e00008 	jr	ra
9d00b638:	9082fffc 	lbu	v0,-4(a0)
9d00b63c:	10600007 	beqz	v1,9d00b65c <bin_index+0x58>
9d00b640:	2402003f 	li	v0,63
9d00b644:	3c029d01 	lui	v0,0x9d01
9d00b648:	2442b740 	addiu	v0,v0,-18624
9d00b64c:	000421c2 	srl	a0,a0,0x7
9d00b650:	00822021 	addu	a0,a0,v0
9d00b654:	9082fffc 	lbu	v0,-4(a0)
9d00b658:	24420010 	addiu	v0,v0,16
9d00b65c:	03e00008 	jr	ra
9d00b660:	00000000 	nop

Disassembly of section .text.__fopen_std:

9d00b664 <__fopen_std>:
9d00b664:	27bdffe8 	addiu	sp,sp,-24
9d00b668:	afb00010 	sw	s0,16(sp)
9d00b66c:	afbf0014 	sw	ra,20(sp)
9d00b670:	0f4022d0 	jal	9d008b40 <malloc>
9d00b674:	24040038 	li	a0,56
9d00b678:	1040000d 	beqz	v0,9d00b6b0 <__fopen_std+0x4c>
9d00b67c:	00408025 	move	s0,v0
9d00b680:	24060038 	li	a2,56
9d00b684:	00002825 	move	a1,zero
9d00b688:	0f403010 	jal	9d00c040 <memset>
9d00b68c:	00402025 	move	a0,v0
9d00b690:	3c029d01 	lui	v0,0x9d01
9d00b694:	2442c0a8 	addiu	v0,v0,-16216
9d00b698:	ae02002c 	sw	v0,44(s0)
9d00b69c:	3c029d01 	lui	v0,0x9d01
9d00b6a0:	2442ae58 	addiu	v0,v0,-20904
9d00b6a4:	ae020030 	sw	v0,48(s0)
9d00b6a8:	2402ffff 	li	v0,-1
9d00b6ac:	a2020034 	sb	v0,52(s0)
9d00b6b0:	8fbf0014 	lw	ra,20(sp)
9d00b6b4:	02001025 	move	v0,s0
9d00b6b8:	8fb00010 	lw	s0,16(sp)
9d00b6bc:	03e00008 	jr	ra
9d00b6c0:	27bd0018 	addiu	sp,sp,24

Disassembly of section .text.__string_out:

9d00b6c4 <__string_out>:
9d00b6c4:	8c820010 	lw	v0,16(a0)
9d00b6c8:	27bdffe0 	addiu	sp,sp,-32
9d00b6cc:	afb00014 	sw	s0,20(sp)
9d00b6d0:	00808025 	move	s0,a0
9d00b6d4:	8c840014 	lw	a0,20(a0)
9d00b6d8:	afb10018 	sw	s1,24(sp)
9d00b6dc:	00c2882b 	sltu	s1,a2,v0
9d00b6e0:	0051300a 	movz	a2,v0,s1
9d00b6e4:	afbf001c 	sw	ra,28(sp)
9d00b6e8:	0f402fda 	jal	9d00bf68 <memcpy>
9d00b6ec:	00c08825 	move	s1,a2
9d00b6f0:	8e020014 	lw	v0,20(s0)
9d00b6f4:	8e060010 	lw	a2,16(s0)
9d00b6f8:	00511021 	addu	v0,v0,s1
9d00b6fc:	00d18823 	subu	s1,a2,s1
9d00b700:	ae110010 	sw	s1,16(s0)
9d00b704:	ae020014 	sw	v0,20(s0)
9d00b708:	a0400000 	sb	zero,0(v0)
9d00b70c:	8fbf001c 	lw	ra,28(sp)
9d00b710:	8fb10018 	lw	s1,24(sp)
9d00b714:	8fb00014 	lw	s0,20(sp)
9d00b718:	03e00008 	jr	ra
9d00b71c:	27bd0020 	addiu	sp,sp,32

Disassembly of section .rodata:

9d00b720 <debruijn32.1767>:
9d00b720:	02170100 0313181d 0b191b1e 0d040814     ................
9d00b730:	121c161f 0c070a1a 06091115 0e0f0510     ................

9d00b740 <bin_tab>:
9d00b740:	23222120 25252424 27272626 28282828      !"#$$%%&&''((((
9d00b750:	29292929 2a2a2a2a 2b2b2b2b 2c2c2c2c     ))))****++++,,,,
9d00b760:	2c2c2c2c 2d2d2d2d 2d2d2d2d 2e2e2e2e     ,,,,--------....
9d00b770:	2e2e2e2e 2f2f2f2f 2f2f2f2f              ....////////

Disassembly of section .text.__fmt_state:

9d00b77c <__fmt_state>:
9d00b77c:	3c069d01 	lui	a2,0x9d01
9d00b780:	00001025 	move	v0,zero
9d00b784:	24c6c230 	addiu	a2,a2,-15824
9d00b788:	00021840 	sll	v1,v0,0x1
9d00b78c:	00661821 	addu	v1,v1,a2
9d00b790:	80670000 	lb	a3,0(v1)
9d00b794:	54e00003 	bnezl	a3,9d00b7a4 <__fmt_state+0x28>
9d00b798:	8c850000 	lw	a1,0(a0)
9d00b79c:	03e00008 	jr	ra
9d00b7a0:	90620001 	lbu	v0,1(v1)
9d00b7a4:	24420001 	addiu	v0,v0,1
9d00b7a8:	80a80000 	lb	t0,0(a1)
9d00b7ac:	15070004 	bne	t0,a3,9d00b7c0 <__fmt_state+0x44>
9d00b7b0:	304200ff 	andi	v0,v0,0xff
9d00b7b4:	90620001 	lbu	v0,1(v1)
9d00b7b8:	24a50001 	addiu	a1,a1,1
9d00b7bc:	ac850000 	sw	a1,0(a0)
9d00b7c0:	2c43000b 	sltiu	v1,v0,11
9d00b7c4:	1460fff1 	bnez	v1,9d00b78c <__fmt_state+0x10>
9d00b7c8:	00021840 	sll	v1,v0,0x1
9d00b7cc:	03e00008 	jr	ra
9d00b7d0:	00000000 	nop

Disassembly of section .text.adjust_size:

9d00b7d4 <adjust_size>:
9d00b7d4:	3c03a000 	lui	v1,0xa000
9d00b7d8:	8c66030c 	lw	a2,780(v1)
9d00b7dc:	8c820000 	lw	v0,0(a0)
9d00b7e0:	3c037fff 	lui	v1,0x7fff
9d00b7e4:	3463ffef 	ori	v1,v1,0xffef
9d00b7e8:	2445ffff 	addiu	a1,v0,-1
9d00b7ec:	00661823 	subu	v1,v1,a2
9d00b7f0:	0065182b 	sltu	v1,v1,a1
9d00b7f4:	5060000b 	beqzl	v1,9d00b824 <adjust_size+0x50>
9d00b7f8:	24420017 	addiu	v0,v0,23
9d00b7fc:	10400005 	beqz	v0,9d00b814 <adjust_size+0x40>
9d00b800:	2403000c 	li	v1,12
9d00b804:	3c02a000 	lui	v0,0xa000
9d00b808:	ac43034c 	sw	v1,844(v0)
9d00b80c:	03e00008 	jr	ra
9d00b810:	2402ffff 	li	v0,-1
9d00b814:	24020010 	li	v0,16
9d00b818:	ac820000 	sw	v0,0(a0)
9d00b81c:	03e00008 	jr	ra
9d00b820:	00001025 	move	v0,zero
9d00b824:	1000fffc 	b	9d00b818 <adjust_size+0x44>
9d00b828:	7c021804 	ins	v0,zero,0x0,0x4

Disassembly of section .text.trim:

9d00b82c <trim>:
9d00b82c:	8c820004 	lw	v0,4(a0)
9d00b830:	7c020004 	ins	v0,zero,0x0,0x1
9d00b834:	00451823 	subu	v1,v0,a1
9d00b838:	2c660011 	sltiu	a2,v1,17
9d00b83c:	14c0000f 	bnez	a2,9d00b87c <trim+0x50>
9d00b840:	00853021 	addu	a2,a0,a1
9d00b844:	27bdffe8 	addiu	sp,sp,-24
9d00b848:	34a50001 	ori	a1,a1,0x1
9d00b84c:	34630001 	ori	v1,v1,0x1
9d00b850:	00821021 	addu	v0,a0,v0
9d00b854:	afbf0014 	sw	ra,20(sp)
9d00b858:	acc50000 	sw	a1,0(a2)
9d00b85c:	acc30004 	sw	v1,4(a2)
9d00b860:	ac430000 	sw	v1,0(v0)
9d00b864:	ac850004 	sw	a1,4(a0)
9d00b868:	0f402460 	jal	9d009180 <free>
9d00b86c:	24c40008 	addiu	a0,a2,8
9d00b870:	8fbf0014 	lw	ra,20(sp)
9d00b874:	03e00008 	jr	ra
9d00b878:	27bd0018 	addiu	sp,sp,24
9d00b87c:	03e00008 	jr	ra
9d00b880:	00000000 	nop

Disassembly of section .text.main_entry:

9d00b884 <_main_entry>:
9d00b884:	3c040000 	lui	a0,0x0
9d00b888:	27bdffe8 	addiu	sp,sp,-24
9d00b88c:	24840000 	addiu	a0,a0,0
9d00b890:	10800003 	beqz	a0,9d00b8a0 <_main_entry+0x1c>
9d00b894:	afbf0014 	sw	ra,20(sp)
9d00b898:	0080f809 	jalr	a0
9d00b89c:	00000000 	nop
9d00b8a0:	30840000 	andi	a0,a0,0x0
9d00b8a4:	30a50000 	andi	a1,a1,0x0
9d00b8a8:	3c089d01 	lui	t0,0x9d01
9d00b8ac:	25089c10 	addiu	t0,t0,-25584
9d00b8b0:	0100f809 	jalr	t0
9d00b8b4:	00000000 	nop

9d00b8b8 <__crt0_exit>:
9d00b8b8:	3c020000 24420000 10400003 00000000     ...<..B$..@.....
9d00b8c8:	0040f809 00000000 1000fff9 00000000     ..@.............

Disassembly of section .text.__uflow:

9d00b8d8 <__uflow>:
9d00b8d8:	27bdffe0 	addiu	sp,sp,-32
9d00b8dc:	afb00018 	sw	s0,24(sp)
9d00b8e0:	afbf001c 	sw	ra,28(sp)
9d00b8e4:	0f402b71 	jal	9d00adc4 <__toread>
9d00b8e8:	00808025 	move	s0,a0
9d00b8ec:	50400006 	beqzl	v0,9d00b908 <__uflow+0x30>
9d00b8f0:	8e020044 	lw	v0,68(s0)
9d00b8f4:	2402ffff 	li	v0,-1
9d00b8f8:	8fbf001c 	lw	ra,28(sp)
9d00b8fc:	8fb00018 	lw	s0,24(sp)
9d00b900:	03e00008 	jr	ra
9d00b904:	27bd0020 	addiu	sp,sp,32
9d00b908:	24060001 	li	a2,1
9d00b90c:	27a50010 	addiu	a1,sp,16
9d00b910:	0040f809 	jalr	v0
9d00b914:	02002025 	move	a0,s0
9d00b918:	24030001 	li	v1,1
9d00b91c:	1443fff5 	bne	v0,v1,9d00b8f4 <__uflow+0x1c>
9d00b920:	93a20010 	lbu	v0,16(sp)
9d00b924:	1000fff5 	b	9d00b8fc <__uflow+0x24>
9d00b928:	8fbf001c 	lw	ra,28(sp)

Disassembly of section .text.__pop_float:

9d00b92c <__pop_float>:
9d00b92c:	28a30080 	slti	v1,a1,128
9d00b930:	14600010 	bnez	v1,9d00b974 <__pop_float+0x48>
9d00b934:	00001025 	move	v0,zero
9d00b938:	28a30082 	slti	v1,a1,130
9d00b93c:	14600003 	bnez	v1,9d00b94c <__pop_float+0x20>
9d00b940:	24030083 	li	v1,131
9d00b944:	14a3000b 	bne	a1,v1,9d00b974 <__pop_float+0x48>
9d00b948:	00000000 	nop
9d00b94c:	8cc20000 	lw	v0,0(a2)
9d00b950:	24420007 	addiu	v0,v0,7
9d00b954:	7c021004 	ins	v0,zero,0x0,0x3
9d00b958:	24430008 	addiu	v1,v0,8
9d00b95c:	acc30000 	sw	v1,0(a2)
9d00b960:	8c430004 	lw	v1,4(v0)
9d00b964:	8c420000 	lw	v0,0(v0)
9d00b968:	ac830004 	sw	v1,4(a0)
9d00b96c:	ac820000 	sw	v0,0(a0)
9d00b970:	24020001 	li	v0,1
9d00b974:	03e00008 	jr	ra
9d00b978:	00000000 	nop

Disassembly of section .text.__malloc0:

9d00b97c <__malloc0>:
9d00b97c:	27bdffe8 	addiu	sp,sp,-24
9d00b980:	afb00010 	sw	s0,16(sp)
9d00b984:	afbf0014 	sw	ra,20(sp)
9d00b988:	0f4022d0 	jal	9d008b40 <malloc>
9d00b98c:	00808025 	move	s0,a0
9d00b990:	10400006 	beqz	v0,9d00b9ac <__malloc0+0x30>
9d00b994:	26100003 	addiu	s0,s0,3
9d00b998:	7c100804 	ins	s0,zero,0x0,0x2
9d00b99c:	00508021 	addu	s0,v0,s0
9d00b9a0:	00401825 	move	v1,v0
9d00b9a4:	54700005 	bnel	v1,s0,9d00b9bc <__malloc0+0x40>
9d00b9a8:	8c640000 	lw	a0,0(v1)
9d00b9ac:	8fbf0014 	lw	ra,20(sp)
9d00b9b0:	8fb00010 	lw	s0,16(sp)
9d00b9b4:	03e00008 	jr	ra
9d00b9b8:	27bd0018 	addiu	sp,sp,24
9d00b9bc:	54800001 	bnezl	a0,9d00b9c4 <__malloc0+0x48>
9d00b9c0:	ac600000 	sw	zero,0(v1)
9d00b9c4:	1000fff7 	b	9d00b9a4 <__malloc0+0x28>
9d00b9c8:	24630004 	addiu	v1,v1,4

Disassembly of section .text.__stdio_exit:

9d00b9cc <__stdio_exit>:
9d00b9cc:	27bdffe8 	addiu	sp,sp,-24
9d00b9d0:	afbf0014 	sw	ra,20(sp)
9d00b9d4:	0f4030a8 	jal	9d00c2a0 <__stdio_exit_ofl>
9d00b9d8:	00000000 	nop
9d00b9dc:	3c02a000 	lui	v0,0xa000
9d00b9e0:	8c4400c4 	lw	a0,196(v0)
9d00b9e4:	0f402f6f 	jal	9d00bdbc <__fclose>
9d00b9e8:	00002825 	move	a1,zero
9d00b9ec:	3c02a000 	lui	v0,0xa000
9d00b9f0:	8c4400c4 	lw	a0,196(v0)
9d00b9f4:	0f402f6f 	jal	9d00bdbc <__fclose>
9d00b9f8:	00002825 	move	a1,zero
9d00b9fc:	3c02a000 	lui	v0,0xa000
9d00ba00:	8c4400c4 	lw	a0,196(v0)
9d00ba04:	0f402f6f 	jal	9d00bdbc <__fclose>
9d00ba08:	00002825 	move	a1,zero
9d00ba0c:	8fbf0014 	lw	ra,20(sp)
9d00ba10:	03e00008 	jr	ra
9d00ba14:	27bd0018 	addiu	sp,sp,24

Disassembly of section .text.sbrk:

9d00ba18 <sbrk>:
9d00ba18:	27bdffe8 	addiu	sp,sp,-24
9d00ba1c:	afb00010 	sw	s0,16(sp)
9d00ba20:	afbf0014 	sw	ra,20(sp)
9d00ba24:	0f402aa0 	jal	9d00aa80 <_sbrk>
9d00ba28:	00808025 	move	s0,a0
9d00ba2c:	1a000008 	blez	s0,9d00ba50 <sbrk+0x38>
9d00ba30:	00401825 	move	v1,v0
9d00ba34:	2402ffff 	li	v0,-1
9d00ba38:	10620005 	beq	v1,v0,9d00ba50 <sbrk+0x38>
9d00ba3c:	00602025 	move	a0,v1
9d00ba40:	02003025 	move	a2,s0
9d00ba44:	0f403010 	jal	9d00c040 <memset>
9d00ba48:	00002825 	move	a1,zero
9d00ba4c:	00401825 	move	v1,v0
9d00ba50:	8fbf0014 	lw	ra,20(sp)
9d00ba54:	00601025 	move	v0,v1
9d00ba58:	8fb00010 	lw	s0,16(sp)
9d00ba5c:	03e00008 	jr	ra
9d00ba60:	27bd0018 	addiu	sp,sp,24

Disassembly of section .text._bootstrap_exception_handler:

9d00ba64 <_bootstrap_exception_handler>:
9d00ba64:	3c020000 	lui	v0,0x0
9d00ba68:	24420000 	addiu	v0,v0,0
9d00ba6c:	10400005 	beqz	v0,9d00ba84 <_bootstrap_exception_handler+0x20>
9d00ba70:	3c020000 	lui	v0,0x0
9d00ba74:	24420000 	addiu	v0,v0,0
9d00ba78:	10400003 	beqz	v0,9d00ba88 <_bootstrap_exception_handler+0x24>
9d00ba7c:	3c029d01 	lui	v0,0x9d01
9d00ba80:	7000003f 	sdbbp
9d00ba84:	3c029d01 	lui	v0,0x9d01
9d00ba88:	2442bbcc 	addiu	v0,v0,-17460
9d00ba8c:	10400005 	beqz	v0,9d00baa4 <_bootstrap_exception_handler+0x40>
9d00ba90:	00000000 	nop
9d00ba94:	27bdffe8 	addiu	sp,sp,-24
9d00ba98:	afbf0014 	sw	ra,20(sp)
9d00ba9c:	0040f809 	jalr	v0
9d00baa0:	00000000 	nop
9d00baa4:	1000ffff 	b	9d00baa4 <_bootstrap_exception_handler+0x40>
9d00baa8:	00000000 	nop

Disassembly of section .text._general_exception_handler:

9d00baac <_general_exception_handler>:
9d00baac:	3c020000 	lui	v0,0x0
9d00bab0:	24420000 	addiu	v0,v0,0
9d00bab4:	10400005 	beqz	v0,9d00bacc <_general_exception_handler+0x20>
9d00bab8:	3c020000 	lui	v0,0x0
9d00babc:	24420000 	addiu	v0,v0,0
9d00bac0:	10400003 	beqz	v0,9d00bad0 <_general_exception_handler+0x24>
9d00bac4:	3c029d01 	lui	v0,0x9d01
9d00bac8:	7000003f 	sdbbp
9d00bacc:	3c029d01 	lui	v0,0x9d01
9d00bad0:	2442bbcc 	addiu	v0,v0,-17460
9d00bad4:	10400005 	beqz	v0,9d00baec <_general_exception_handler+0x40>
9d00bad8:	00000000 	nop
9d00badc:	27bdffe8 	addiu	sp,sp,-24
9d00bae0:	afbf0014 	sw	ra,20(sp)
9d00bae4:	0040f809 	jalr	v0
9d00bae8:	00000000 	nop
9d00baec:	1000ffff 	b	9d00baec <_general_exception_handler+0x40>
9d00baf0:	00000000 	nop

Disassembly of section .vector_default:

9d00baf4 <_DefaultInterrupt>:
9d00baf4:	3c020000 	lui	v0,0x0
9d00baf8:	24420000 	addiu	v0,v0,0
9d00bafc:	10400007 	beqz	v0,9d00bb1c <_DefaultInterrupt+0x28>
9d00bb00:	3c020000 	lui	v0,0x0
9d00bb04:	24420000 	addiu	v0,v0,0
9d00bb08:	50400005 	beqzl	v0,9d00bb20 <_DefaultInterrupt+0x2c>
9d00bb0c:	3c029d01 	lui	v0,0x9d01
9d00bb10:	7000003f 	sdbbp
9d00bb14:	03e00008 	jr	ra
9d00bb18:	00000000 	nop
9d00bb1c:	3c029d01 	lui	v0,0x9d01
9d00bb20:	2442bbcc 	addiu	v0,v0,-17460
9d00bb24:	10400003 	beqz	v0,9d00bb34 <_DefaultInterrupt+0x40>
9d00bb28:	00000000 	nop
9d00bb2c:	0040f809 	jalr	v0
9d00bb30:	00000000 	nop
9d00bb34:	03e00008 	jr	ra
9d00bb38:	00000000 	nop

Disassembly of section .text.__ftello_adj_rw:

9d00bb3c <__ftello_adj_rw>:
9d00bb3c:	8c820004 	lw	v0,4(a0)
9d00bb40:	30460002 	andi	a2,v0,0x2
9d00bb44:	14c00004 	bnez	a2,9d00bb58 <__ftello_adj_rw+0x1c>
9d00bb48:	00001825 	move	v1,zero
9d00bb4c:	8c830040 	lw	v1,64(a0)
9d00bb50:	8c86003c 	lw	a2,60(a0)
9d00bb54:	00661823 	subu	v1,v1,a2
9d00bb58:	8c870014 	lw	a3,20(a0)
9d00bb5c:	8c860018 	lw	a2,24(a0)
9d00bb60:	00e62023 	subu	a0,a3,a2
9d00bb64:	00831821 	addu	v1,a0,v1
9d00bb68:	aca30000 	sw	v1,0(a1)
9d00bb6c:	30430040 	andi	v1,v0,0x40
9d00bb70:	10600002 	beqz	v1,9d00bb7c <__ftello_adj_rw+0x40>
9d00bb74:	00001025 	move	v0,zero
9d00bb78:	00c7102b 	sltu	v0,a2,a3
9d00bb7c:	03e00008 	jr	ra
9d00bb80:	00000000 	nop

Disassembly of section .text.__stdio_seek_unbuffered:

9d00bb84 <__stdio_seek_unbuffered>:
9d00bb84:	27bdffe8 	addiu	sp,sp,-24
9d00bb88:	afb00010 	sw	s0,16(sp)
9d00bb8c:	00808025 	move	s0,a0
9d00bb90:	8c840000 	lw	a0,0(a0)
9d00bb94:	afbf0014 	sw	ra,20(sp)
9d00bb98:	0f4030b6 	jal	9d00c2d8 <lseek>
9d00bb9c:	00000000 	nop
9d00bba0:	04400005 	bltz	v0,9d00bbb8 <__stdio_seek_unbuffered+0x34>
9d00bba4:	2403ffff 	li	v1,-1
9d00bba8:	8e020004 	lw	v0,4(s0)
9d00bbac:	00001825 	move	v1,zero
9d00bbb0:	7c0218c4 	ins	v0,zero,0x3,0x1
9d00bbb4:	ae020004 	sw	v0,4(s0)
9d00bbb8:	8fbf0014 	lw	ra,20(sp)
9d00bbbc:	00601025 	move	v0,v1
9d00bbc0:	8fb00010 	lw	s0,16(sp)
9d00bbc4:	03e00008 	jr	ra
9d00bbc8:	27bd0018 	addiu	sp,sp,24

Disassembly of section .text:

9d00bbcc <__pic32_software_reset>:
9d00bbcc:	41606000 	di
9d00bbd0:	000000c0 	ehb
9d00bbd4:	3c03aa99 	lui	v1,0xaa99
9d00bbd8:	3c02bf81 	lui	v0,0xbf81
9d00bbdc:	24636655 	addiu	v1,v1,26197
9d00bbe0:	ac40f230 	sw	zero,-3536(v0)
9d00bbe4:	ac43f230 	sw	v1,-3536(v0)
9d00bbe8:	3c035566 	lui	v1,0x5566
9d00bbec:	346399aa 	ori	v1,v1,0x99aa
9d00bbf0:	ac43f230 	sw	v1,-3536(v0)
9d00bbf4:	3c02bf81 	lui	v0,0xbf81
9d00bbf8:	24030001 	li	v1,1
9d00bbfc:	ac43f618 	sw	v1,-2536(v0)
9d00bc00:	3c02bf81 	lui	v0,0xbf81
9d00bc04:	8c42f610 	lw	v0,-2544(v0)
9d00bc08:	0b402ef5 	j	9d00bbd4 <__pic32_software_reset+0x8>
9d00bc0c:	00000000 	nop

Disassembly of section .text.__towrite:

9d00bc10 <__towrite>:
9d00bc10:	27bdffe8 	addiu	sp,sp,-24
9d00bc14:	afb00010 	sw	s0,16(sp)
9d00bc18:	afbf0014 	sw	ra,20(sp)
9d00bc1c:	0f402f24 	jal	9d00bc90 <__towrite_rw>
9d00bc20:	00808025 	move	s0,a0
9d00bc24:	14400008 	bnez	v0,9d00bc48 <__towrite+0x38>
9d00bc28:	8fbf0014 	lw	ra,20(sp)
9d00bc2c:	8e030008 	lw	v1,8(s0)
9d00bc30:	8e04000c 	lw	a0,12(s0)
9d00bc34:	ae030018 	sw	v1,24(s0)
9d00bc38:	ae030014 	sw	v1,20(s0)
9d00bc3c:	00641821 	addu	v1,v1,a0
9d00bc40:	ae030028 	sw	v1,40(s0)
9d00bc44:	8fbf0014 	lw	ra,20(sp)
9d00bc48:	8fb00010 	lw	s0,16(sp)
9d00bc4c:	03e00008 	jr	ra
9d00bc50:	27bd0018 	addiu	sp,sp,24

Disassembly of section .text.__sio_sscanf_doux:

9d00bc54 <__sio_sscanf_doux>:
9d00bc54:	27bdffe8 	addiu	sp,sp,-24
9d00bc58:	afbf0014 	sw	ra,20(sp)
9d00bc5c:	0f402cc2 	jal	9d00b308 <__scan_d>
9d00bc60:	00000000 	nop
9d00bc64:	0f4025da 	jal	9d009768 <__scan_o>
9d00bc68:	00000000 	nop
9d00bc6c:	0f402cde 	jal	9d00b378 <__scan_u>
9d00bc70:	00000000 	nop
9d00bc74:	0f402374 	jal	9d008dd0 <__scan_x>
9d00bc78:	00000000 	nop
9d00bc7c:	0f402584 	jal	9d009610 <__scan_s>
9d00bc80:	00000000 	nop
9d00bc84:	8fbf0014 	lw	ra,20(sp)
9d00bc88:	03e00008 	jr	ra
9d00bc8c:	27bd0018 	addiu	sp,sp,24

Disassembly of section .text.__towrite_rw:

9d00bc90 <__towrite_rw>:
9d00bc90:	80820048 	lb	v0,72(a0)
9d00bc94:	2443ffff 	addiu	v1,v0,-1
9d00bc98:	00431025 	or	v0,v0,v1
9d00bc9c:	a0820048 	sb	v0,72(a0)
9d00bca0:	8c820004 	lw	v0,4(a0)
9d00bca4:	30430004 	andi	v1,v0,0x4
9d00bca8:	50600005 	beqzl	v1,9d00bcc0 <__towrite_rw+0x30>
9d00bcac:	ac800040 	sw	zero,64(a0)
9d00bcb0:	34420010 	ori	v0,v0,0x10
9d00bcb4:	ac820004 	sw	v0,4(a0)
9d00bcb8:	03e00008 	jr	ra
9d00bcbc:	2402ffff 	li	v0,-1
9d00bcc0:	ac80003c 	sw	zero,60(a0)
9d00bcc4:	03e00008 	jr	ra
9d00bcc8:	00001025 	move	v0,zero

Disassembly of section .text.__vfscanf:

9d00bccc <__vfscanf>:
9d00bccc:	27bdffe0 	addiu	sp,sp,-32
9d00bcd0:	afb00018 	sw	s0,24(sp)
9d00bcd4:	afa60010 	sw	a2,16(sp)
9d00bcd8:	00808025 	move	s0,a0
9d00bcdc:	afbf001c 	sw	ra,28(sp)
9d00bce0:	0f401d29 	jal	9d0074a4 <__scanf_core>
9d00bce4:	27a60010 	addiu	a2,sp,16
9d00bce8:	8e030004 	lw	v1,4(s0)
9d00bcec:	8fbf001c 	lw	ra,28(sp)
9d00bcf0:	2404ffff 	li	a0,-1
9d00bcf4:	30630010 	andi	v1,v1,0x10
9d00bcf8:	0083100b 	movn	v0,a0,v1
9d00bcfc:	8fb00018 	lw	s0,24(sp)
9d00bd00:	03e00008 	jr	ra
9d00bd04:	27bd0020 	addiu	sp,sp,32

Disassembly of section .text.__expand_heap:

9d00bd08 <__expand_heap>:
9d00bd08:	8c840000 	lw	a0,0(a0)
9d00bd0c:	04810003 	bgez	a0,9d00bd1c <__expand_heap+0x14>
9d00bd10:	00001025 	move	v0,zero
9d00bd14:	03e00008 	jr	ra
9d00bd18:	00000000 	nop
9d00bd1c:	27bdffe8 	addiu	sp,sp,-24
9d00bd20:	afbf0014 	sw	ra,20(sp)
9d00bd24:	0f402aa0 	jal	9d00aa80 <_sbrk>
9d00bd28:	00000000 	nop
9d00bd2c:	2403ffff 	li	v1,-1
9d00bd30:	50430001 	beql	v0,v1,9d00bd38 <__expand_heap+0x30>
9d00bd34:	00001025 	move	v0,zero
9d00bd38:	8fbf0014 	lw	ra,20(sp)
9d00bd3c:	03e00008 	jr	ra
9d00bd40:	27bd0018 	addiu	sp,sp,24

Disassembly of section .text:

9d00bd44 <__lshrdi3>:
9d00bd44:	10c00008 	beqz	a2,9d00bd68 <__lshrdi3+0x24>
9d00bd48:	00801025 	move	v0,a0
9d00bd4c:	24030020 	li	v1,32
9d00bd50:	00661823 	subu	v1,v1,a2
9d00bd54:	1c600006 	bgtz	v1,9d00bd70 <__lshrdi3+0x2c>
9d00bd58:	00c52006 	srlv	a0,a1,a2
9d00bd5c:	00002025 	move	a0,zero
9d00bd60:	00c51006 	srlv	v0,a1,a2
9d00bd64:	00802825 	move	a1,a0
9d00bd68:	03e00008 	jr	ra
9d00bd6c:	00a01825 	move	v1,a1
9d00bd70:	00c21006 	srlv	v0,v0,a2
9d00bd74:	00652804 	sllv	a1,a1,v1
9d00bd78:	1000fffa 	b	9d00bd64 <__lshrdi3+0x20>
9d00bd7c:	00451025 	or	v0,v0,a1

9d00bd80 <__ashldi3>:
9d00bd80:	10c00008 	beqz	a2,9d00bda4 <__ashldi3+0x24>
9d00bd84:	00801025 	move	v0,a0
9d00bd88:	24040020 	li	a0,32
9d00bd8c:	00862023 	subu	a0,a0,a2
9d00bd90:	5c800006 	bgtzl	a0,9d00bdac <__ashldi3+0x2c>
9d00bd94:	00c21804 	sllv	v1,v0,a2
9d00bd98:	00001825 	move	v1,zero
9d00bd9c:	00c22804 	sllv	a1,v0,a2
9d00bda0:	00601025 	move	v0,v1
9d00bda4:	03e00008 	jr	ra
9d00bda8:	00a01825 	move	v1,a1
9d00bdac:	00c52804 	sllv	a1,a1,a2
9d00bdb0:	00821006 	srlv	v0,v0,a0
9d00bdb4:	1000fffa 	b	9d00bda0 <__ashldi3+0x20>
9d00bdb8:	00a22825 	or	a1,a1,v0

Disassembly of section .text.__fclose:

9d00bdbc <__fclose>:
9d00bdbc:	1080000b 	beqz	a0,9d00bdec <__fclose+0x30>
9d00bdc0:	00001025 	move	v0,zero
9d00bdc4:	8c83001c 	lw	v1,28(a0)
9d00bdc8:	10600008 	beqz	v1,9d00bdec <__fclose+0x30>
9d00bdcc:	00000000 	nop
9d00bdd0:	27bdffe8 	addiu	sp,sp,-24
9d00bdd4:	afbf0014 	sw	ra,20(sp)
9d00bdd8:	0060f809 	jalr	v1
9d00bddc:	00000000 	nop
9d00bde0:	8fbf0014 	lw	ra,20(sp)
9d00bde4:	03e00008 	jr	ra
9d00bde8:	27bd0018 	addiu	sp,sp,24
9d00bdec:	03e00008 	jr	ra
9d00bdf0:	00000000 	nop

Disassembly of section .text.lock_bin:

9d00bdf4 <lock_bin>:
9d00bdf4:	24840001 	addiu	a0,a0,1
9d00bdf8:	000410c0 	sll	v0,a0,0x3
9d00bdfc:	3c04a000 	lui	a0,0xa000
9d00be00:	248400d0 	addiu	a0,a0,208
9d00be04:	00441821 	addu	v1,v0,a0
9d00be08:	8c650000 	lw	a1,0(v1)
9d00be0c:	14a00004 	bnez	a1,9d00be20 <lock_bin+0x2c>
9d00be10:	2442fff8 	addiu	v0,v0,-8
9d00be14:	00822021 	addu	a0,a0,v0
9d00be18:	ac640004 	sw	a0,4(v1)
9d00be1c:	ac640000 	sw	a0,0(v1)
9d00be20:	03e00008 	jr	ra
9d00be24:	00000000 	nop

Disassembly of section .text.__fwrite:

9d00be28 <__fwrite>:
9d00be28:	8c83002c 	lw	v1,44(a0)
9d00be2c:	27bdffe8 	addiu	sp,sp,-24
9d00be30:	10600006 	beqz	v1,9d00be4c <__fwrite+0x24>
9d00be34:	afbf0014 	sw	ra,20(sp)
9d00be38:	0060f809 	jalr	v1
9d00be3c:	00000000 	nop
9d00be40:	8fbf0014 	lw	ra,20(sp)
9d00be44:	03e00008 	jr	ra
9d00be48:	27bd0018 	addiu	sp,sp,24
9d00be4c:	0f402c25 	jal	9d00b094 <write>
9d00be50:	8c840000 	lw	a0,0(a0)
9d00be54:	1000fffb 	b	9d00be44 <__fwrite+0x1c>
9d00be58:	8fbf0014 	lw	ra,20(sp)

Disassembly of section .text.memchr:

9d00be5c <memchr>:
9d00be5c:	00801025 	move	v0,a0
9d00be60:	30a500ff 	andi	a1,a1,0xff
9d00be64:	00863021 	addu	a2,a0,a2
9d00be68:	54460004 	bnel	v0,a2,9d00be7c <memchr+0x20>
9d00be6c:	90430000 	lbu	v1,0(v0)
9d00be70:	00001025 	move	v0,zero
9d00be74:	03e00008 	jr	ra
9d00be78:	00000000 	nop
9d00be7c:	1065fffd 	beq	v1,a1,9d00be74 <memchr+0x18>
9d00be80:	00000000 	nop
9d00be84:	1000fff8 	b	9d00be68 <memchr+0xc>
9d00be88:	24420001 	addiu	v0,v0,1

Disassembly of section .text.strtoull:

9d00be8c <strtoull>:
9d00be8c:	27bdffe0 	addiu	sp,sp,-32
9d00be90:	2402ffff 	li	v0,-1
9d00be94:	2403ffff 	li	v1,-1
9d00be98:	afa20010 	sw	v0,16(sp)
9d00be9c:	afa30014 	sw	v1,20(sp)
9d00bea0:	afbf001c 	sw	ra,28(sp)
9d00bea4:	0f402a19 	jal	9d00a864 <strtox>
9d00bea8:	00000000 	nop
9d00beac:	8fbf001c 	lw	ra,28(sp)
9d00beb0:	03e00008 	jr	ra
9d00beb4:	27bd0020 	addiu	sp,sp,32

Disassembly of section .text.strtoll:

9d00beb8 <strtoll>:
9d00beb8:	27bdffe0 	addiu	sp,sp,-32
9d00bebc:	00001025 	move	v0,zero
9d00bec0:	3c038000 	lui	v1,0x8000
9d00bec4:	afa20010 	sw	v0,16(sp)
9d00bec8:	afa30014 	sw	v1,20(sp)
9d00becc:	afbf001c 	sw	ra,28(sp)
9d00bed0:	0f402a19 	jal	9d00a864 <strtox>
9d00bed4:	00000000 	nop
9d00bed8:	8fbf001c 	lw	ra,28(sp)
9d00bedc:	03e00008 	jr	ra
9d00bee0:	27bd0020 	addiu	sp,sp,32

Disassembly of section .text.strtoul:

9d00bee4 <strtoul>:
9d00bee4:	27bdffe0 	addiu	sp,sp,-32
9d00bee8:	2402ffff 	li	v0,-1
9d00beec:	00001825 	move	v1,zero
9d00bef0:	afa20010 	sw	v0,16(sp)
9d00bef4:	afa30014 	sw	v1,20(sp)
9d00bef8:	afbf001c 	sw	ra,28(sp)
9d00befc:	0f402a19 	jal	9d00a864 <strtox>
9d00bf00:	00000000 	nop
9d00bf04:	8fbf001c 	lw	ra,28(sp)
9d00bf08:	03e00008 	jr	ra
9d00bf0c:	27bd0020 	addiu	sp,sp,32

Disassembly of section .text.strtol:

9d00bf10 <strtol>:
9d00bf10:	27bdffe0 	addiu	sp,sp,-32
9d00bf14:	3c028000 	lui	v0,0x8000
9d00bf18:	00001825 	move	v1,zero
9d00bf1c:	afa20010 	sw	v0,16(sp)
9d00bf20:	afa30014 	sw	v1,20(sp)
9d00bf24:	afbf001c 	sw	ra,28(sp)
9d00bf28:	0f402a19 	jal	9d00a864 <strtox>
9d00bf2c:	00000000 	nop
9d00bf30:	8fbf001c 	lw	ra,28(sp)
9d00bf34:	03e00008 	jr	ra
9d00bf38:	27bd0020 	addiu	sp,sp,32

Disassembly of section .text.__shlim:

9d00bf3c <__shlim>:
9d00bf3c:	8c830040 	lw	v1,64(a0)
9d00bf40:	8c86003c 	lw	a2,60(a0)
9d00bf44:	ac850050 	sw	a1,80(a0)
9d00bf48:	00661023 	subu	v0,v1,a2
9d00bf4c:	10a00004 	beqz	a1,9d00bf60 <__shlim+0x24>
9d00bf50:	ac820054 	sw	v0,84(a0)
9d00bf54:	00a2102a 	slt	v0,a1,v0
9d00bf58:	54400001 	bnezl	v0,9d00bf60 <__shlim+0x24>
9d00bf5c:	00c51821 	addu	v1,a2,a1
9d00bf60:	03e00008 	jr	ra
9d00bf64:	ac83004c 	sw	v1,76(a0)

Disassembly of section .text.memcpy:

9d00bf68 <memcpy>:
9d00bf68:	00801025 	move	v0,a0
9d00bf6c:	00001825 	move	v1,zero
9d00bf70:	14c30003 	bne	a2,v1,9d00bf80 <memcpy+0x18>
9d00bf74:	00a33821 	addu	a3,a1,v1
9d00bf78:	03e00008 	jr	ra
9d00bf7c:	00000000 	nop
9d00bf80:	90e70000 	lbu	a3,0(a3)
9d00bf84:	00432021 	addu	a0,v0,v1
9d00bf88:	24630001 	addiu	v1,v1,1
9d00bf8c:	1000fff8 	b	9d00bf70 <memcpy+0x8>
9d00bf90:	a0870000 	sb	a3,0(a0)

Disassembly of section .text.__dummy:

9d00bf94 <__dummy>:
9d00bf94:	8c870014 	lw	a3,20(a0)
9d00bf98:	8c860018 	lw	a2,24(a0)
9d00bf9c:	8c830004 	lw	v1,4(a0)
9d00bfa0:	00e61023 	subu	v0,a3,a2
9d00bfa4:	30630040 	andi	v1,v1,0x40
9d00bfa8:	aca20000 	sw	v0,0(a1)
9d00bfac:	10600002 	beqz	v1,9d00bfb8 <__dummy+0x24>
9d00bfb0:	00001025 	move	v0,zero
9d00bfb4:	00c7102b 	sltu	v0,a2,a3
9d00bfb8:	03e00008 	jr	ra
9d00bfbc:	00000000 	nop

Disassembly of section .text.__init_stdio:

9d00bfc0 <__init_stdio>:
9d00bfc0:	27bdffe8 	addiu	sp,sp,-24
9d00bfc4:	afbf0014 	sw	ra,20(sp)
9d00bfc8:	0f4030b2 	jal	9d00c2c8 <__init_stderr>
9d00bfcc:	00000000 	nop
9d00bfd0:	0f4030b2 	jal	9d00c2c8 <__init_stderr>
9d00bfd4:	00000000 	nop
9d00bfd8:	0f4030b2 	jal	9d00c2c8 <__init_stderr>
9d00bfdc:	00000000 	nop
9d00bfe0:	8fbf0014 	lw	ra,20(sp)
9d00bfe4:	03e00008 	jr	ra
9d00bfe8:	27bd0018 	addiu	sp,sp,24

Disassembly of section .text._stub_sbd_memlayout:

9d00bfec <_stub_sbd_memlayout>:
9d00bfec:	3c04a000 	lui	a0,0xa000
9d00bff0:	24820328 	addiu	v0,a0,808
9d00bff4:	24030001 	li	v1,1
9d00bff8:	ac430008 	sw	v1,8(v0)
9d00bffc:	3c03a000 	lui	v1,0xa000
9d00c000:	24630358 	addiu	v1,v1,856
9d00c004:	ac830328 	sw	v1,808(a0)
9d00c008:	3c030000 	lui	v1,0x0
9d00c00c:	24630000 	addiu	v1,v1,0
9d00c010:	03e00008 	jr	ra
9d00c014:	ac430004 	sw	v1,4(v0)

Disassembly of section .text.__wrap_sscanf:

9d00c018 <_dsscanf_cdnopuxX>:
9d00c018:	27bdffe0 	addiu	sp,sp,-32
9d00c01c:	afa60028 	sw	a2,40(sp)
9d00c020:	27a60028 	addiu	a2,sp,40
9d00c024:	afbf001c 	sw	ra,28(sp)
9d00c028:	afa7002c 	sw	a3,44(sp)
9d00c02c:	0f402d4e 	jal	9d00b538 <__vsscanf>
9d00c030:	afa60010 	sw	a2,16(sp)
9d00c034:	8fbf001c 	lw	ra,28(sp)
9d00c038:	03e00008 	jr	ra
9d00c03c:	27bd0020 	addiu	sp,sp,32

Disassembly of section .text.memset:

9d00c040 <memset>:
9d00c040:	00801025 	move	v0,a0
9d00c044:	00863021 	addu	a2,a0,a2
9d00c048:	00801825 	move	v1,a0
9d00c04c:	14660003 	bne	v1,a2,9d00c05c <memset+0x1c>
9d00c050:	24630001 	addiu	v1,v1,1
9d00c054:	03e00008 	jr	ra
9d00c058:	00000000 	nop
9d00c05c:	1000fffb 	b	9d00c04c <memset+0xc>
9d00c060:	a065ffff 	sb	a1,-1(v1)

Disassembly of section .text.isxdigit:

9d00c064 <isxdigit>:
9d00c064:	2483ffd0 	addiu	v1,a0,-48
9d00c068:	2c63000a 	sltiu	v1,v1,10
9d00c06c:	14600004 	bnez	v1,9d00c080 <isxdigit+0x1c>
9d00c070:	24020001 	li	v0,1
9d00c074:	34840020 	ori	a0,a0,0x20
9d00c078:	2482ff9f 	addiu	v0,a0,-97
9d00c07c:	2c420006 	sltiu	v0,v0,6
9d00c080:	03e00008 	jr	ra
9d00c084:	00000000 	nop

Disassembly of section .text.dinit.startup:

9d00c088 <__pic32_data_init>:
9d00c088:	03e01825 	move	v1,ra
9d00c08c:	3c089d01 	lui	t0,0x9d01
9d00c090:	2508b11c 	addiu	t0,t0,-20196
9d00c094:	0100f809 	jalr	t0
9d00c098:	00000000 	nop
9d00c09c:	0060f825 	move	ra,v1
9d00c0a0:	03e00008 	jr	ra
9d00c0a4:	00000000 	nop

Disassembly of section .text.__fwrite_min:

9d00c0a8 <__stdio_write>:
9d00c0a8:	8c840000 	lw	a0,0(a0)
9d00c0ac:	27bdffe8 	addiu	sp,sp,-24
9d00c0b0:	afbf0014 	sw	ra,20(sp)
9d00c0b4:	0f402c25 	jal	9d00b094 <write>
9d00c0b8:	00000000 	nop
9d00c0bc:	8fbf0014 	lw	ra,20(sp)
9d00c0c0:	03e00008 	jr	ra
9d00c0c4:	27bd0018 	addiu	sp,sp,24

Disassembly of section .text.__fseeko:

9d00c0c8 <__fseeko>:
9d00c0c8:	8c820030 	lw	v0,48(a0)
9d00c0cc:	27bdffe8 	addiu	sp,sp,-24
9d00c0d0:	afbf0014 	sw	ra,20(sp)
9d00c0d4:	0040f809 	jalr	v0
9d00c0d8:	00000000 	nop
9d00c0dc:	8fbf0014 	lw	ra,20(sp)
9d00c0e0:	03e00008 	jr	ra
9d00c0e4:	27bd0018 	addiu	sp,sp,24

Disassembly of section .text.strtoimax:

9d00c0e8 <strtoimax>:
9d00c0e8:	27bdffe8 	addiu	sp,sp,-24
9d00c0ec:	afbf0014 	sw	ra,20(sp)
9d00c0f0:	0f402fae 	jal	9d00beb8 <strtoll>
9d00c0f4:	00000000 	nop
9d00c0f8:	8fbf0014 	lw	ra,20(sp)
9d00c0fc:	03e00008 	jr	ra
9d00c100:	27bd0018 	addiu	sp,sp,24

Disassembly of section .text.strtoumax:

9d00c104 <strtoumax>:
9d00c104:	27bdffe8 	addiu	sp,sp,-24
9d00c108:	afbf0014 	sw	ra,20(sp)
9d00c10c:	0f402fa3 	jal	9d00be8c <strtoull>
9d00c110:	00000000 	nop
9d00c114:	8fbf0014 	lw	ra,20(sp)
9d00c118:	03e00008 	jr	ra
9d00c11c:	27bd0018 	addiu	sp,sp,24

Disassembly of section .text.__isxdigit_l:

9d00c120 <__isxdigit_l>:
9d00c120:	27bdffe8 	addiu	sp,sp,-24
9d00c124:	afbf0014 	sw	ra,20(sp)
9d00c128:	0f403019 	jal	9d00c064 <isxdigit>
9d00c12c:	00000000 	nop
9d00c130:	8fbf0014 	lw	ra,20(sp)
9d00c134:	03e00008 	jr	ra
9d00c138:	27bd0018 	addiu	sp,sp,24

Disassembly of section .text.tolower:

9d00c13c <tolower>:
9d00c13c:	2483ffbf 	addiu	v1,a0,-65
9d00c140:	2c63001a 	sltiu	v1,v1,26
9d00c144:	10600002 	beqz	v1,9d00c150 <tolower+0x14>
9d00c148:	00801025 	move	v0,a0
9d00c14c:	34820020 	ori	v0,a0,0x20
9d00c150:	03e00008 	jr	ra
9d00c154:	00000000 	nop

Disassembly of section .text.__tolower_l:

9d00c158 <__tolower_l>:
9d00c158:	27bdffe8 	addiu	sp,sp,-24
9d00c15c:	afbf0014 	sw	ra,20(sp)
9d00c160:	0f40304f 	jal	9d00c13c <tolower>
9d00c164:	00000000 	nop
9d00c168:	8fbf0014 	lw	ra,20(sp)
9d00c16c:	03e00008 	jr	ra
9d00c170:	27bd0018 	addiu	sp,sp,24

Disassembly of section .text.do_read:

9d00c174 <do_read>:
9d00c174:	27bdffe8 	addiu	sp,sp,-24
9d00c178:	afbf0014 	sw	ra,20(sp)
9d00c17c:	0f402b21 	jal	9d00ac84 <__string_read>
9d00c180:	00000000 	nop
9d00c184:	8fbf0014 	lw	ra,20(sp)
9d00c188:	03e00008 	jr	ra
9d00c18c:	27bd0018 	addiu	sp,sp,24

Disassembly of section .text.__toread_needs_stdio_exit:

9d00c190 <__toread_needs_stdio_exit>:
9d00c190:	27bdffe8 	addiu	sp,sp,-24
9d00c194:	afbf0014 	sw	ra,20(sp)
9d00c198:	0f402e73 	jal	9d00b9cc <__stdio_exit>
9d00c19c:	00000000 	nop
9d00c1a0:	8fbf0014 	lw	ra,20(sp)
9d00c1a4:	03e00008 	jr	ra
9d00c1a8:	27bd0018 	addiu	sp,sp,24

Disassembly of section .text.putc:

9d00c1ac <putc>:
9d00c1ac:	27bdffe8 	addiu	sp,sp,-24
9d00c1b0:	afbf0014 	sw	ra,20(sp)
9d00c1b4:	0f402d16 	jal	9d00b458 <__putc>
9d00c1b8:	00000000 	nop
9d00c1bc:	8fbf0014 	lw	ra,20(sp)
9d00c1c0:	03e00008 	jr	ra
9d00c1c4:	27bd0018 	addiu	sp,sp,24

Disassembly of section .text.__fopen:

9d00c1c8 <__fopen>:
9d00c1c8:	27bdffe8 	addiu	sp,sp,-24
9d00c1cc:	afbf0014 	sw	ra,20(sp)
9d00c1d0:	0f402c03 	jal	9d00b00c <__fopen_rw>
9d00c1d4:	00000000 	nop
9d00c1d8:	8fbf0014 	lw	ra,20(sp)
9d00c1dc:	03e00008 	jr	ra
9d00c1e0:	27bd0018 	addiu	sp,sp,24

Disassembly of section .text.__ftello_adj:

9d00c1e4 <__ftello_adj>:
9d00c1e4:	27bdffe8 	addiu	sp,sp,-24
9d00c1e8:	afbf0014 	sw	ra,20(sp)
9d00c1ec:	0f402ecf 	jal	9d00bb3c <__ftello_adj_rw>
9d00c1f0:	00000000 	nop
9d00c1f4:	8fbf0014 	lw	ra,20(sp)
9d00c1f8:	03e00008 	jr	ra
9d00c1fc:	27bd0018 	addiu	sp,sp,24

Disassembly of section .text:

9d00c218 <_nmi_handler>:
9d00c218:	401a6000 	mfc0	k0,c0_status
9d00c21c:	3c1bffbf 	lui	k1,0xffbf
9d00c220:	377bffff 	ori	k1,k1,0xffff
9d00c224:	035bd024 	and	k0,k0,k1
9d00c228:	409a6000 	mtc0	k0,c0_status
9d00c22c:	42000018 	eret

Disassembly of section .rodata:

9d00c230 <state_table>:
9d00c230:	096c0768 906a834c c07aa074 88688000     h.l.L.j.t.z...h.
9d00c240:	826c8400 00008100                       ..l.....

Disassembly of section .text.__get_stderr:

9d00c248 <__get_stderr>:
9d00c248:	3c02a000 	lui	v0,0xa000
9d00c24c:	03e00008 	jr	ra
9d00c250:	24420004 	addiu	v0,v0,4

Disassembly of section .text.__get_stdout:

9d00c254 <__get_stdout>:
9d00c254:	3c02a000 	lui	v0,0xa000
9d00c258:	03e00008 	jr	ra
9d00c25c:	24420064 	addiu	v0,v0,100

Disassembly of section .text._on_reset:

9d00c260 <_on_reset>:
9d00c260:	03e00008 	jr	ra
9d00c264:	00000000 	nop

Disassembly of section .text._on_bootstrap:

9d00c268 <_on_bootstrap>:
9d00c268:	03e00008 	jr	ra
9d00c26c:	00000000 	nop

Disassembly of section .text.__dummy_scan:

9d00c270 <__scan_a>:
9d00c270:	03e00008 	jr	ra
9d00c274:	00001025 	move	v0,zero

Disassembly of section .text.__dummy_scan_s:

9d00c278 <__dummy_scan_s>:
9d00c278:	03e00008 	jr	ra
9d00c27c:	00001025 	move	v0,zero

Disassembly of section .text.__dummy_fmt3:

9d00c280 <__fmt_d>:
9d00c280:	03e00008 	jr	ra
9d00c284:	00001025 	move	v0,zero

Disassembly of section .text.__dummy_fmt4:

9d00c288 <__fmt_a>:
9d00c288:	03e00008 	jr	ra
9d00c28c:	00001025 	move	v0,zero

Disassembly of section .text.__dummy_fmts:

9d00c290 <__fmt_s>:
9d00c290:	03e00008 	jr	ra
9d00c294:	00001025 	move	v0,zero

Disassembly of section .text.__dummy:

9d00c298 <__dummy>:
9d00c298:	03e00008 	jr	ra
9d00c29c:	00000000 	nop

9d00c2a0 <__stdio_exit_ofl>:
9d00c2a0:	03e00008 	jr	ra
9d00c2a4:	00000000 	nop

Disassembly of section .text.__dummy1:

9d00c2a8 <__dummy1>:
9d00c2a8:	03e00008 	jr	ra
9d00c2ac:	00001025 	move	v0,zero

Disassembly of section .text.__dummy:

9d00c2b0 <__dummy>:
9d00c2b0:	03e00008 	jr	ra
9d00c2b4:	00000000 	nop

9d00c2b8 <__dummy>:
9d00c2b8:	03e00008 	jr	ra
9d00c2bc:	00001025 	move	v0,zero

Disassembly of section .text.__dummy:

9d00c2c0 <__dummy>:
9d00c2c0:	03e00008 	jr	ra
9d00c2c4:	00001025 	move	v0,zero

9d00c2c8 <__init_stderr>:
9d00c2c8:	03e00008 	jr	ra
9d00c2cc:	00000000 	nop

Disassembly of section .text.getpagesize:

9d00c2d0 <getpagesize>:
9d00c2d0:	03e00008 	jr	ra
9d00c2d4:	24020080 	li	v0,128

Disassembly of section .text.lseek:

9d00c2d8 <lseek>:
9d00c2d8:	03e00008 	jr	ra
9d00c2dc:	00001025 	move	v0,zero

Disassembly of section .text.close:

9d00c2e0 <close>:
9d00c2e0:	03e00008 	jr	ra
9d00c2e4:	00001025 	move	v0,zero
